EXPORTS
	?ImplementationGroupProxy@@YAPBUTImplementationProxy@@AAH@Z @ 1 NONAME ; struct TImplementationProxy const * ImplementationGroupProxy(int &)
	?NotifyTriggerFiredL@COMASUPLProtocolManager2@@UAEXPAVCSuplSessionBase@@AAVTRequestStatus@@AAVTSuplTriggerFireInfo@@@Z @ 2 NONAME ; void COMASUPLProtocolManager2::NotifyTriggerFiredL(class CSuplSessionBase *, class TRequestStatus &, class TSuplTriggerFireInfo &)
	?RunSuplTriggerSessionL@COMASUPLProtocolManager2@@UAEXPAVCSuplSessionBase@@AAVTRequestStatus@@AAVTSuplTerminalPeriodicTrigger@@ABVTDesC16@@HHH@Z @ 3 NONAME ; void COMASUPLProtocolManager2::RunSuplTriggerSessionL(class CSuplSessionBase *, class TRequestStatus &, class TSuplTerminalPeriodicTrigger &, class TDesC16 const &, int, int, int)
	?HandlePacket@COMASUPLProtocolManager2@@UAEXABVTDesC8@@I@Z @ 4 NONAME ; void COMASUPLProtocolManager2::HandlePacket(class TDesC8 const &, unsigned int)
	?CancelSuplTriggerSession@COMASUPLProtocolManager2@@UAEXPAVCSuplSessionBase@@@Z @ 5 NONAME ; void COMASUPLProtocolManager2::CancelSuplTriggerSession(class CSuplSessionBase *)
	?DeInitialize@COMASUPLProtocolManager2@@UAEXAAVTRequestStatus@@@Z @ 6 NONAME ; void COMASUPLProtocolManager2::DeInitialize(class TRequestStatus &)
	?FindSessionOnPortNum@COMASUPLProtocolManager2@@QBEPAVCOMASuplSession@@I@Z @ 7 NONAME ; class COMASuplSession * COMASUPLProtocolManager2::FindSessionOnPortNum(unsigned int) const
	?RunSessionL@COMASUPLProtocolManager2@@UAEXPAVCSuplSessionBase@@AAVTRequestStatus@@ABVTDesC16@@HHHH@Z @ 8 NONAME ; void COMASUPLProtocolManager2::RunSessionL(class CSuplSessionBase *, class TRequestStatus &, class TDesC16 const &, int, int, int, int)
	?GetPosition@COMASuplSession@@UAEHAAVHPositionGenericInfo@@@Z @ 9 NONAME ; int COMASuplSession::GetPosition(class HPositionGenericInfo &)
	?DestroySession@COMASUPLProtocolManager2@@UAEHPAVCSuplSessionBase@@@Z @ 10 NONAME ; int COMASUPLProtocolManager2::DestroySession(class CSuplSessionBase *)
	??1COMASUPLProtocolManager2@@UAE@XZ @ 11 NONAME ; COMASUPLProtocolManager2::~COMASUPLProtocolManager2(void)
	?HandlePacketError@COMASUPLProtocolManager2@@UAEXH@Z @ 12 NONAME ; void COMASUPLProtocolManager2::HandlePacketError(int)
	?NewL@COMASUPLProtocolManager2@@SAPAV1@XZ @ 13 NONAME ; class COMASUPLProtocolManager2 * COMASUPLProtocolManager2::NewL(void)
	?CancelRunSession@COMASUPLProtocolManager2@@UAEXPAVCSuplSessionBase@@@Z @ 14 NONAME ; void COMASUPLProtocolManager2::CancelRunSession(class CSuplSessionBase *)
	?HandleSuplMessageL@COMASUPLProtocolManager2@@UAEXPAVCSuplSessionBase@@AAVTRequestStatus@@PAVHBufC8@@@Z @ 15 NONAME ; void COMASUPLProtocolManager2::HandleSuplMessageL(class CSuplSessionBase *, class TRequestStatus &, class HBufC8 *)
	?RunSessionL@COMASUPLProtocolManager2@@UAEXPAVCSuplSessionBase@@AAVTRequestStatus@@ABVTDesC16@@HHHAAVTSuplTerminalQop@@H@Z @ 16 NONAME ; void COMASUPLProtocolManager2::RunSessionL(class CSuplSessionBase *, class TRequestStatus &, class TDesC16 const &, int, int, int, class TSuplTerminalQop &, int)
	?CancelInitialize@COMASUPLProtocolManager2@@UAEXXZ @ 17 NONAME ; void COMASUPLProtocolManager2::CancelInitialize(void)
	?CancelDeInitialize@COMASUPLProtocolManager2@@UAEXXZ @ 18 NONAME ; void COMASUPLProtocolManager2::CancelDeInitialize(void)
	?GetPosition@COMASuplSession@@UAEHAAVTPositionInfo@@@Z @ 19 NONAME ; int COMASuplSession::GetPosition(class TPositionInfo &)
	?InitializeL@COMASUPLProtocolManager2@@UAEXPAVCSuplCommunicationManager@@AAVTRequestStatus@@@Z @ 20 NONAME ; void COMASUPLProtocolManager2::InitializeL(class CSuplCommunicationManager *, class TRequestStatus &)
	?CreateNewSessionL@COMASUPLProtocolManager2@@UAEPAVCSuplSessionBase@@W4TSuplReqType@CSUPLProtocolManagerBase@@HW4TSuplServiceType@RSuplTerminalSubSession@@@Z @ 21 NONAME ; class CSuplSessionBase * COMASUPLProtocolManager2::CreateNewSessionL(enum CSUPLProtocolManagerBase::TSuplReqType, int, enum RSuplTerminalSubSession::TSuplServiceType)
	?GetServerAddressL@COMASuplSession@@UAEHAAVTDes16@@@Z @ 22 NONAME ; int COMASuplSession::GetServerAddressL(class TDes16 &)

