EXPORTS
	_ZN21C3gpDataSourceAdapter10GetBitRateERj @ 1 NONAME
	_ZN21C3gpDataSourceAdapter10ReadHeaderERmS0_RhS0_S0_ @ 2 NONAME
	_ZN21C3gpDataSourceAdapter10SeekToTimeEjRj @ 3 NONAME
	_ZN21C3gpDataSourceAdapter11FillBufferLEP10CMMFBufferP9MDataSink8TMediaId @ 4 NONAME
	_ZN21C3gpDataSourceAdapter11SourceStopLEv @ 5 NONAME
	_ZN21C3gpDataSourceAdapter12BufferFilledEP10CMMFBuffer @ 6 NONAME
	_ZN21C3gpDataSourceAdapter12EmptyBufferLEP10CMMFBufferP11MDataSource8TMediaId @ 7 NONAME
	_ZN21C3gpDataSourceAdapter12SourcePrimeLEv @ 8 NONAME
	_ZN21C3gpDataSourceAdapter13BufferFilledLEP10CMMFBuffer @ 9 NONAME
	_ZN21C3gpDataSourceAdapter14ConstructSinkLERK6TDesC8 @ 10 NONAME
	_ZN21C3gpDataSourceAdapter14SetDataSourceLEP11MDataSourceP29MMultimediaDataSourceObserverP18MAsyncEventHandler @ 11 NONAME
	_ZN21C3gpDataSourceAdapter16SinkDataTypeCodeE8TMediaId @ 12 NONAME
	_ZN21C3gpDataSourceAdapter17CreateSinkBufferLE8TMediaIdRi @ 13 NONAME
	_ZN21C3gpDataSourceAdapter17IsPositonSeekableEv @ 14 NONAME
	_ZN21C3gpDataSourceAdapter19CanCreateSinkBufferEv @ 15 NONAME
	_ZN21C3gpDataSourceAdapter23ReadAudioSpecificConfigEPhmPm @ 16 NONAME
	_ZN21C3gpDataSourceAdapter4NewLEv @ 17 NONAME
	_ZN21C3gpDataSourceAdapter5EventE4TUid @ 18 NONAME
	_ZN21C3gpDataSourceAdapterD0Ev @ 19 NONAME
	_ZN21C3gpDataSourceAdapterD1Ev @ 20 NONAME
	_ZN21C3gpDataSourceAdapterD2Ev @ 21 NONAME
	_ZTI21C3gpDataSourceAdapter @ 22 NONAME
	_ZTIN21C3gpDataSourceAdapter21CAsyncProxyFillBufferE @ 23 NONAME
	_ZTV21C3gpDataSourceAdapter @ 24 NONAME
	_ZTVN21C3gpDataSourceAdapter21CAsyncProxyFillBufferE @ 25 NONAME
	_ZThn64_N21C3gpDataSourceAdapter12EmptyBufferLEP10CMMFBufferP11MDataSource8TMediaId @ 26 NONAME
	_ZThn64_N21C3gpDataSourceAdapter13BufferFilledLEP10CMMFBuffer @ 27 NONAME
	_ZThn64_N21C3gpDataSourceAdapter14ConstructSinkLERK6TDesC8 @ 28 NONAME
	_ZThn64_N21C3gpDataSourceAdapter16SinkDataTypeCodeE8TMediaId @ 29 NONAME
	_ZThn64_N21C3gpDataSourceAdapter17CreateSinkBufferLE8TMediaIdRi @ 30 NONAME
	_ZThn64_N21C3gpDataSourceAdapter19CanCreateSinkBufferEv @ 31 NONAME
	_ZThn64_N21C3gpDataSourceAdapterD0Ev @ 32 NONAME
	_ZThn64_N21C3gpDataSourceAdapterD1Ev @ 33 NONAME
	_ZThn80_N21C3gpDataSourceAdapter10GetBitRateERj @ 34 NONAME
	_ZThn80_N21C3gpDataSourceAdapter12BufferFilledEP10CMMFBuffer @ 35 NONAME
	_ZThn80_N21C3gpDataSourceAdapter5EventE4TUid @ 36 NONAME

