EXPORTS
	??1DialpadVtKeyHandler@@UAE@XZ @ 1 NONAME ; DialpadVtKeyHandler::~DialpadVtKeyHandler(void)
	?initialize@Dialpad@@AAEXXZ @ 2 NONAME ; void Dialpad::initialize(void)
	?metaObject@DialpadVtKeyHandler@@UBEPBUQMetaObject@@XZ @ 3 NONAME ; struct QMetaObject const * DialpadVtKeyHandler::metaObject(void) const
	?closeEvent@Dialpad@@MAEXPAVQCloseEvent@@@Z @ 4 NONAME ; void Dialpad::closeEvent(class QCloseEvent *)
	?trUtf8@DialpadKeyHandler@@SA?AVQString@@PBD0H@Z @ 5 NONAME ; class QString DialpadKeyHandler::trUtf8(char const *, char const *, int)
	?openAnimValueChanged@Dialpad@@IAEXM@Z @ 6 NONAME ; void Dialpad::openAnimValueChanged(float)
	?getStaticMetaObject@DialpadKeyHandler@@SAABUQMetaObject@@XZ @ 7 NONAME ; struct QMetaObject const & DialpadKeyHandler::getStaticMetaObject(void)
	?showEvent@Dialpad@@MAEXPAVQShowEvent@@@Z @ 8 NONAME ; void Dialpad::showEvent(class QShowEvent *)
	?tr@DialpadVtKeyHandler@@SA?AVQString@@PBD0H@Z @ 9 NONAME ; class QString DialpadVtKeyHandler::tr(char const *, char const *, int)
	?metaObject@Dialpad@@UBEPBUQMetaObject@@XZ @ 10 NONAME ; struct QMetaObject const * Dialpad::metaObject(void) const
	??0DialpadVtKeyHandler@@QAE@PAVDialpad@@AAVHbMainWindow@@PAVQObject@@@Z @ 11 NONAME ; DialpadVtKeyHandler::DialpadVtKeyHandler(class Dialpad *, class HbMainWindow &, class QObject *)
	?trUtf8@DialpadVtKeyHandler@@SA?AVQString@@PBD0H@Z @ 12 NONAME ; class QString DialpadVtKeyHandler::trUtf8(char const *, char const *, int)
	?staticMetaObject@Dialpad@@2UQMetaObject@@B @ 13 NONAME ; struct QMetaObject const Dialpad::staticMetaObject
	?trUtf8@DialpadVtKeyHandler@@SA?AVQString@@PBD0@Z @ 14 NONAME ; class QString DialpadVtKeyHandler::trUtf8(char const *, char const *)
	?staticMetaObject@DialpadVtKeyHandler@@2UQMetaObject@@B @ 15 NONAME ; struct QMetaObject const DialpadVtKeyHandler::staticMetaObject
	??1Dialpad@@UAE@XZ @ 16 NONAME ; Dialpad::~Dialpad(void)
	?setTapOutsideDismiss@Dialpad@@QAEX_N@Z @ 17 NONAME ; void Dialpad::setTapOutsideDismiss(bool)
	?getStaticMetaObject@Dialpad@@SAABUQMetaObject@@XZ @ 18 NONAME ; struct QMetaObject const & Dialpad::getStaticMetaObject(void)
	?trUtf8@DialpadKeyHandler@@SA?AVQString@@PBD0@Z @ 19 NONAME ; class QString DialpadKeyHandler::trUtf8(char const *, char const *)
	?qt_metacall@DialpadVtKeyHandler@@UAEHW4Call@QMetaObject@@HPAPAX@Z @ 20 NONAME ; int DialpadVtKeyHandler::qt_metacall(enum QMetaObject::Call, int, void * *)
	?gestureEvent@Dialpad@@MAEXPAVQGestureEvent@@@Z @ 21 NONAME ; void Dialpad::gestureEvent(class QGestureEvent *)
	?paint@Dialpad@@MAEXPAVQPainter@@PBVQStyleOptionGraphicsItem@@PAVQWidget@@@Z @ 22 NONAME ; void Dialpad::paint(class QPainter *, class QStyleOptionGraphicsItem const *, class QWidget *)
	?layoutBackgroundItem@Dialpad@@AAEXXZ @ 23 NONAME ; void Dialpad::layoutBackgroundItem(void)
	?updateLayout@Dialpad@@AAEXW4Orientation@Qt@@@Z @ 24 NONAME ; void Dialpad::updateLayout(enum Qt::Orientation)
	?openAnimFinished@Dialpad@@IAEXXZ @ 25 NONAME ; void Dialpad::openAnimFinished(void)
	?getStaticMetaObject@DialpadVtKeyHandler@@SAABUQMetaObject@@XZ @ 26 NONAME ; struct QMetaObject const & DialpadVtKeyHandler::getStaticMetaObject(void)
	?setCallButtonEnabled@Dialpad@@QAEX_N@Z @ 27 NONAME ; void Dialpad::setCallButtonEnabled(bool)
	?startCloseAnimation@Dialpad@@AAEXXZ @ 28 NONAME ; void Dialpad::startCloseAnimation(void)
	?closeDialpad@Dialpad@@QAEXXZ @ 29 NONAME ; void Dialpad::closeDialpad(void)
	?aboutToClose@Dialpad@@IAEXXZ @ 30 NONAME ; void Dialpad::aboutToClose(void)
	?qt_metacast@DialpadKeyHandler@@UAEPAXPBD@Z @ 31 NONAME ; void * DialpadKeyHandler::qt_metacast(char const *)
	??_EDialpadVtKeyHandler@@UAE@I@Z @ 32 NONAME ; DialpadVtKeyHandler::~DialpadVtKeyHandler(unsigned int)
	??0Dialpad@@QAE@ABVHbMainWindow@@@Z @ 33 NONAME ; Dialpad::Dialpad(class HbMainWindow const &)
	?isOpen@Dialpad@@QBE_NXZ @ 34 NONAME ; bool Dialpad::isOpen(void) const
	?trUtf8@Dialpad@@SA?AVQString@@PBD0H@Z @ 35 NONAME ; class QString Dialpad::trUtf8(char const *, char const *, int)
	?closeAnimValueChanged@Dialpad@@IAEXM@Z @ 36 NONAME ; void Dialpad::closeAnimValueChanged(float)
	?qt_metacast@Dialpad@@UAEPAXPBD@Z @ 37 NONAME ; void * Dialpad::qt_metacast(char const *)
	?tr@DialpadKeyHandler@@SA?AVQString@@PBD0@Z @ 38 NONAME ; class QString DialpadKeyHandler::tr(char const *, char const *)
	??0Dialpad@@QAE@XZ @ 39 NONAME ; Dialpad::Dialpad(void)
	?openDialpad@Dialpad@@QAEXXZ @ 40 NONAME ; void Dialpad::openDialpad(void)
	?staticMetaObject@DialpadKeyHandler@@2UQMetaObject@@B @ 41 NONAME ; struct QMetaObject const DialpadKeyHandler::staticMetaObject
	?aboutToOpen@Dialpad@@IAEXXZ @ 42 NONAME ; void Dialpad::aboutToOpen(void)
	??1DialpadKeyHandler@@UAE@XZ @ 43 NONAME ; DialpadKeyHandler::~DialpadKeyHandler(void)
	?orientationChangeFinished@Dialpad@@IAEXW4Orientation@Qt@@@Z @ 44 NONAME ; void Dialpad::orientationChangeFinished(enum Qt::Orientation)
	?qt_metacall@DialpadKeyHandler@@UAEHW4Call@QMetaObject@@HPAPAX@Z @ 45 NONAME ; int DialpadKeyHandler::qt_metacall(enum QMetaObject::Call, int, void * *)
	?hideEvent@Dialpad@@MAEXPAVQHideEvent@@@Z @ 46 NONAME ; void Dialpad::hideEvent(class QHideEvent *)
	?tr@Dialpad@@SA?AVQString@@PBD0@Z @ 47 NONAME ; class QString Dialpad::tr(char const *, char const *)
	?qt_metacast@DialpadVtKeyHandler@@UAEPAXPBD@Z @ 48 NONAME ; void * DialpadVtKeyHandler::qt_metacast(char const *)
	?orientationChangeStarted@Dialpad@@IAEXXZ @ 49 NONAME ; void Dialpad::orientationChangeStarted(void)
	?trUtf8@Dialpad@@SA?AVQString@@PBD0@Z @ 50 NONAME ; class QString Dialpad::trUtf8(char const *, char const *)
	?tr@DialpadKeyHandler@@SA?AVQString@@PBD0H@Z @ 51 NONAME ; class QString DialpadKeyHandler::tr(char const *, char const *, int)
	?qt_metacall@Dialpad@@UAEHW4Call@QMetaObject@@HPAPAX@Z @ 52 NONAME ; int Dialpad::qt_metacall(enum QMetaObject::Call, int, void * *)
	?tr@DialpadVtKeyHandler@@SA?AVQString@@PBD0@Z @ 53 NONAME ; class QString DialpadVtKeyHandler::tr(char const *, char const *)
	?tr@Dialpad@@SA?AVQString@@PBD0H@Z @ 54 NONAME ; class QString Dialpad::tr(char const *, char const *, int)
	??_EDialpadKeyHandler@@UAE@I@Z @ 55 NONAME ; DialpadKeyHandler::~DialpadKeyHandler(unsigned int)
	??0DialpadKeyHandler@@QAE@PAVDialpad@@V?$QFlags@W4DialpadKeyEventFilter@DialpadKeyHandler@@@@PAVQObject@@@Z @ 56 NONAME ; DialpadKeyHandler::DialpadKeyHandler(class Dialpad *, class QFlags<enum DialpadKeyHandler::DialpadKeyEventFilter>, class QObject *)
	??_EDialpad@@UAE@I@Z @ 57 NONAME ; Dialpad::~Dialpad(unsigned int)
	?editor@Dialpad@@QBEAAVHbLineEdit@@XZ @ 58 NONAME ; class HbLineEdit & Dialpad::editor(void) const
	?closeAnimFinished@Dialpad@@IAEXXZ @ 59 NONAME ; void Dialpad::closeAnimFinished(void)
	?metaObject@DialpadKeyHandler@@UBEPBUQMetaObject@@XZ @ 60 NONAME ; struct QMetaObject const * DialpadKeyHandler::metaObject(void) const
	??0DialpadKeyHandler@@QAE@PAVDialpad@@AAVHbMainWindow@@PAVQObject@@@Z @ 61 NONAME ; DialpadKeyHandler::DialpadKeyHandler(class Dialpad *, class HbMainWindow &, class QObject *)
	?isCallButtonEnabled@Dialpad@@QBE_NXZ @ 62 NONAME ; bool Dialpad::isCallButtonEnabled(void) const
	?changeEvent@Dialpad@@MAEXPAVQEvent@@@Z @ 63 NONAME ; void Dialpad::changeEvent(class QEvent *)

