EXPORTS
	_ZN11PSetWrapper10cliWrapperEv @ 1 NONAME
	_ZN11PSetWrapper11qt_metacallEN11QMetaObject4CallEiPPv @ 2 NONAME
	_ZN11PSetWrapper11qt_metacastEPKc @ 3 NONAME
	_ZN11PSetWrapper14networkWrapperEv @ 4 NONAME
	_ZN11PSetWrapper16staticMetaObjectE @ 5 NONAME DATA 16
	_ZN11PSetWrapper18callBarringWrapperEv @ 6 NONAME
	_ZN11PSetWrapper18callWaitingWrapperEv @ 7 NONAME
	_ZN11PSetWrapper19getStaticMetaObjectEv @ 8 NONAME
	_ZN11PSetWrapper20callDivertingWrapperEv @ 9 NONAME
	_ZN11PSetWrapperC1EP7QObject @ 10 NONAME
	_ZN11PSetWrapperC2EP7QObject @ 11 NONAME
	_ZN11PSetWrapperD0Ev @ 12 NONAME
	_ZN11PSetWrapperD1Ev @ 13 NONAME
	_ZN11PSetWrapperD2Ev @ 14 NONAME
	_ZN14PSetCliWrapper11getClipModeEv @ 15 NONAME
	_ZN14PSetCliWrapper11getClirModeEv @ 16 NONAME
	_ZN14PSetCliWrapper11getColpModeEv @ 17 NONAME
	_ZN14PSetCliWrapper11getColrModeEv @ 18 NONAME
	_ZN14PSetCliWrapper11qt_metacallEN11QMetaObject4CallEiPPv @ 19 NONAME
	_ZN14PSetCliWrapper11qt_metacastEPKc @ 20 NONAME
	_ZN14PSetCliWrapper14cliInformationERK18PsCallLineIdentity @ 21 NONAME
	_ZN14PSetCliWrapper14handleCliErrorEi @ 22 NONAME
	_ZN14PSetCliWrapper15handleCliStatusEPhiRK18PsCallLineIdentity @ 23 NONAME
	_ZN14PSetCliWrapper16handleCnapStatusEi @ 24 NONAME
	_ZN14PSetCliWrapper16staticMetaObjectE @ 25 NONAME DATA 16
	_ZN14PSetCliWrapper19getStaticMetaObjectEv @ 26 NONAME
	_ZN14PSetCliWrapper19handleCliRequestingEbb @ 27 NONAME
	_ZN14PSetCliWrapper7getCnapEv @ 28 NONAME
	_ZN14PSetCliWrapper9cancelAllEv @ 29 NONAME
	_ZN14PSetCliWrapperC1ER14CPsetContainerP7QObject @ 30 NONAME
	_ZN14PSetCliWrapperC2ER14CPsetContainerP7QObject @ 31 NONAME
	_ZN14PSetCliWrapperD0Ev @ 32 NONAME
	_ZN14PSetCliWrapperD1Ev @ 33 NONAME
	_ZN14PSetCliWrapperD2Ev @ 34 NONAME
	_ZN18PSetNetworkWrapper11qt_metacallEN11QMetaObject4CallEiPPv @ 35 NONAME
	_ZN18PSetNetworkWrapper11qt_metacastEPKc @ 36 NONAME
	_ZN18PSetNetworkWrapper13cancelRequestEv @ 37 NONAME
	_ZN18PSetNetworkWrapper13selectNetworkERKNS_11NetworkInfoE @ 38 NONAME
	_ZN18PSetNetworkWrapper14networkChangedERNS_11NetworkInfoERNS_18RegistrationStatusE @ 39 NONAME
	_ZN18PSetNetworkWrapper16staticMetaObjectE @ 40 NONAME DATA 16
	_ZN18PSetNetworkWrapper17searchingNetworksERNS_11RequestTypeE @ 41 NONAME
	_ZN18PSetNetworkWrapper19getStaticMetaObjectEv @ 42 NONAME
	_ZN18PSetNetworkWrapper19networkReqestFailedENS_9ErrorCodeENS_11RequestTypeE @ 43 NONAME
	_ZN18PSetNetworkWrapper20availableNetworksGotER5QListIPNS_11NetworkInfoEE @ 44 NONAME
	_ZN18PSetNetworkWrapper20getAvailableNetworksEv @ 45 NONAME
	_ZN18PSetNetworkWrapper20networkAccessModeGotEi @ 46 NONAME
	_ZN18PSetNetworkWrapper20setNetworkAccessModeENS_17NetworkAccessModeE @ 47 NONAME
	_ZN18PSetNetworkWrapper25requestingSelectedNetworkEb @ 48 NONAME
	_ZN18PSetNetworkWrapper38chageVisbilityOfManualNetworkSelectionEb @ 49 NONAME
	_ZN18PSetNetworkWrapperC1ER14CPsetContainerP7QObject @ 50 NONAME
	_ZN18PSetNetworkWrapperC2ER14CPsetContainerP7QObject @ 51 NONAME
	_ZN18PSetNetworkWrapperD0Ev @ 52 NONAME
	_ZN18PSetNetworkWrapperD1Ev @ 53 NONAME
	_ZN18PSetNetworkWrapperD2Ev @ 54 NONAME
	_ZN22PSetCallBarringWrapper11qt_metacallEN11QMetaObject4CallEiPPv @ 55 NONAME
	_ZN22PSetCallBarringWrapper11qt_metacastEPKc @ 56 NONAME
	_ZN22PSetCallBarringWrapper13barringStatusE6QFlagsI9PsServiceENS_11BarringTypeE @ 57 NONAME
	_ZN22PSetCallBarringWrapper13enableBarringEi6QFlagsI9PsServiceENS_11BarringTypeE7QString @ 58 NONAME
	_ZN22PSetCallBarringWrapper14disableBarringEi6QFlagsI9PsServiceENS_11BarringTypeE7QString @ 59 NONAME
	_ZN22PSetCallBarringWrapper16staticMetaObjectE @ 60 NONAME DATA 16
	_ZN22PSetCallBarringWrapper19getStaticMetaObjectEv @ 61 NONAME
	_ZN22PSetCallBarringWrapper21changeBarringPasswordERK7QStringS2_S2_ @ 62 NONAME
	_ZN22PSetCallBarringWrapper29barringStatusRequestCompletedEiRK5QListIhENS_13BarringStatusE @ 63 NONAME
	_ZN22PSetCallBarringWrapper29enableBarringRequestCompletedEiNS_11BarringTypeENS_13BarringStatusEb @ 64 NONAME
	_ZN22PSetCallBarringWrapper30disableBarringRequestCompletedEiNS_11BarringTypeENS_13BarringStatusEb @ 65 NONAME
	_ZN22PSetCallBarringWrapper37barringPasswordChangeRequestCompletedEi @ 66 NONAME
	_ZN22PSetCallBarringWrapperC1ER14CPsetContainerP7QObject @ 67 NONAME
	_ZN22PSetCallBarringWrapperC2ER14CPsetContainerP7QObject @ 68 NONAME
	_ZN22PSetCallBarringWrapperD0Ev @ 69 NONAME
	_ZN22PSetCallBarringWrapperD1Ev @ 70 NONAME
	_ZN22PSetCallBarringWrapperD2Ev @ 71 NONAME
	_ZN22PSetCallWaitingWrapper11qt_metacallEN11QMetaObject4CallEiPPv @ 72 NONAME
	_ZN22PSetCallWaitingWrapper11qt_metacastEPKc @ 73 NONAME
	_ZN22PSetCallWaitingWrapper13cancelProcessEv @ 74 NONAME
	_ZN22PSetCallWaitingWrapper14setCallWaitingENS_20PsCallWaitingCommandEi @ 75 NONAME
	_ZN22PSetCallWaitingWrapper16staticMetaObjectE @ 76 NONAME DATA 16
	_ZN22PSetCallWaitingWrapper19getStaticMetaObjectEv @ 77 NONAME
	_ZN22PSetCallWaitingWrapper20getCallWaitingStatusEv @ 78 NONAME
	_ZN22PSetCallWaitingWrapper22handleCallWaitingErrorEi @ 79 NONAME
	_ZN22PSetCallWaitingWrapper24handleCallWaitingChangedENS_20PsCallWaitingCommandEi @ 80 NONAME
	_ZN22PSetCallWaitingWrapper26handleCallWaitingGetStatusENS_19PsCallWaitingStatusERK5QListIhE @ 81 NONAME
	_ZN22PSetCallWaitingWrapper27handleCallWaitingRequestingEbb @ 82 NONAME
	_ZN22PSetCallWaitingWrapperC1ER14CPsetContainerP7QObject @ 83 NONAME
	_ZN22PSetCallWaitingWrapperC2ER14CPsetContainerP7QObject @ 84 NONAME
	_ZN22PSetCallWaitingWrapperD0Ev @ 85 NONAME
	_ZN22PSetCallWaitingWrapperD1Ev @ 86 NONAME
	_ZN22PSetCallWaitingWrapperD2Ev @ 87 NONAME
	_ZN24PSetCallDivertingWrapper11qt_metacallEN11QMetaObject4CallEiPPv @ 88 NONAME
	_ZN24PSetCallDivertingWrapper11qt_metacastEPKc @ 89 NONAME
	_ZN24PSetCallDivertingWrapper11requestDoneEv @ 90 NONAME
	_ZN24PSetCallDivertingWrapper13cancelProcessEv @ 91 NONAME
	_ZN24PSetCallDivertingWrapper16setCallDivertingER22PSCallDivertingCommandi @ 92 NONAME
	_ZN24PSetCallDivertingWrapper16staticMetaObjectE @ 93 NONAME DATA 16
	_ZN24PSetCallDivertingWrapper17getDefaultNumbersER11QStringList @ 94 NONAME
	_ZN24PSetCallDivertingWrapper18handleCFRequestingEbb @ 95 NONAME
	_ZN24PSetCallDivertingWrapper19getStaticMetaObjectEv @ 96 NONAME
	_ZN24PSetCallDivertingWrapper19setNewDefaultNumberE7QString @ 97 NONAME
	_ZN24PSetCallDivertingWrapper20handleDivertingErrorEi @ 98 NONAME
	_ZN24PSetCallDivertingWrapper21getVoiceMailBoxNumberER7QString9PsService @ 99 NONAME
	_ZN24PSetCallDivertingWrapper21handleDivertingStatusER5QListIP21PSCallDivertingStatusEb @ 100 NONAME
	_ZN24PSetCallDivertingWrapper22getCallDivertingStatusE6QFlagsI9PsServiceE24PsCallDivertingConditioni @ 101 NONAME
	_ZN24PSetCallDivertingWrapper22handleDivertingChangedERK22PSCallDivertingCommandb @ 102 NONAME
	_ZN24PSetCallDivertingWrapper23queryVoiceMailBoxNumberER7QString9PsService @ 103 NONAME
	_ZN24PSetCallDivertingWrapperC1ER14CPsetContainerP7QObject @ 104 NONAME
	_ZN24PSetCallDivertingWrapperC2ER14CPsetContainerP7QObject @ 105 NONAME
	_ZN24PSetCallDivertingWrapperD0Ev @ 106 NONAME
	_ZN24PSetCallDivertingWrapperD1Ev @ 107 NONAME
	_ZN24PSetCallDivertingWrapperD2Ev @ 108 NONAME
	_ZNK11PSetWrapper10metaObjectEv @ 109 NONAME
	_ZNK14PSetCliWrapper10metaObjectEv @ 110 NONAME
	_ZNK18PSetNetworkWrapper10metaObjectEv @ 111 NONAME
	_ZNK18PSetNetworkWrapper20getNetworkAccessModeEv @ 112 NONAME
	_ZNK18PSetNetworkWrapper23getNetworkSelectionModeERNS_20NetworkSelectionModeE @ 113 NONAME
	_ZNK18PSetNetworkWrapper33isManualNetworkSelectionSupportedEv @ 114 NONAME
	_ZNK22PSetCallBarringWrapper10metaObjectEv @ 115 NONAME
	_ZNK22PSetCallWaitingWrapper10metaObjectEv @ 116 NONAME
	_ZNK22PSetCallWaitingWrapper19getCPsetCallWaitingEv @ 117 NONAME
	_ZNK24PSetCallDivertingWrapper10metaObjectEv @ 118 NONAME
	_ZNK24PSetCallDivertingWrapper20validateDivertNumberERK7TDesC16 @ 119 NONAME
	_ZNK24PSetCallDivertingWrapper21getCPsetCallDivertingEv @ 120 NONAME
	_ZNK24PSetCallDivertingWrapper8findPlusERK7TDesC16 @ 121 NONAME
	_ZTI11PSetWrapper @ 122 NONAME
	_ZTI14PSetCliWrapper @ 123 NONAME
	_ZTI18PSetNetworkWrapper @ 124 NONAME
	_ZTI22PSetCallBarringWrapper @ 125 NONAME
	_ZTI22PSetCallWaitingWrapper @ 126 NONAME
	_ZTI24PSetCallDivertingWrapper @ 127 NONAME
	_ZTV11PSetWrapper @ 128 NONAME
	_ZTV14PSetCliWrapper @ 129 NONAME
	_ZTV18PSetNetworkWrapper @ 130 NONAME
	_ZTV22PSetCallBarringWrapper @ 131 NONAME
	_ZTV22PSetCallWaitingWrapper @ 132 NONAME
	_ZTV24PSetCallDivertingWrapper @ 133 NONAME

