EXPORTS
	_ZN11CT_MsgUtils13CompareFilesLE7TPtrC16S0_iP13CArrayFixFlatItERi @ 1 NONAME
	_ZN11CT_MsgUtils16FindEntryByNameLEP11CMsvSessionlR7TDesC16S3_i @ 2 NONAME
	_ZN11CT_MsgUtils16FindEntryByNameLEP11CMsvSessionlR7TDesC16i @ 3 NONAME
	_ZN11CT_MsgUtils16FindEntryByNameLEP9CMsvEntryR7TDesC16S3_i @ 4 NONAME
	_ZN11CT_MsgUtils16FindEntryByNameLEP9CMsvEntryR7TDesC16i @ 5 NONAME
	_ZN11CT_MsgUtils17CloseResourceFileEPv @ 6 NONAME
	_ZN11CT_MsgUtils17OpenResourceFileLER13RResourceFileR3RFsRK7TDesC16 @ 7 NONAME
	_ZN11CT_MsgUtils23SearchMessageBySubjectLEP11CMsvSessionl7TPtrC16 @ 8 NONAME
	_ZN11CT_MsgUtils24CreateChildrenSelectionLEP11CMsvSessionl @ 9 NONAME
	_ZN11CT_MsgUtils24GetRemoteFolderIdByNameLEP11CMsvSession7TPtrC16S2_S2_i @ 10 NONAME
	_ZN11CT_MsgUtils24GetRemoteFolderIdByNameLEP11CMsvSession7TPtrC16S2_i @ 11 NONAME
	_ZN11CT_MsgUtils32CreateChildrenSelectionWithTypeLEP11CMsvSessionl4TUid @ 12 NONAME
	_ZN11CT_MsgUtils36CreateChildrenSelectionRemoteFolderLEP11CMsvSession7TPtrC16S2_ @ 13 NONAME
	_ZN11CT_MsgUtils44CreateChildrenSelectionRemoteFolderWithTypeLEP11CMsvSession7TPtrC16S2_4TUid @ 14 NONAME
	_ZN11CT_MsgUtils9ReadDataLER15RFileReadStreamR6TPtr16iP13CArrayFixFlatItE @ 15 NONAME
	_ZN11CT_MsgUtilsC1Ev @ 16 NONAME
	_ZN11CT_MsgUtilsC2Ev @ 17 NONAME
	_ZN16CT_MsgTimerUtils4NewLEv @ 18 NONAME
	_ZN16CT_MsgTimerUtils5AfterEiR14TRequestStatus @ 19 NONAME
	_ZN24CT_MsgUtilsEnumConverter18FindFolderIdByNameER7TDesC16 @ 20 NONAME
	_ZN24CT_MsgUtilsEnumConverter21ConvertDesToTPop3CmdsERK7TDesC16 @ 21 NONAME
	_ZN24CT_MsgUtilsEnumConverter22ConvertDesToTImap4CmdsER7TDesC16 @ 22 NONAME
	_ZN24CT_MsgUtilsEnumConverter27ConvertDesToTFolderSyncTypeER7TDesC16 @ 23 NONAME
	_ZN24CT_MsgUtilsEnumConverter29ConvertDesToTCommDbDialogPrefER7TDesC16 @ 24 NONAME
	_ZN24CT_MsgUtilsEnumConverter31ConvertDesToTPop3GetMailOptionsER7TDesC16 @ 25 NONAME
	_ZN24CT_MsgUtilsEnumConverter32ConvertDesToTFolderSubscribeTypeER7TDesC16 @ 26 NONAME
	_ZN24CT_MsgUtilsEnumConverter32ConvertDesToTImap4GetMailOptionsER7TDesC16 @ 27 NONAME
	_ZN24CT_MsgUtilsEnumConverter33ConvertDesToTImSMTPSendCopyToSelfER7TDesC16 @ 28 NONAME
	_ZN24CT_MsgUtilsEnumConverter34ConvertDesToTMsgOutboxBodyEncodingER7TDesC16 @ 29 NONAME
	_ZN24CT_MsgUtilsEnumConverter36ConvertDesToTImSMTPSendMessageOptionER7TDesC16 @ 30 NONAME
	_ZN24CT_MsgUtilsEnumConverter38ConvertDesToTImImap4PartialMailOptionsER7TDesC16 @ 31 NONAME
	_ZN24CT_MsgUtilsEnumConverterC1Ev @ 32 NONAME
	_ZN24CT_MsgUtilsEnumConverterC2Ev @ 33 NONAME
	_ZN28CT_MsgUtilsCentralRepository14GetPopAccountLER6TDes16R11TPopAccount @ 34 NONAME
	_ZN28CT_MsgUtilsCentralRepository15GetImapAccountLER6TDes16R12TImapAccount @ 35 NONAME
	_ZN28CT_MsgUtilsCentralRepository16GetPopServiceIdLER6TDes16 @ 36 NONAME
	_ZN28CT_MsgUtilsCentralRepository17GetImapServiceIdLER6TDes16 @ 37 NONAME
	_ZN28CT_MsgUtilsCentralRepository24GetDefaultSmtpServiceIdLEv @ 38 NONAME
	_ZN28CT_MsgUtilsCentralRepositoryC1Ev @ 39 NONAME
	_ZN28CT_MsgUtilsCentralRepositoryC2Ev @ 40 NONAME
	_ZN28CT_MsgUtilsDeleteAllChildren19FinalProgressStatusER13CMsvOperationRK14TRequestStatus @ 41 NONAME
	_ZN28CT_MsgUtilsDeleteAllChildren6StartLER14TRequestStatus @ 42 NONAME
	_ZN28CT_MsgUtilsDeleteAllChildrenC1EP11CMsvSessionl @ 43 NONAME
	_ZN28CT_MsgUtilsDeleteAllChildrenC2EP11CMsvSessionl @ 44 NONAME
	_ZN32CT_MsgUtilsConfigFileMachineName10ConstructLERK7TDesC16 @ 45 NONAME
	_ZN32CT_MsgUtilsConfigFileMachineName11MachineNameEv @ 46 NONAME
	_ZN32CT_MsgUtilsConfigFileMachineName16MachineNameEmailEv @ 47 NONAME
	_ZN32CT_MsgUtilsConfigFileMachineName4NewLERK7TDesC16 @ 48 NONAME
	_ZN32CT_MsgUtilsConfigFileMachineName5NewLCERK7TDesC16 @ 49 NONAME
	_ZN32CT_MsgUtilsConfigFileMachineNameC1Ev @ 50 NONAME
	_ZN32CT_MsgUtilsConfigFileMachineNameC2Ev @ 51 NONAME
	_ZN34CT_MsgUtilsConfigFileParserUtility10ConstructLERK7TDesC16 @ 52 NONAME
	_ZN34CT_MsgUtilsConfigFileParserUtility16GetFieldAsStringERK7TDesC16R7TPtrC16 @ 53 NONAME
	_ZN34CT_MsgUtilsConfigFileParserUtility17GetFieldAsIntegerERK7TDesC16Ri @ 54 NONAME
	_ZN34CT_MsgUtilsConfigFileParserUtility17GetFieldAsString8ERK7TDesC16R6TPtrC8 @ 55 NONAME
	_ZN34CT_MsgUtilsConfigFileParserUtility4NewLERK7TDesC16 @ 56 NONAME
	_ZN34CT_MsgUtilsConfigFileParserUtilityC1Ev @ 57 NONAME
	_ZN34CT_MsgUtilsConfigFileParserUtilityC2Ev @ 58 NONAME
	_ZN42CT_MsgUtilsReadEmailSettingsFromConfigFile15CompareIapPrefsER17CImIAPPreferencesS1_ @ 59 NONAME
	_ZN42CT_MsgUtilsReadEmailSettingsFromConfigFile17ReadPopIAPAndAddLEP34CT_MsgUtilsConfigFileParserUtilityRK7TDesC16R17CImIAPPreferences @ 60 NONAME
	_ZN42CT_MsgUtilsReadEmailSettingsFromConfigFile18ReadImapIAPAndAddLEP34CT_MsgUtilsConfigFileParserUtilityRK7TDesC16R17CImIAPPreferences @ 61 NONAME
	_ZN42CT_MsgUtilsReadEmailSettingsFromConfigFile18ReadSmtpIAPAndAddLEP34CT_MsgUtilsConfigFileParserUtilityRK7TDesC16R17CImIAPPreferences @ 62 NONAME
	_ZN42CT_MsgUtilsReadEmailSettingsFromConfigFile22ReadPopIAPAndAddFieldLEP34CT_MsgUtilsConfigFileParserUtilityRK7TDesC16R17CImIAPPreferences @ 63 NONAME
	_ZN42CT_MsgUtilsReadEmailSettingsFromConfigFile23ReadImapIAPAndAddFieldLEP34CT_MsgUtilsConfigFileParserUtilityRK7TDesC16R17CImIAPPreferences @ 64 NONAME
	_ZN42CT_MsgUtilsReadEmailSettingsFromConfigFile23ReadSmtpIAPAndAddFieldLEP34CT_MsgUtilsConfigFileParserUtilityRK7TDesC16R17CImIAPPreferences @ 65 NONAME
	_ZN42CT_MsgUtilsReadEmailSettingsFromConfigFile37ReadPopSettingsFromConfigurationFileLER7TDesC16R15CImPop3SettingsR17CImIAPPreferencesRKS0_ @ 66 NONAME
	_ZN42CT_MsgUtilsReadEmailSettingsFromConfigFile38ReadImapSettingsFromConfigurationFileLER7TDesC16R16CImImap4SettingsR17CImIAPPreferencesRKS0_ @ 67 NONAME
	_ZN42CT_MsgUtilsReadEmailSettingsFromConfigFile38ReadSmtpSettingsFromConfigurationFileLER7TDesC16R15CImSmtpSettingsR17CImIAPPreferencesRKS0_ @ 68 NONAME
	_ZN42CT_MsgUtilsReadEmailSettingsFromConfigFile9GetStringER7TDesC16RiiR7TPtrC16 @ 69 NONAME
	_ZTI16CT_MsgTimerUtils @ 70 NONAME ; #<TI>#
	_ZTI28CT_MsgUtilsDeleteAllChildren @ 71 NONAME ; #<TI>#
	_ZTI32CT_MsgUtilsConfigFileMachineName @ 72 NONAME ; #<TI>#
	_ZTI34CT_MsgUtilsConfigFileParserUtility @ 73 NONAME ; #<TI>#
	_ZTV16CT_MsgTimerUtils @ 74 NONAME ; #<VT>#
	_ZTV28CT_MsgUtilsDeleteAllChildren @ 75 NONAME ; #<VT>#
	_ZTV32CT_MsgUtilsConfigFileMachineName @ 76 NONAME ; #<VT>#
	_ZTV34CT_MsgUtilsConfigFileParserUtility @ 77 NONAME ; #<VT>#
	_ZN24CT_MsgUtilsEnumConverter21ConvertDesToEventCodeER7TDesC16 @ 78 NONAME
	_ZN24CT_MsgUtilsEnumConverter22ConvertDesToTSmtpCmdsLER7TDesC16 @ 79 NONAME
	_ZN11CT_MsgUtils23SearchMessageBySubjectLEP11CMsvSessionl7TPtrC16i @ 80 NONAME
	_ZN24CT_MsgUtilsEnumConverter23ConvertDesToBearerTypesERK7TDesC16 @ 81 NONAME
	_ZN28CT_MsgUtilsCentralRepository15GetSmtpAccountLER6TDes16R12TSmtpAccount @ 82 NONAME
	_ZN28CT_MsgUtilsCentralRepository17GetSmtpServiceIdLER6TDes16 @ 83 NONAME
	_ZN28CT_MsgUtilsDeleteAllChildren6StartLEiR14TRequestStatus @ 84 NONAME
	_ZN24CT_MsgUtilsEnumConverter28ConvertDesToSearchSortOptionERK7TDesC16 @ 85 NONAME

