EXPORTS
	?ConfigChannelsL@CFileAudioOutput@@UAEXAAV?$RArray@I@@@Z @ 1 NONAME ; void CFileAudioOutput::ConfigChannelsL(class RArray<unsigned int> &)
	?SetPlayBalanceL@CFileAudioOutput@@UAEXHH@Z @ 2 NONAME ; void CFileAudioOutput::SetPlayBalanceL(int, int)
	?CalculateAudioOutputPositionL@CFileAudioOutput@@UBE_JXZ @ 3 NONAME ; long long CFileAudioOutput::CalculateAudioOutputPositionL(void) const
	??1CFileAudioOutput@@UAE@XZ @ 4 NONAME ; CFileAudioOutput::~CFileAudioOutput(void)
	?StopL@CFileAudioOutput@@UAEXH@Z @ 5 NONAME ; void CFileAudioOutput::StopL(int)
	?PrimeL@CFileAudioOutput@@UAEXXZ @ 6 NONAME ; void CFileAudioOutput::PrimeL(void)
	?MaxVolumeL@CFileAudioOutput@@UAEHXZ @ 7 NONAME ; int CFileAudioOutput::MaxVolumeL(void)
	?IsDSStopped@CFileAudioOutput@@UAEHXZ @ 8 NONAME ; int CFileAudioOutput::IsDSStopped(void)
	?ConfigDataTypesL@CFileAudioOutput@@UAEXAAV?$RArray@VTFourCC@@@@@Z @ 9 NONAME ; void CFileAudioOutput::ConfigDataTypesL(class RArray<class TFourCC> &)
	?CapabilitiesChannelsL@CFileAudioOutput@@UAEXAAV?$RArray@I@@@Z @ 10 NONAME ; void CFileAudioOutput::CapabilitiesChannelsL(class RArray<unsigned int> &)
	?SetDecoder@CFileAudioOutput@@UAEXPAVCAdvancedAudioDecoder@@@Z @ 11 NONAME ; void CFileAudioOutput::SetDecoder(class CAdvancedAudioDecoder *)
	?PauseL@CFileAudioOutput@@UAEXXZ @ 12 NONAME ; void CFileAudioOutput::PauseL(void)
	?NewL@CFileAudioOutput@@SAPAV1@AAVMDataSink@@ABVTMMFPrioritySettings@@AAVMAdvancedAudioOutputObserver@@@Z @ 13 NONAME ; class CFileAudioOutput * CFileAudioOutput::NewL(class MDataSink &, class TMMFPrioritySettings const &, class MAdvancedAudioOutputObserver &)
	?SetVolumeRampL@CFileAudioOutput@@UAEXABVTTimeIntervalMicroSeconds@@@Z @ 14 NONAME ; void CFileAudioOutput::SetVolumeRampL(class TTimeIntervalMicroSeconds const &)
	?ConfigRatesL@CFileAudioOutput@@UAEXAAV?$RArray@I@@@Z @ 15 NONAME ; void CFileAudioOutput::ConfigRatesL(class RArray<unsigned int> &)
	?GetPlayBalanceL@CFileAudioOutput@@UAEXAAH0@Z @ 16 NONAME ; void CFileAudioOutput::GetPlayBalanceL(int &, int &)
	?Resume@CFileAudioOutput@@UAEXH@Z @ 17 NONAME ; void CFileAudioOutput::Resume(int)
	?CapabilitiesDataTypesL@CFileAudioOutput@@UAEXAAV?$RArray@VTFourCC@@@@@Z @ 18 NONAME ; void CFileAudioOutput::CapabilitiesDataTypesL(class RArray<class TFourCC> &)
	?CapabilitiesRatesL@CFileAudioOutput@@UAEXAAV?$RArray@I@@@Z @ 19 NONAME ; void CFileAudioOutput::CapabilitiesRatesL(class RArray<unsigned int> &)
	?PlayL@CFileAudioOutput@@UAEXPAXH@Z @ 20 NONAME ; void CFileAudioOutput::PlayL(void *, int)
	?ConfigureL@CFileAudioOutput@@UAEXIIVTFourCC@@ABV?$RArray@H@@@Z @ 21 NONAME ; void CFileAudioOutput::ConfigureL(unsigned int, unsigned int, class TFourCC, class RArray<int> const &)
	?IsLoopPlayEnabled@CFileAudioOutput@@UAEXH@Z @ 22 NONAME ; void CFileAudioOutput::IsLoopPlayEnabled(int)
	?SetPrioritySettingsL@CFileAudioOutput@@UAEXABVTMMFPrioritySettings@@@Z @ 23 NONAME ; void CFileAudioOutput::SetPrioritySettingsL(class TMMFPrioritySettings const &)
	?UnSetLastBuffer@CFileAudioOutput@@UAEXH@Z @ 24 NONAME ; void CFileAudioOutput::UnSetLastBuffer(int)
	?VolumeL@CFileAudioOutput@@UAEHXZ @ 25 NONAME ; int CFileAudioOutput::VolumeL(void)
	?SetVolumeL@CFileAudioOutput@@UAEXH@Z @ 26 NONAME ; void CFileAudioOutput::SetVolumeL(int)
	?SetDataSourceAdapter@CFileAudioOutput@@UAEXPAVCDataSourceAdapter@@@Z @ 27 NONAME ; void CFileAudioOutput::SetDataSourceAdapter(class CDataSourceAdapter *)

