EXPORTS
	_ZN10CGetObject4NewLER25MMTPDataProviderFrameworkR14MMTPConnectionR14MMmMtpDpConfig @ 1 NONAME
	_ZN10CGetObjectD0Ev @ 2 NONAME
	_ZN10CGetObjectD1Ev @ 3 NONAME
	_ZN10CGetObjectD2Ev @ 4 NONAME
	_ZN11CCopyObject10ConstructLEv @ 5 NONAME
	_ZN11CCopyObject8ServiceLEv @ 6 NONAME
	_ZN11CCopyObjectC2ER25MMTPDataProviderFrameworkR14MMTPConnectionR14MMmMtpDpConfig @ 7 NONAME
	_ZN11CCopyObjectD0Ev @ 8 NONAME
	_ZN11CCopyObjectD1Ev @ 9 NONAME
	_ZN11CCopyObjectD2Ev @ 10 NONAME
	_ZN11CMoveObject10ConstructLEv @ 11 NONAME
	_ZN11CMoveObject8ServiceLEv @ 12 NONAME
	_ZN11CMoveObjectC2ER25MMTPDataProviderFrameworkR14MMTPConnectionR14MMmMtpDpConfig @ 13 NONAME
	_ZN11CMoveObjectD0Ev @ 14 NONAME
	_ZN11CMoveObjectD1Ev @ 15 NONAME
	_ZN11CMoveObjectD2Ev @ 16 NONAME
	_ZN11CSendObject13CheckRequestLEv @ 17 NONAME
	_ZN11CSendObject13UsbDisconnectEv @ 18 NONAME
	_ZN11CSendObject22DoHandleResponsePhaseLEv @ 19 NONAME
	_ZN11CSendObject24DoHandleCompletingPhaseLEv @ 20 NONAME
	_ZN11CSendObject4NewLER25MMTPDataProviderFrameworkR14MMTPConnectionR14MMmMtpDpConfig @ 21 NONAME
	_ZN11CSendObject8ServiceLEv @ 22 NONAME
	_ZN11CSendObjectD0Ev @ 23 NONAME
	_ZN11CSendObjectD1Ev @ 24 NONAME
	_ZN11CSendObjectD2Ev @ 25 NONAME
	_ZN13CDeleteObject4NewLER25MMTPDataProviderFrameworkR14MMTPConnectionR14MMmMtpDpConfig @ 26 NONAME
	_ZN13CDeleteObject4RunLEv @ 27 NONAME
	_ZN13CDeleteObject8DoCancelEv @ 28 NONAME
	_ZN13CDeleteObject8ServiceLEv @ 29 NONAME
	_ZN13CDeleteObjectD0Ev @ 30 NONAME
	_ZN13CDeleteObjectD1Ev @ 31 NONAME
	_ZN13CDeleteObjectD2Ev @ 32 NONAME
	_ZN13CRenameObject10ConstructLEv @ 33 NONAME
	_ZN13CRenameObject4NewLER25MMTPDataProviderFrameworkR29CMmMtpDpMetadataAccessWrapper @ 34 NONAME
	_ZN13CRenameObject4RunLEv @ 35 NONAME
	_ZN13CRenameObject6StartLEmRK7TDesC16 @ 36 NONAME
	_ZN13CRenameObject8DoCancelEv @ 37 NONAME
	_ZN13CRenameObject8RunErrorEi @ 38 NONAME
	_ZN13CRenameObjectC1ER25MMTPDataProviderFrameworkR29CMmMtpDpMetadataAccessWrapper @ 39 NONAME
	_ZN13CRenameObjectC2ER25MMTPDataProviderFrameworkR29CMmMtpDpMetadataAccessWrapper @ 40 NONAME
	_ZN13CRenameObjectD0Ev @ 41 NONAME
	_ZN13CRenameObjectD1Ev @ 42 NONAME
	_ZN13CRenameObjectD2Ev @ 43 NONAME
	_ZN14CGetObjectInfo10ConstructLEv @ 44 NONAME
	_ZN14CGetObjectInfo4NewLER25MMTPDataProviderFrameworkR14MMTPConnectionR14MMmMtpDpConfig @ 45 NONAME
	_ZN14CGetObjectInfoD0Ev @ 46 NONAME
	_ZN14CGetObjectInfoD1Ev @ 47 NONAME
	_ZN14CGetObjectInfoD2Ev @ 48 NONAME
	_ZN14MmMtpDpUtility11SetPSStatusE12TMtpPSStatus @ 49 NONAME
	_ZN14MmMtpDpUtility12GetDrmStatusERK7TDesC16 @ 50 NONAME
	_ZN14MmMtpDpUtility18FormatFromFilenameERK7TDesC16 @ 51 NONAME
	_ZN15CRequestUnknown4NewLER25MMTPDataProviderFrameworkR14MMTPConnection @ 52 NONAME
	_ZN15CRequestUnknown8ServiceLEv @ 53 NONAME
	_ZN15CRequestUnknownD0Ev @ 54 NONAME
	_ZN15CRequestUnknownD1Ev @ 55 NONAME
	_ZN15CRequestUnknownD2Ev @ 56 NONAME
	_ZN17CGetPartialObject13CheckRequestLEv @ 57 NONAME
	_ZN17CGetPartialObject22DoHandleResponsePhaseLEv @ 58 NONAME
	_ZN17CGetPartialObject4NewLER25MMTPDataProviderFrameworkR14MMTPConnectionR14MMmMtpDpConfig @ 59 NONAME
	_ZN17CGetPartialObject8ServiceLEv @ 60 NONAME
	_ZN17CGetPartialObjectD0Ev @ 61 NONAME
	_ZN17CGetPartialObjectD1Ev @ 62 NONAME
	_ZN17CGetPartialObjectD2Ev @ 63 NONAME
	_ZN17CRequestProcessor12HandleEventLERK13TMTPTypeEvent @ 64 NONAME
	_ZN17CRequestProcessor12ReceiveDataLER8MMTPType @ 65 NONAME
	_ZN17CRequestProcessor13CheckRequestLEv @ 66 NONAME
	_ZN17CRequestProcessor13SendResponseLE16TMTPResponseCodeiPm @ 67 NONAME
	_ZN17CRequestProcessor13UsbDisconnectEv @ 68 NONAME
	_ZN17CRequestProcessor14HandleRequestLERK15TMTPTypeRequest20TMTPTransactionPhase @ 69 NONAME
	_ZN17CRequestProcessor18DoHandleRToIPhaseLEv @ 70 NONAME
	_ZN17CRequestProcessor21DoHandleRequestPhaseLEv @ 71 NONAME
	_ZN17CRequestProcessor22DoHandleDataIToRPhaseLEv @ 72 NONAME
	_ZN17CRequestProcessor22DoHandleResponsePhaseLEv @ 73 NONAME
	_ZN17CRequestProcessor24DoHandleCompletingPhaseLEv @ 74 NONAME
	_ZN17CRequestProcessor4RunLEv @ 75 NONAME
	_ZN17CRequestProcessor7ReleaseEv @ 76 NONAME
	_ZN17CRequestProcessor8DoCancelEv @ 77 NONAME
	_ZN17CRequestProcessor8RunErrorEi @ 78 NONAME
	_ZN17CRequestProcessor9SendDataLERK8MMTPType @ 79 NONAME
	_ZN17CRequestProcessor9SessionIdEv @ 80 NONAME
	_ZN17CRequestProcessorC2ER25MMTPDataProviderFrameworkR14MMTPConnectioniPK22TMTPRequestElementInfo @ 81 NONAME
	_ZN17CRequestProcessorD0Ev @ 82 NONAME
	_ZN17CRequestProcessorD1Ev @ 83 NONAME
	_ZN17CRequestProcessorD2Ev @ 84 NONAME
	_ZN18CGetObjectPropDesc13CheckRequestLEv @ 85 NONAME
	_ZN18CGetObjectPropDesc4NewLER25MMTPDataProviderFrameworkR14MMTPConnectionR14MMmMtpDpConfig @ 86 NONAME
	_ZN18CGetObjectPropDesc8ServiceLEv @ 87 NONAME
	_ZN18CGetObjectPropDescD0Ev @ 88 NONAME
	_ZN18CGetObjectPropDescD1Ev @ 89 NONAME
	_ZN18CGetObjectPropDescD2Ev @ 90 NONAME
	_ZN18CGetObjectPropList10ConstructLEv @ 91 NONAME
	_ZN18CGetObjectPropList13CheckRequestLEv @ 92 NONAME
	_ZN18CGetObjectPropList4RunLEv @ 93 NONAME
	_ZN18CGetObjectPropList8DoCancelEv @ 94 NONAME
	_ZN18CGetObjectPropList8RunErrorEi @ 95 NONAME
	_ZN18CGetObjectPropList8ServiceLEv @ 96 NONAME
	_ZN18CGetObjectPropListC2ER25MMTPDataProviderFrameworkR14MMTPConnectionR14MMmMtpDpConfig @ 97 NONAME
	_ZN18CGetObjectPropListD0Ev @ 98 NONAME
	_ZN18CGetObjectPropListD1Ev @ 99 NONAME
	_ZN18CGetObjectPropListD2Ev @ 100 NONAME
	_ZN18CSetObjectPropList13CheckRequestLEv @ 101 NONAME
	_ZN18CSetObjectPropList22DoHandleResponsePhaseLEv @ 102 NONAME
	_ZN18CSetObjectPropList4NewLER25MMTPDataProviderFrameworkR14MMTPConnectionR14MMmMtpDpConfig @ 103 NONAME
	_ZN18CSetObjectPropList4RunLEv @ 104 NONAME
	_ZN18CSetObjectPropList8DoCancelEv @ 105 NONAME
	_ZN18CSetObjectPropList8RunErrorEi @ 106 NONAME
	_ZN18CSetObjectPropList8ServiceLEv @ 107 NONAME
	_ZN18CSetObjectPropListD0Ev @ 108 NONAME
	_ZN18CSetObjectPropListD1Ev @ 109 NONAME
	_ZN18CSetObjectPropListD2Ev @ 110 NONAME
	_ZN19CDescriptionUtility24NewRangeFormDescriptionLEtmmmi @ 111 NONAME
	_ZN19CDescriptionUtilityC2Ev @ 112 NONAME
	_ZN19CDescriptionUtilityD0Ev @ 113 NONAME
	_ZN19CDescriptionUtilityD1Ev @ 114 NONAME
	_ZN19CDescriptionUtilityD2Ev @ 115 NONAME
	_ZN19CGetObjectPropValue13CheckRequestLEv @ 116 NONAME
	_ZN19CGetObjectPropValue27ServiceMetaDataFromWrapperLEtR8MMTPTypeRK18CMTPObjectMetaData @ 117 NONAME
	_ZN19CGetObjectPropValue8ServiceLEv @ 118 NONAME
	_ZN19CGetObjectPropValueC2ER25MMTPDataProviderFrameworkR14MMTPConnectionR14MMmMtpDpConfig @ 119 NONAME
	_ZN19CGetObjectPropValueD0Ev @ 120 NONAME
	_ZN19CGetObjectPropValueD1Ev @ 121 NONAME
	_ZN19CGetObjectPropValueD2Ev @ 122 NONAME
	_ZN19CSetObjectPropValue13CheckRequestLEv @ 123 NONAME
	_ZN19CSetObjectPropValue22DoHandleResponsePhaseLEv @ 124 NONAME
	_ZN19CSetObjectPropValue25ServiceMetaDataToWrapperLEtR8MMTPTypeRK18CMTPObjectMetaData @ 125 NONAME
	_ZN19CSetObjectPropValue8ServiceLEv @ 126 NONAME
	_ZN19CSetObjectPropValueC2ER25MMTPDataProviderFrameworkR14MMTPConnectionR14MMmMtpDpConfig @ 127 NONAME
	_ZN19CSetObjectPropValueD0Ev @ 128 NONAME
	_ZN19CSetObjectPropValueD1Ev @ 129 NONAME
	_ZN19CSetObjectPropValueD2Ev @ 130 NONAME
	_ZN20CGetObjectReferences4NewLER25MMTPDataProviderFrameworkR14MMTPConnectionR14MMmMtpDpConfig @ 131 NONAME
	_ZN20CGetObjectReferencesD0Ev @ 132 NONAME
	_ZN20CGetObjectReferencesD1Ev @ 133 NONAME
	_ZN20CGetObjectReferencesD2Ev @ 134 NONAME
	_ZN20CSetObjectReferences22DoHandleResponsePhaseLEv @ 135 NONAME
	_ZN20CSetObjectReferences4NewLER25MMTPDataProviderFrameworkR14MMTPConnectionR14MMmMtpDpConfig @ 136 NONAME
	_ZN20CSetObjectReferences8ServiceLEv @ 137 NONAME
	_ZN20CSetObjectReferencesD0Ev @ 138 NONAME
	_ZN20CSetObjectReferencesD1Ev @ 139 NONAME
	_ZN20CSetObjectReferencesD2Ev @ 140 NONAME
	_ZN22CGetFormatCapabilities13CheckRequestLEv @ 141 NONAME
	_ZN22CGetFormatCapabilities4NewLER25MMTPDataProviderFrameworkR14MMTPConnectionR14MMmMtpDpConfig @ 142 NONAME
	_ZN22CGetFormatCapabilities8ServiceLEv @ 143 NONAME
	_ZN22CGetFormatCapabilitiesD0Ev @ 144 NONAME
	_ZN22CGetFormatCapabilitiesD1Ev @ 145 NONAME
	_ZN22CGetFormatCapabilitiesD2Ev @ 146 NONAME
	_ZN23CMmMtpDpAccessSingleton12OpenSessionLEv @ 147 NONAME
	_ZN23CMmMtpDpAccessSingleton13CloseSessionLEv @ 148 NONAME
	_ZN23CMmMtpDpAccessSingleton17GetAccessWrapperLEv @ 149 NONAME
	_ZN23CMmMtpDpAccessSingleton24ActiveToIdleStatusChangeEv @ 150 NONAME
	_ZN23CMmMtpDpAccessSingleton30CancelActiveToIdleStatusChangeEv @ 151 NONAME
	_ZN23CMmMtpDpAccessSingleton7CreateLER25MMTPDataProviderFramework @ 152 NONAME
	_ZN23CMmMtpDpAccessSingleton7ReleaseEv @ 153 NONAME
	_ZN23CPropertySettingUtility20SetMetaDataToWrapperER14MMmMtpDpConfigtR8MMTPTypeRK18CMTPObjectMetaData @ 154 NONAME
	_ZN23CPropertySettingUtilityC2Ev @ 155 NONAME
	_ZN23CPropertySettingUtilityD0Ev @ 156 NONAME
	_ZN23CPropertySettingUtilityD1Ev @ 157 NONAME
	_ZN23CPropertySettingUtilityD2Ev @ 158 NONAME
	_ZN24CGetObjectPropsSupported4NewLER25MMTPDataProviderFrameworkR14MMTPConnectionR14MMmMtpDpConfig @ 159 NONAME
	_ZN24CGetObjectPropsSupported8ServiceLEv @ 160 NONAME
	_ZN24CGetObjectPropsSupportedD0Ev @ 161 NONAME
	_ZN24CGetObjectPropsSupportedD1Ev @ 162 NONAME
	_ZN24CGetObjectPropsSupportedD2Ev @ 163 NONAME
	_ZN26CGetInterdependentPropDesc13CheckRequestLEv @ 164 NONAME
	_ZN26CGetInterdependentPropDesc4NewLER25MMTPDataProviderFrameworkR14MMTPConnectionR14MMmMtpDpConfig @ 165 NONAME
	_ZN26CGetInterdependentPropDesc8ServiceLEv @ 166 NONAME
	_ZN26CGetInterdependentPropDescD0Ev @ 167 NONAME
	_ZN26CGetInterdependentPropDescD1Ev @ 168 NONAME
	_ZN26CGetInterdependentPropDescD2Ev @ 169 NONAME
	_ZN29CMmMtpDpMetadataAccessWrapper10AddObjectLERK18CMTPObjectMetaData @ 170 NONAME
	_ZN29CMmMtpDpMetadataAccessWrapper13AddDummyFileLERK7TDesC16 @ 171 NONAME
	_ZN29CMmMtpDpMetadataAccessWrapper13DeleteObjectLERK18CMTPObjectMetaData @ 172 NONAME
	_ZN29CMmMtpDpMetadataAccessWrapper13RenameObjectLERK18CMTPObjectMetaDataRK7TDesC16 @ 173 NONAME
	_ZN29CMmMtpDpMetadataAccessWrapper13SetReferenceLERK18CMTPObjectMetaDataR12CDesC16Array @ 174 NONAME
	_ZN29CMmMtpDpMetadataAccessWrapper15CreateDummyFileERK7TDesC16 @ 175 NONAME
	_ZN29CMmMtpDpMetadataAccessWrapper15DeleteDummyFileERK7TDesC16 @ 176 NONAME
	_ZN29CMmMtpDpMetadataAccessWrapper16CleanupDatabaseLEv @ 177 NONAME
	_ZN29CMmMtpDpMetadataAccessWrapper16GetAllReferenceLERK18CMTPObjectMetaDataR12CDesC16Array @ 178 NONAME
	_ZN29CMmMtpDpMetadataAccessWrapper19GetModifiedContentLERK7TDesC16RiR12CDesC16Array @ 179 NONAME
	_ZN29CMmMtpDpMetadataAccessWrapper20GetAllAbstractMediaLERK7TDesC16R12CDesC16Array19TMPXGeneralCategory @ 180 NONAME
	_ZN29CMmMtpDpMetadataAccessWrapper22UpdateMusicCollectionLERK7TDesC16 @ 181 NONAME
	_ZN29CMmMtpDpMetadataAccessWrapper23GetObjectMetadataValueLEtR8MMTPTypeRK18CMTPObjectMetaData @ 182 NONAME
	_ZNK11CSendObject12HasDataphaseEv @ 183 NONAME
	_ZNK11CSendObject5MatchERK15TMTPTypeRequestR14MMTPConnection @ 184 NONAME
	_ZNK15CRequestUnknown5MatchERK15TMTPTypeRequestR14MMTPConnection @ 185 NONAME
	_ZNK17CRequestProcessor10ConnectionEv @ 186 NONAME
	_ZNK17CRequestProcessor12HasDataphaseEv @ 187 NONAME
	_ZNK17CRequestProcessor5MatchERK13TMTPTypeEventR14MMTPConnection @ 188 NONAME
	_ZNK17CRequestProcessor5MatchERK15TMTPTypeRequestR14MMTPConnection @ 189 NONAME
	_ZNK17CRequestProcessor7RequestEv @ 190 NONAME
	_ZNK18CSetObjectPropList12HasDataphaseEv @ 191 NONAME
	_ZNK19CSetObjectPropValue12HasDataphaseEv @ 192 NONAME
	_ZNK20CSetObjectReferences12HasDataphaseEv @ 193 NONAME
	_ZTI10CGetObject @ 194 NONAME
	_ZTI11CCopyObject @ 195 NONAME
	_ZTI11CMoveObject @ 196 NONAME
	_ZTI11CSendObject @ 197 NONAME
	_ZTI13CDeleteObject @ 198 NONAME
	_ZTI13CRenameObject @ 199 NONAME
	_ZTI14CGetObjectInfo @ 200 NONAME
	_ZTI15CRequestChecker @ 201 NONAME
	_ZTI15CRequestUnknown @ 202 NONAME
	_ZTI15TMTPTypeFlatBuf @ 203 NONAME
	_ZTI17CGetPartialObject @ 204 NONAME
	_ZTI17CRequestProcessor @ 205 NONAME
	_ZTI18CGetObjectPropDesc @ 206 NONAME
	_ZTI18CGetObjectPropList @ 207 NONAME
	_ZTI18CHXMetaDataUtility @ 208 NONAME
	_ZTI18CSetObjectPropList @ 209 NONAME
	_ZTI19CDescriptionUtility @ 210 NONAME
	_ZTI19CGetObjectPropValue @ 211 NONAME
	_ZTI19CSetObjectPropValue @ 212 NONAME
	_ZTI20CGetObjectReferences @ 213 NONAME
	_ZTI20CSetObjectReferences @ 214 NONAME
	_ZTI22CGetFormatCapabilities @ 215 NONAME
	_ZTI23CMmMtpDpAccessSingleton @ 216 NONAME
	_ZTI23CPropertySettingUtility @ 217 NONAME
	_ZTI24CGetObjectPropsSupported @ 218 NONAME
	_ZTI25CMmMtpDpMetadataMpxAccess @ 219 NONAME
	_ZTI26CGetInterdependentPropDesc @ 220 NONAME
	_ZTI27CMmMtpDpMetadataVideoAccess @ 221 NONAME
	_ZTI29CMmMtpDpMetadataAccessWrapper @ 222 NONAME
	_ZTV10CGetObject @ 223 NONAME
	_ZTV11CCopyObject @ 224 NONAME
	_ZTV11CMoveObject @ 225 NONAME
	_ZTV11CSendObject @ 226 NONAME
	_ZTV13CDeleteObject @ 227 NONAME
	_ZTV13CRenameObject @ 228 NONAME
	_ZTV14CGetObjectInfo @ 229 NONAME
	_ZTV15CRequestChecker @ 230 NONAME
	_ZTV15CRequestUnknown @ 231 NONAME
	_ZTV15TMTPTypeFlatBuf @ 232 NONAME
	_ZTV17CGetPartialObject @ 233 NONAME
	_ZTV17CRequestProcessor @ 234 NONAME
	_ZTV18CGetObjectPropDesc @ 235 NONAME
	_ZTV18CGetObjectPropList @ 236 NONAME
	_ZTV18CHXMetaDataUtility @ 237 NONAME
	_ZTV18CSetObjectPropList @ 238 NONAME
	_ZTV19CDescriptionUtility @ 239 NONAME
	_ZTV19CGetObjectPropValue @ 240 NONAME
	_ZTV19CSetObjectPropValue @ 241 NONAME
	_ZTV20CGetObjectReferences @ 242 NONAME
	_ZTV20CSetObjectReferences @ 243 NONAME
	_ZTV22CGetFormatCapabilities @ 244 NONAME
	_ZTV23CMmMtpDpAccessSingleton @ 245 NONAME
	_ZTV23CPropertySettingUtility @ 246 NONAME
	_ZTV24CGetObjectPropsSupported @ 247 NONAME
	_ZTV25CMmMtpDpMetadataMpxAccess @ 248 NONAME
	_ZTV26CGetInterdependentPropDesc @ 249 NONAME
	_ZTV27CMmMtpDpMetadataVideoAccess @ 250 NONAME
	_ZTV29CMmMtpDpMetadataAccessWrapper @ 251 NONAME
	_ZThn28_N11CSendObject13UsbDisconnectEv @ 252 NONAME
	_ZThn28_N17CRequestProcessor12HandleEventLERK13TMTPTypeEvent @ 253 NONAME
	_ZThn28_N17CRequestProcessor13UsbDisconnectEv @ 254 NONAME
	_ZThn28_N17CRequestProcessor14HandleRequestLERK15TMTPTypeRequest20TMTPTransactionPhase @ 255 NONAME
	_ZThn28_N17CRequestProcessor7ReleaseEv @ 256 NONAME
	_ZThn28_N17CRequestProcessor9SessionIdEv @ 257 NONAME
	_ZThn28_NK11CSendObject5MatchERK15TMTPTypeRequestR14MMTPConnection @ 258 NONAME
	_ZThn28_NK15CRequestUnknown5MatchERK15TMTPTypeRequestR14MMTPConnection @ 259 NONAME
	_ZThn28_NK17CRequestProcessor10ConnectionEv @ 260 NONAME
	_ZThn28_NK17CRequestProcessor5MatchERK13TMTPTypeEventR14MMTPConnection @ 261 NONAME
	_ZThn28_NK17CRequestProcessor5MatchERK15TMTPTypeRequestR14MMTPConnection @ 262 NONAME
	_ZThn28_NK17CRequestProcessor7RequestEv @ 263 NONAME
	_ZN13CDeleteObject24DoHandleCompletingPhaseLEv @ 264 NONAME

