EXPORTS
	?qt_metacall@PsUiUtils@@UAEHW4Call@QMetaObject@@HPAPAX@Z @ 1 NONAME ; int PsUiUtils::qt_metacall(enum QMetaObject::Call, int, void * *)
	?getStaticMetaObject@PsUiNotes@@SAABUQMetaObject@@XZ @ 2 NONAME ; struct QMetaObject const & PsUiNotes::getStaticMetaObject(void)
	?tr@PsUiWaitingNoteHandler@@SA?AVQString@@PBD0H@Z @ 3 NONAME ; class QString PsUiWaitingNoteHandler::tr(char const *, char const *, int)
	?tr@PsUiSettingsWrapper@@SA?AVQString@@PBD0@Z @ 4 NONAME ; class QString PsUiSettingsWrapper::tr(char const *, char const *)
	?qt_metacast@PsUiNotes@@UAEPAXPBD@Z @ 5 NONAME ; void * PsUiNotes::qt_metacast(char const *)
	?qt_metacall@PsUiSettingsWrapper@@UAEHW4Call@QMetaObject@@HPAPAX@Z @ 6 NONAME ; int PsUiSettingsWrapper::qt_metacall(enum QMetaObject::Call, int, void * *)
	?metaObject@PsUiUtils@@UBEPBUQMetaObject@@XZ @ 7 NONAME ; struct QMetaObject const * PsUiUtils::metaObject(void) const
	?passwordQueryCompleted@PsUiNotes@@IAEXVQString@@_N@Z @ 8 NONAME ; void PsUiNotes::passwordQueryCompleted(class QString, bool)
	?handleProgressNoteCanceled@PsUiNotes@@AAEXXZ @ 9 NONAME ; void PsUiNotes::handleProgressNoteCanceled(void)
	?errorCodeTextMapping@PsUiUtils@@SA_NHAAVQString@@@Z @ 10 NONAME ; bool PsUiUtils::errorCodeTextMapping(int, class QString &)
	?showNotificationDialog@PsUiNotes@@QAEXABVQString@@@Z @ 11 NONAME ; void PsUiNotes::showNotificationDialog(class QString const &)
	??1PsUiDivertNoteHandler@@UAE@XZ @ 12 NONAME ; PsUiDivertNoteHandler::~PsUiDivertNoteHandler(void)
	?qt_metacall@PsUiNotes@@UAEHW4Call@QMetaObject@@HPAPAX@Z @ 13 NONAME ; int PsUiNotes::qt_metacall(enum QMetaObject::Call, int, void * *)
	?handleDivertingError@PsUiDivertNoteHandler@@QAEXH@Z @ 14 NONAME ; void PsUiDivertNoteHandler::handleDivertingError(int)
	??0PsUiNotes@@AAE@XZ @ 15 NONAME ; PsUiNotes::PsUiNotes(void)
	?showPasswordQueryDialog@PsUiNotes@@QAEXABVQString@@ABVQValidator@@H@Z @ 16 NONAME ; void PsUiNotes::showPasswordQueryDialog(class QString const &, class QValidator const &, int)
	?trUtf8@PsUiNotes@@SA?AVQString@@PBD0@Z @ 17 NONAME ; class QString PsUiNotes::trUtf8(char const *, char const *)
	?getStaticMetaObject@PsUiUtils@@SAABUQMetaObject@@XZ @ 18 NONAME ; struct QMetaObject const & PsUiUtils::getStaticMetaObject(void)
	?readCenrepValue@PsUiSettingsWrapper@@ABE?AVQVariant@@JK@Z @ 19 NONAME ; class QVariant PsUiSettingsWrapper::readCenrepValue(long, unsigned long) const
	?getStaticMetaObject@PsUiDivertNoteHandler@@SAABUQMetaObject@@XZ @ 20 NONAME ; struct QMetaObject const & PsUiDivertNoteHandler::getStaticMetaObject(void)
	?isFeatureCallWaitingDistiquishNotProvisionedEnabled@PsUiSettingsWrapper@@QAE_NXZ @ 21 NONAME ; bool PsUiSettingsWrapper::isFeatureCallWaitingDistiquishNotProvisionedEnabled(void)
	??1PsUiWaitingNoteHandler@@UAE@XZ @ 22 NONAME ; PsUiWaitingNoteHandler::~PsUiWaitingNoteHandler(void)
	?formatPhoneNumber@PsUiNotes@@ABE?AVQString@@V2@@Z @ 23 NONAME ; class QString PsUiNotes::formatPhoneNumber(class QString) const
	?passwordTextChanged@PsUiNotes@@AAEXXZ @ 24 NONAME ; void PsUiNotes::passwordTextChanged(void)
	?tr@PsUiNotes@@SA?AVQString@@PBD0@Z @ 25 NONAME ; class QString PsUiNotes::tr(char const *, char const *)
	??0PsUiSettingsWrapper@@QAE@PAVQObject@@@Z @ 26 NONAME ; PsUiSettingsWrapper::PsUiSettingsWrapper(class QObject *)
	?staticMetaObject@PsUiLocalisation@@2UQMetaObject@@B @ 27 NONAME ; struct QMetaObject const PsUiLocalisation::staticMetaObject
	??1PsUiSettingsWrapper@@UAE@XZ @ 28 NONAME ; PsUiSettingsWrapper::~PsUiSettingsWrapper(void)
	?getStaticMetaObject@PsUiWaitingNoteHandler@@SAABUQMetaObject@@XZ @ 29 NONAME ; struct QMetaObject const & PsUiWaitingNoteHandler::getStaticMetaObject(void)
	?getStaticMetaObject@PsUiSettingsWrapper@@SAABUQMetaObject@@XZ @ 30 NONAME ; struct QMetaObject const & PsUiSettingsWrapper::getStaticMetaObject(void)
	?trUtf8@PsUiUtils@@SA?AVQString@@PBD0@Z @ 31 NONAME ; class QString PsUiUtils::trUtf8(char const *, char const *)
	?qt_metacast@PsUiWaitingNoteHandler@@UAEPAXPBD@Z @ 32 NONAME ; void * PsUiWaitingNoteHandler::qt_metacast(char const *)
	?finishedPasswordQueryDialog@PsUiNotes@@QAEXPAVHbAction@@@Z @ 33 NONAME ; void PsUiNotes::finishedPasswordQueryDialog(class HbAction *)
	?handleDivertingStatus@PsUiDivertNoteHandler@@QAEXAAV?$QList@PAVPSCallDivertingStatus@@@@_N@Z @ 34 NONAME ; void PsUiDivertNoteHandler::handleDivertingStatus(class QList<class PSCallDivertingStatus *> &, bool)
	??0PsUiWaitingNoteHandler@@QAE@AAVPSetCallWaitingWrapper@@@Z @ 35 NONAME ; PsUiWaitingNoteHandler::PsUiWaitingNoteHandler(class PSetCallWaitingWrapper &)
	?trUtf8@PsUiSettingsWrapper@@SA?AVQString@@PBD0H@Z @ 36 NONAME ; class QString PsUiSettingsWrapper::trUtf8(char const *, char const *, int)
	?tr@PsUiSettingsWrapper@@SA?AVQString@@PBD0H@Z @ 37 NONAME ; class QString PsUiSettingsWrapper::tr(char const *, char const *, int)
	?cancelNote@PsUiNotes@@QAEXH@Z @ 38 NONAME ; void PsUiNotes::cancelNote(int)
	?tr@PsUiLocalisation@@SA?AVQString@@PBD0H@Z @ 39 NONAME ; class QString PsUiLocalisation::tr(char const *, char const *, int)
	?removeTranslators@PsUiLocalisation@@QAEXXZ @ 40 NONAME ; void PsUiLocalisation::removeTranslators(void)
	?tr@PsUiUtils@@SA?AVQString@@PBD0@Z @ 41 NONAME ; class QString PsUiUtils::tr(char const *, char const *)
	?qt_metacast@PsUiSettingsWrapper@@UAEPAXPBD@Z @ 42 NONAME ; void * PsUiSettingsWrapper::qt_metacast(char const *)
	?tr@PsUiDivertNoteHandler@@SA?AVQString@@PBD0@Z @ 43 NONAME ; class QString PsUiDivertNoteHandler::tr(char const *, char const *)
	??0PsUiLocalisation@@QAE@PAVQObject@@@Z @ 44 NONAME ; PsUiLocalisation::PsUiLocalisation(class QObject *)
	??1PsUiLocalisation@@UAE@XZ @ 45 NONAME ; PsUiLocalisation::~PsUiLocalisation(void)
	?trUtf8@PsUiWaitingNoteHandler@@SA?AVQString@@PBD0H@Z @ 46 NONAME ; class QString PsUiWaitingNoteHandler::trUtf8(char const *, char const *, int)
	?noteShowing@PsUiNotes@@QAE_NXZ @ 47 NONAME ; bool PsUiNotes::noteShowing(void)
	??_EPsUiWaitingNoteHandler@@UAE@I@Z @ 48 NONAME ; PsUiWaitingNoteHandler::~PsUiWaitingNoteHandler(unsigned int)
	?trUtf8@PsUiNotes@@SA?AVQString@@PBD0H@Z @ 49 NONAME ; class QString PsUiNotes::trUtf8(char const *, char const *, int)
	?trUtf8@PsUiDivertNoteHandler@@SA?AVQString@@PBD0@Z @ 50 NONAME ; class QString PsUiDivertNoteHandler::trUtf8(char const *, char const *)
	?handleCFRequesting@PsUiDivertNoteHandler@@QAEX_N0@Z @ 51 NONAME ; void PsUiDivertNoteHandler::handleCFRequesting(bool, bool)
	?metaObject@PsUiLocalisation@@UBEPBUQMetaObject@@XZ @ 52 NONAME ; struct QMetaObject const * PsUiLocalisation::metaObject(void) const
	?trUtf8@PsUiDivertNoteHandler@@SA?AVQString@@PBD0H@Z @ 53 NONAME ; class QString PsUiDivertNoteHandler::trUtf8(char const *, char const *, int)
	??_EPsUiLocalisation@@UAE@I@Z @ 54 NONAME ; PsUiLocalisation::~PsUiLocalisation(unsigned int)
	?handleCallWaitingGetStatus@PsUiWaitingNoteHandler@@QAEXW4PsCallWaitingStatus@PSetCallWaitingWrapper@@ABV?$QList@E@@@Z @ 55 NONAME ; void PsUiWaitingNoteHandler::handleCallWaitingGetStatus(enum PSetCallWaitingWrapper::PsCallWaitingStatus, class QList<unsigned char> const &)
	?formatActiveDivertsNoteText@PsUiNotes@@AAEXABV?$QList@PAVPSCallDivertingStatus@@@@AAVQString@@@Z @ 56 NONAME ; void PsUiNotes::formatActiveDivertsNoteText(class QList<class PSCallDivertingStatus *> const &, class QString &)
	?instance@PsUiNotes@@SAPAV1@XZ @ 57 NONAME ; class PsUiNotes * PsUiNotes::instance(void)
	?staticMetaObject@PsUiDivertNoteHandler@@2UQMetaObject@@B @ 58 NONAME ; struct QMetaObject const PsUiDivertNoteHandler::staticMetaObject
	?staticMetaObject@PsUiUtils@@2UQMetaObject@@B @ 59 NONAME ; struct QMetaObject const PsUiUtils::staticMetaObject
	?qt_metacast@PsUiLocalisation@@UAEPAXPBD@Z @ 60 NONAME ; void * PsUiLocalisation::qt_metacast(char const *)
	?handleCallWaitingError@PsUiWaitingNoteHandler@@QAEXH@Z @ 61 NONAME ; void PsUiWaitingNoteHandler::handleCallWaitingError(int)
	?progressNoteCanceled@PsUiNotes@@IAEXXZ @ 62 NONAME ; void PsUiNotes::progressNoteCanceled(void)
	?launchNextNoteIfReady@PsUiNotes@@AAEXXZ @ 63 NONAME ; void PsUiNotes::launchNextNoteIfReady(void)
	?qt_metacast@PsUiUtils@@UAEPAXPBD@Z @ 64 NONAME ; void * PsUiUtils::qt_metacast(char const *)
	?trUtf8@PsUiWaitingNoteHandler@@SA?AVQString@@PBD0@Z @ 65 NONAME ; class QString PsUiWaitingNoteHandler::trUtf8(char const *, char const *)
	?tr@PsUiDivertNoteHandler@@SA?AVQString@@PBD0H@Z @ 66 NONAME ; class QString PsUiDivertNoteHandler::tr(char const *, char const *, int)
	?staticMetaObject@PsUiSettingsWrapper@@2UQMetaObject@@B @ 67 NONAME ; struct QMetaObject const PsUiSettingsWrapper::staticMetaObject
	?staticMetaObject@PsUiNotes@@2UQMetaObject@@B @ 68 NONAME ; struct QMetaObject const PsUiNotes::staticMetaObject
	?tr@PsUiLocalisation@@SA?AVQString@@PBD0@Z @ 69 NONAME ; class QString PsUiLocalisation::tr(char const *, char const *)
	??_EPsUiSettingsWrapper@@UAE@I@Z @ 70 NONAME ; PsUiSettingsWrapper::~PsUiSettingsWrapper(unsigned int)
	?getStaticMetaObject@PsUiLocalisation@@SAABUQMetaObject@@XZ @ 71 NONAME ; struct QMetaObject const & PsUiLocalisation::getStaticMetaObject(void)
	?showCallDivertDetails@PsUiNotes@@QAEXABV?$QList@PAVPSCallDivertingStatus@@@@@Z @ 72 NONAME ; void PsUiNotes::showCallDivertDetails(class QList<class PSCallDivertingStatus *> const &)
	?trUtf8@PsUiUtils@@SA?AVQString@@PBD0H@Z @ 73 NONAME ; class QString PsUiUtils::trUtf8(char const *, char const *, int)
	??1PsUiNotes@@EAE@XZ @ 74 NONAME ; PsUiNotes::~PsUiNotes(void)
	?qt_metacall@PsUiDivertNoteHandler@@UAEHW4Call@QMetaObject@@HPAPAX@Z @ 75 NONAME ; int PsUiDivertNoteHandler::qt_metacall(enum QMetaObject::Call, int, void * *)
	?qt_metacast@PsUiDivertNoteHandler@@UAEPAXPBD@Z @ 76 NONAME ; void * PsUiDivertNoteHandler::qt_metacast(char const *)
	?trUtf8@PsUiLocalisation@@SA?AVQString@@PBD0H@Z @ 77 NONAME ; class QString PsUiLocalisation::trUtf8(char const *, char const *, int)
	?trUtf8@PsUiSettingsWrapper@@SA?AVQString@@PBD0@Z @ 78 NONAME ; class QString PsUiSettingsWrapper::trUtf8(char const *, char const *)
	?staticMetaObject@PsUiWaitingNoteHandler@@2UQMetaObject@@B @ 79 NONAME ; struct QMetaObject const PsUiWaitingNoteHandler::staticMetaObject
	?handleCallWaitingRequesting@PsUiWaitingNoteHandler@@QAEX_N0@Z @ 80 NONAME ; void PsUiWaitingNoteHandler::handleCallWaitingRequesting(bool, bool)
	?tr@PsUiNotes@@SA?AVQString@@PBD0H@Z @ 81 NONAME ; class QString PsUiNotes::tr(char const *, char const *, int)
	?metaObject@PsUiWaitingNoteHandler@@UBEPBUQMetaObject@@XZ @ 82 NONAME ; struct QMetaObject const * PsUiWaitingNoteHandler::metaObject(void) const
	?tr@PsUiWaitingNoteHandler@@SA?AVQString@@PBD0@Z @ 83 NONAME ; class QString PsUiWaitingNoteHandler::tr(char const *, char const *)
	?showGlobalNotificationDialog@PsUiNotes@@QAEXABVQString@@@Z @ 84 NONAME ; void PsUiNotes::showGlobalNotificationDialog(class QString const &)
	?qt_metacall@PsUiWaitingNoteHandler@@UAEHW4Call@QMetaObject@@HPAPAX@Z @ 85 NONAME ; int PsUiWaitingNoteHandler::qt_metacall(enum QMetaObject::Call, int, void * *)
	?activeNoteAboutToClose@PsUiNotes@@AAEXXZ @ 86 NONAME ; void PsUiNotes::activeNoteAboutToClose(void)
	??_EPsUiNotes@@UAE@I@Z @ 87 NONAME ; PsUiNotes::~PsUiNotes(unsigned int)
	?metaObject@PsUiSettingsWrapper@@UBEPBUQMetaObject@@XZ @ 88 NONAME ; struct QMetaObject const * PsUiSettingsWrapper::metaObject(void) const
	?metaObject@PsUiNotes@@UBEPBUQMetaObject@@XZ @ 89 NONAME ; struct QMetaObject const * PsUiNotes::metaObject(void) const
	??0PsUiDivertNoteHandler@@QAE@AAVPSetCallDivertingWrapper@@@Z @ 90 NONAME ; PsUiDivertNoteHandler::PsUiDivertNoteHandler(class PSetCallDivertingWrapper &)
	?showGlobalNote@PsUiNotes@@QAEXAAHABVQString@@W4MessageBoxType@HbMessageBox@@@Z @ 91 NONAME ; void PsUiNotes::showGlobalNote(int &, class QString const &, enum HbMessageBox::MessageBoxType)
	?handleDivertingChanged@PsUiDivertNoteHandler@@QAEXABVPSCallDivertingCommand@@_N@Z @ 92 NONAME ; void PsUiDivertNoteHandler::handleDivertingChanged(class PSCallDivertingCommand const &, bool)
	?showGlobalProgressNote@PsUiNotes@@QAEXAAHABVQString@@@Z @ 93 NONAME ; void PsUiNotes::showGlobalProgressNote(int &, class QString const &)
	?handleCallWaitingChanged@PsUiWaitingNoteHandler@@QAEXW4PsCallWaitingCommand@PSetCallWaitingWrapper@@H@Z @ 94 NONAME ; void PsUiWaitingNoteHandler::handleCallWaitingChanged(enum PSetCallWaitingWrapper::PsCallWaitingCommand, int)
	??_EPsUiDivertNoteHandler@@UAE@I@Z @ 95 NONAME ; PsUiDivertNoteHandler::~PsUiDivertNoteHandler(unsigned int)
	?qt_metacall@PsUiLocalisation@@UAEHW4Call@QMetaObject@@HPAPAX@Z @ 96 NONAME ; int PsUiLocalisation::qt_metacall(enum QMetaObject::Call, int, void * *)
	?installTranslator@PsUiLocalisation@@QAE_NW4TranslationFileId@1@@Z @ 97 NONAME ; bool PsUiLocalisation::installTranslator(enum PsUiLocalisation::TranslationFileId)
	?showGlobalErrorNote@PsUiNotes@@QAEXAAHH@Z @ 98 NONAME ; void PsUiNotes::showGlobalErrorNote(int &, int)
	?isPhoneOffline@PsUiSettingsWrapper@@QBE_NXZ @ 99 NONAME ; bool PsUiSettingsWrapper::isPhoneOffline(void) const
	?metaObject@PsUiDivertNoteHandler@@UBEPBUQMetaObject@@XZ @ 100 NONAME ; struct QMetaObject const * PsUiDivertNoteHandler::metaObject(void) const
	?trUtf8@PsUiLocalisation@@SA?AVQString@@PBD0@Z @ 101 NONAME ; class QString PsUiLocalisation::trUtf8(char const *, char const *)
	?tr@PsUiUtils@@SA?AVQString@@PBD0H@Z @ 102 NONAME ; class QString PsUiUtils::tr(char const *, char const *, int)
	?numberGroupingSupported@PsUiSettingsWrapper@@QBE_NXZ @ 103 NONAME ; bool PsUiSettingsWrapper::numberGroupingSupported(void) const

