EXPORTS
	??1CDevSoundAudioOutput@@UAE@XZ @ 1 NONAME ; public: virtual __thiscall CDevSoundAudioOutput::~CDevSoundAudioOutput(void)
	?CalculateAudioOutputPositionL@CDevSoundAudioOutput@@UBEHXZ @ 2 NONAME ; public: virtual int __thiscall CDevSoundAudioOutput::CalculateAudioOutputPositionL(void)const 
	?CapabilitiesChannelsL@CDevSoundAudioOutput@@UAEXAAV?$RArray@I@@@Z @ 3 NONAME ; public: virtual void __thiscall CDevSoundAudioOutput::CapabilitiesChannelsL(class RArray<unsigned int> &)
	?CapabilitiesDataTypesL@CDevSoundAudioOutput@@UAEXAAV?$RArray@VTFourCC@@@@@Z @ 4 NONAME ; public: virtual void __thiscall CDevSoundAudioOutput::CapabilitiesDataTypesL(class RArray<class TFourCC> &)
	?CapabilitiesRatesL@CDevSoundAudioOutput@@UAEXAAV?$RArray@I@@@Z @ 5 NONAME ; public: virtual void __thiscall CDevSoundAudioOutput::CapabilitiesRatesL(class RArray<unsigned int> &)
	?ConfigChannelsL@CDevSoundAudioOutput@@UAEXAAV?$RArray@I@@@Z @ 6 NONAME ; public: virtual void __thiscall CDevSoundAudioOutput::ConfigChannelsL(class RArray<unsigned int> &)
	?ConfigDataTypesL@CDevSoundAudioOutput@@UAEXAAV?$RArray@VTFourCC@@@@@Z @ 7 NONAME ; public: virtual void __thiscall CDevSoundAudioOutput::ConfigDataTypesL(class RArray<class TFourCC> &)
	?ConfigRatesL@CDevSoundAudioOutput@@UAEXAAV?$RArray@I@@@Z @ 8 NONAME ; public: virtual void __thiscall CDevSoundAudioOutput::ConfigRatesL(class RArray<unsigned int> &)
	?ConfigureL@CDevSoundAudioOutput@@UAEXIIVTFourCC@@ABV?$RArray@H@@@Z @ 9 NONAME ; public: virtual void __thiscall CDevSoundAudioOutput::ConfigureL(unsigned int,unsigned int,class TFourCC,class RArray<int> const &)
	?GetPlayBalanceL@CDevSoundAudioOutput@@UAEXAAH0@Z @ 10 NONAME ; public: virtual void __thiscall CDevSoundAudioOutput::GetPlayBalanceL(int &,int &)
	?MaxVolumeL@CDevSoundAudioOutput@@UAEHXZ @ 11 NONAME ; public: virtual int __thiscall CDevSoundAudioOutput::MaxVolumeL(void)
	?NewL@CDevSoundAudioOutput@@SAPAV1@ABVTMMFPrioritySettings@@AAVMAdvancedAudioOutputObserver@@AAVCMMFDevSound@@@Z @ 12 NONAME ; public: static class CDevSoundAudioOutput * __cdecl CDevSoundAudioOutput::NewL(class TMMFPrioritySettings const &,class MAdvancedAudioOutputObserver &,class CMMFDevSound &)
	?PauseL@CDevSoundAudioOutput@@UAEXXZ @ 13 NONAME ; public: virtual void __thiscall CDevSoundAudioOutput::PauseL(void)
	?PlayL@CDevSoundAudioOutput@@UAEXPAX@Z @ 14 NONAME ; public: virtual void __thiscall CDevSoundAudioOutput::PlayL(void *)
	?PrimeL@CDevSoundAudioOutput@@UAEXXZ @ 15 NONAME ; public: virtual void __thiscall CDevSoundAudioOutput::PrimeL(void)
	?SetDecoder@CDevSoundAudioOutput@@UAEXPAVCAdvancedAudioDecoder@@@Z @ 16 NONAME ; public: virtual void __thiscall CDevSoundAudioOutput::SetDecoder(class CAdvancedAudioDecoder *)
	?SetPlayBalanceL@CDevSoundAudioOutput@@UAEXHH@Z @ 17 NONAME ; public: virtual void __thiscall CDevSoundAudioOutput::SetPlayBalanceL(int,int)
	?SetPrioritySettingsL@CDevSoundAudioOutput@@UAEXABVTMMFPrioritySettings@@@Z @ 18 NONAME ; public: virtual void __thiscall CDevSoundAudioOutput::SetPrioritySettingsL(class TMMFPrioritySettings const &)
	?SetVolumeL@CDevSoundAudioOutput@@UAEXH@Z @ 19 NONAME ; public: virtual void __thiscall CDevSoundAudioOutput::SetVolumeL(int)
	?SetVolumeRampL@CDevSoundAudioOutput@@UAEXABVTTimeIntervalMicroSeconds@@@Z @ 20 NONAME ; public: virtual void __thiscall CDevSoundAudioOutput::SetVolumeRampL(class TTimeIntervalMicroSeconds const &)
	?StopL@CDevSoundAudioOutput@@UAEXXZ @ 21 NONAME ; public: virtual void __thiscall CDevSoundAudioOutput::StopL(void)
	?VolumeL@CDevSoundAudioOutput@@UAEHXZ @ 22 NONAME ; public: virtual int __thiscall CDevSoundAudioOutput::VolumeL(void)

