EXPORTS
	?DeserializeL@TMdCEventCondition@@QAEXAAVCMdCSerializationBuffer@@@Z @ 1 NONAME ; void TMdCEventCondition::DeserializeL(class CMdCSerializationBuffer &)
	?RequiredSize@CMdCSerializationBuffer@@SAKABVTDesC8@@@Z @ 2 NONAME ; unsigned long CMdCSerializationBuffer::RequiredSize(class TDesC8 const &)
	?InsertL@CMdCSerializationBuffer@@QAEK_J@Z @ 3 NONAME ; unsigned long CMdCSerializationBuffer::InsertL(long long)
	?InsertL@CMdCSerializationBuffer@@QAEKAAVTMdCSerializationType@@K@Z @ 4 NONAME ; unsigned long CMdCSerializationBuffer::InsertL(class TMdCSerializationType &, unsigned long)
	?GetFromBufferL@TMdCObject@@SAABV1@AAVCMdCSerializationBuffer@@@Z @ 5 NONAME ; class TMdCObject const & TMdCObject::GetFromBufferL(class CMdCSerializationBuffer &)
	?SerializeL@TMdCObjectDef@@QAEXAAVCMdCSerializationBuffer@@@Z @ 6 NONAME ; void TMdCObjectDef::SerializeL(class CMdCSerializationBuffer &)
	?DeserializeL@TMdCNamespaceDef@@QAEXAAVCMdCSerializationBuffer@@@Z @ 7 NONAME ; void TMdCNamespaceDef::DeserializeL(class CMdCSerializationBuffer &)
	?SerializeL@TMdCRelationDef@@QAEXAAVCMdCSerializationBuffer@@@Z @ 8 NONAME ; void TMdCRelationDef::SerializeL(class CMdCSerializationBuffer &)
	??0TMdCRelationCondition@@QAE@XZ @ 9 NONAME ; TMdCRelationCondition::TMdCRelationCondition(void)
	?Size@CMdCSerializationBuffer@@QBEKXZ @ 10 NONAME ; unsigned long CMdCSerializationBuffer::Size(void) const
	?InsertL@CMdCSerializationBuffer@@QAEKI@Z @ 11 NONAME ; unsigned long CMdCSerializationBuffer::InsertL(unsigned int)
	?ReceiveL@CMdCSerializationBuffer@@QAEKAAE@Z @ 12 NONAME ; unsigned long CMdCSerializationBuffer::ReceiveL(unsigned char &)
	?SerializeL@TMdCSchema@@QAEXAAVCMdCSerializationBuffer@@@Z @ 13 NONAME ; void TMdCSchema::SerializeL(class CMdCSerializationBuffer &)
	?InsertL@CMdCSerializationBuffer@@QAEKVTTime@@@Z @ 14 NONAME ; unsigned long CMdCSerializationBuffer::InsertL(class TTime)
	?SerializeL@TMdCProperty@@QAEXAAVCMdCSerializationBuffer@@@Z @ 15 NONAME ; void TMdCProperty::SerializeL(class CMdCSerializationBuffer &)
	?SerializeL@TMdCObject@@QAEXAAVCMdCSerializationBuffer@@@Z @ 16 NONAME ; void TMdCObject::SerializeL(class CMdCSerializationBuffer &)
	?ReceiveL@CMdCSerializationBuffer@@QAEKAAVTDes8@@@Z @ 17 NONAME ; unsigned long CMdCSerializationBuffer::ReceiveL(class TDes8 &)
	?DeserializeL@TMdCOrderRule@@QAEXAAVCMdCSerializationBuffer@@@Z @ 18 NONAME ; void TMdCOrderRule::DeserializeL(class CMdCSerializationBuffer &)
	?GetFromBufferL@TMdCObjectCondition@@SAABV1@AAVCMdCSerializationBuffer@@@Z @ 19 NONAME ; class TMdCObjectCondition const & TMdCObjectCondition::GetFromBufferL(class CMdCSerializationBuffer &)
	?DeserializeL@TMdCSearchCriteria@@QAEXAAVCMdCSerializationBuffer@@@Z @ 20 NONAME ; void TMdCSearchCriteria::DeserializeL(class CMdCSerializationBuffer &)
	?ReceiveDes16L@CMdCSerializationBuffer@@QAEPAVHBufC16@@XZ @ 21 NONAME ; class HBufC16 * CMdCSerializationBuffer::ReceiveDes16L(void)
	?ReceiveL@CMdCSerializationBuffer@@QAEKAAM@Z @ 22 NONAME ; unsigned long CMdCSerializationBuffer::ReceiveL(float &)
	?InsertL@CMdCSerializationBuffer@@QAEKH@Z @ 23 NONAME ; unsigned long CMdCSerializationBuffer::InsertL(int)
	??0TMdCItemCounts@@QAE@XZ @ 24 NONAME ; TMdCItemCounts::TMdCItemCounts(void)
	?SerializeL@TMdCOrderRule@@QAEXAAVCMdCSerializationBuffer@@@Z @ 25 NONAME ; void TMdCOrderRule::SerializeL(class CMdCSerializationBuffer &)
	?SerializeL@TMdCPropertyDef@@QAEXAAVCMdCSerializationBuffer@@@Z @ 26 NONAME ; void TMdCPropertyDef::SerializeL(class CMdCSerializationBuffer &)
	?ReceiveL@CMdCSerializationBuffer@@QAEKAAN@Z @ 27 NONAME ; unsigned long CMdCSerializationBuffer::ReceiveL(double &)
	??0TMdCItems@@QAE@XZ @ 28 NONAME ; TMdCItems::TMdCItems(void)
	?DeserializeL@TMdCItems@@QAEXAAVCMdCSerializationBuffer@@@Z @ 29 NONAME ; void TMdCItems::DeserializeL(class CMdCSerializationBuffer &)
	?PositionL@CMdCSerializationBuffer@@QAEXK@Z @ 30 NONAME ; void CMdCSerializationBuffer::PositionL(unsigned long)
	?InsertL@CMdCSerializationBuffer@@QAEKC@Z @ 31 NONAME ; unsigned long CMdCSerializationBuffer::InsertL(signed char)
	?GetFromBufferL@TMdCCondition@@SAABV1@AAVCMdCSerializationBuffer@@@Z @ 32 NONAME ; class TMdCCondition const & TMdCCondition::GetFromBufferL(class CMdCSerializationBuffer &)
	?ReceivePtr8L@CMdCSerializationBuffer@@QAE?AVTPtrC8@@XZ @ 33 NONAME ; class TPtrC8 CMdCSerializationBuffer::ReceivePtr8L(void)
	?Position@CMdCSerializationBuffer@@QBEKXZ @ 34 NONAME ; unsigned long CMdCSerializationBuffer::Position(void) const
	??0TMdCProperty@@QAE@XZ @ 35 NONAME ; TMdCProperty::TMdCProperty(void)
	?NewL@CMdCSerializationBuffer@@SAPAV1@J@Z @ 36 NONAME ; class CMdCSerializationBuffer * CMdCSerializationBuffer::NewL(long)
	??0TMdCItemIds@@QAE@XZ @ 37 NONAME ; TMdCItemIds::TMdCItemIds(void)
	?NewLC@CMdCSerializationBuffer@@SAPAV1@ABV1@@Z @ 38 NONAME ; class CMdCSerializationBuffer * CMdCSerializationBuffer::NewLC(class CMdCSerializationBuffer const &)
	?SerializeL@TMdCEventCondition@@QAEXAAVCMdCSerializationBuffer@@@Z @ 39 NONAME ; void TMdCEventCondition::SerializeL(class CMdCSerializationBuffer &)
	?DeserializeL@TMdCPropertyCondition@@QAEXAAVCMdCSerializationBuffer@@@Z @ 40 NONAME ; void TMdCPropertyCondition::DeserializeL(class CMdCSerializationBuffer &)
	?GetFromBufferL@TMdCNamespaceDef@@SAABV1@AAVCMdCSerializationBuffer@@@Z @ 41 NONAME ; class TMdCNamespaceDef const & TMdCNamespaceDef::GetFromBufferL(class CMdCSerializationBuffer &)
	??0TMdCObjectDef@@QAE@XZ @ 42 NONAME ; TMdCObjectDef::TMdCObjectDef(void)
	?ReceiveL@CMdCSerializationBuffer@@QAEKAAH@Z @ 43 NONAME ; unsigned long CMdCSerializationBuffer::ReceiveL(int &)
	?ReceiveL@CMdCSerializationBuffer@@QAEKAA_J@Z @ 44 NONAME ; unsigned long CMdCSerializationBuffer::ReceiveL(long long &)
	?ReceiveL@CMdCSerializationBuffer@@QAEKAAI@Z @ 45 NONAME ; unsigned long CMdCSerializationBuffer::ReceiveL(unsigned int &)
	?DeserializeL@TMdCProperty@@QAEXAAVCMdCSerializationBuffer@@@Z @ 46 NONAME ; void TMdCProperty::DeserializeL(class CMdCSerializationBuffer &)
	?DeserializeL@TMdCRelationDef@@QAEXAAVCMdCSerializationBuffer@@@Z @ 47 NONAME ; void TMdCRelationDef::DeserializeL(class CMdCSerializationBuffer &)
	?InsertL@CMdCSerializationBuffer@@QAEKM@Z @ 48 NONAME ; unsigned long CMdCSerializationBuffer::InsertL(float)
	??0TMdCEventCondition@@QAE@XZ @ 49 NONAME ; TMdCEventCondition::TMdCEventCondition(void)
	?GetFromBufferL@TMdCItemIds@@SAABV1@AAVCMdCSerializationBuffer@@@Z @ 50 NONAME ; class TMdCItemIds const & TMdCItemIds::GetFromBufferL(class CMdCSerializationBuffer &)
	?SerializeL@TMdCPropertyCondition@@QAEXAAVCMdCSerializationBuffer@@@Z @ 51 NONAME ; void TMdCPropertyCondition::SerializeL(class CMdCSerializationBuffer &)
	?SerializeL@TMdCEventDef@@QAEXAAVCMdCSerializationBuffer@@@Z @ 52 NONAME ; void TMdCEventDef::SerializeL(class CMdCSerializationBuffer &)
	?NewLC@CMdCSerializationBuffer@@SAPAV1@ABVRMessage2@@H@Z @ 53 NONAME ; class CMdCSerializationBuffer * CMdCSerializationBuffer::NewLC(class RMessage2 const &, int)
	?GetFromBufferL@TMdCItemCounts@@SAABV1@AAVCMdCSerializationBuffer@@@Z @ 54 NONAME ; class TMdCItemCounts const & TMdCItemCounts::GetFromBufferL(class CMdCSerializationBuffer &)
	?GetFromBufferL@TMdCOrderRule@@SAABV1@AAVCMdCSerializationBuffer@@@Z @ 55 NONAME ; class TMdCOrderRule const & TMdCOrderRule::GetFromBufferL(class CMdCSerializationBuffer &)
	??0TMdCRelation@@QAE@XZ @ 56 NONAME ; TMdCRelation::TMdCRelation(void)
	?DeserializeL@TMdCRelationCondition@@QAEXAAVCMdCSerializationBuffer@@@Z @ 57 NONAME ; void TMdCRelationCondition::DeserializeL(class CMdCSerializationBuffer &)
	?NewLC@CMdCSerializationBuffer@@SAPAV1@PAEJ@Z @ 58 NONAME ; class CMdCSerializationBuffer * CMdCSerializationBuffer::NewLC(unsigned char *, long)
	?SerializeL@TMdCEvent@@QAEXAAVCMdCSerializationBuffer@@@Z @ 59 NONAME ; void TMdCEvent::SerializeL(class CMdCSerializationBuffer &)
	?Buffer@CMdCSerializationBuffer@@QBE?AVTPtr8@@XZ @ 60 NONAME ; class TPtr8 CMdCSerializationBuffer::Buffer(void) const
	?BufferConstPtr@CMdCSerializationBuffer@@QBEPBVTPtr8@@XZ @ 61 NONAME ; class TPtr8 const * CMdCSerializationBuffer::BufferConstPtr(void) const
	?GetFromBufferL@TMdCEventCondition@@SAABV1@AAVCMdCSerializationBuffer@@@Z @ 62 NONAME ; class TMdCEventCondition const & TMdCEventCondition::GetFromBufferL(class CMdCSerializationBuffer &)
	?ReceiveL@CMdCSerializationBuffer@@QAEKAAVTTime@@@Z @ 63 NONAME ; unsigned long CMdCSerializationBuffer::ReceiveL(class TTime &)
	?SerializeL@TMdCLogicCondition@@QAEXAAVCMdCSerializationBuffer@@@Z @ 64 NONAME ; void TMdCLogicCondition::SerializeL(class CMdCSerializationBuffer &)
	?DeserializeL@TMdCObjectDef@@QAEXAAVCMdCSerializationBuffer@@@Z @ 65 NONAME ; void TMdCObjectDef::DeserializeL(class CMdCSerializationBuffer &)
	?DeserializeL@TMdCItemIds@@QAEXAAVCMdCSerializationBuffer@@@Z @ 66 NONAME ; void TMdCItemIds::DeserializeL(class CMdCSerializationBuffer &)
	?SerializeL@TMdCItems@@QAEXAAVCMdCSerializationBuffer@@@Z @ 67 NONAME ; void TMdCItems::SerializeL(class CMdCSerializationBuffer &)
	?DeserializeL@TMdCObject@@QAEXAAVCMdCSerializationBuffer@@@Z @ 68 NONAME ; void TMdCObject::DeserializeL(class CMdCSerializationBuffer &)
	?GetFromBufferL@TMdCSchema@@SAABV1@AAVCMdCSerializationBuffer@@@Z @ 69 NONAME ; class TMdCSchema const & TMdCSchema::GetFromBufferL(class CMdCSerializationBuffer &)
	?Panic@MMdCCommon@@SAXH@Z @ 70 NONAME ; void MMdCCommon::Panic(int)
	?GetFromBufferL@TMdCEventDef@@SAABV1@AAVCMdCSerializationBuffer@@@Z @ 71 NONAME ; class TMdCEventDef const & TMdCEventDef::GetFromBufferL(class CMdCSerializationBuffer &)
	?GetFromBufferL@TMdCObjectDef@@SAABV1@AAVCMdCSerializationBuffer@@@Z @ 72 NONAME ; class TMdCObjectDef const & TMdCObjectDef::GetFromBufferL(class CMdCSerializationBuffer &)
	??0TMdCPropertyDef@@QAE@XZ @ 73 NONAME ; TMdCPropertyDef::TMdCPropertyDef(void)
	?ReceiveL@CMdCSerializationBuffer@@QAEKAAF@Z @ 74 NONAME ; unsigned long CMdCSerializationBuffer::ReceiveL(short &)
	??0TMdCEvent@@QAE@XZ @ 75 NONAME ; TMdCEvent::TMdCEvent(void)
	?SerializeL@TMdCRelationCondition@@QAEXAAVCMdCSerializationBuffer@@@Z @ 76 NONAME ; void TMdCRelationCondition::SerializeL(class CMdCSerializationBuffer &)
	?SerializeL@TMdCObjectCondition@@QAEXAAVCMdCSerializationBuffer@@@Z @ 77 NONAME ; void TMdCObjectCondition::SerializeL(class CMdCSerializationBuffer &)
	?GetFromBufferL@TMdCProperty@@SAABV1@AAVCMdCSerializationBuffer@@@Z @ 78 NONAME ; class TMdCProperty const & TMdCProperty::GetFromBufferL(class CMdCSerializationBuffer &)
	??0TMdCRelationDef@@QAE@XZ @ 79 NONAME ; TMdCRelationDef::TMdCRelationDef(void)
	?InsertL@CMdCSerializationBuffer@@QAEKE@Z @ 80 NONAME ; unsigned long CMdCSerializationBuffer::InsertL(unsigned char)
	?InsertL@CMdCSerializationBuffer@@QAEKG@Z @ 81 NONAME ; unsigned long CMdCSerializationBuffer::InsertL(unsigned short)
	?SerializeL@TMdCRelation@@QAEXAAVCMdCSerializationBuffer@@@Z @ 82 NONAME ; void TMdCRelation::SerializeL(class CMdCSerializationBuffer &)
	??0TMdCSearchCriteria@@QAE@XZ @ 83 NONAME ; TMdCSearchCriteria::TMdCSearchCriteria(void)
	??0TMdCOrderRule@@QAE@XZ @ 84 NONAME ; TMdCOrderRule::TMdCOrderRule(void)
	?ReceiveL@CMdCSerializationBuffer@@QAEKAATTMdCValueUnion@@@Z @ 85 NONAME ; unsigned long CMdCSerializationBuffer::ReceiveL(union TMdCValueUnion &)
	?ReceiveL@CMdCSerializationBuffer@@QAEKAAVTMdCSerializationType@@K@Z @ 86 NONAME ; unsigned long CMdCSerializationBuffer::ReceiveL(class TMdCSerializationType &, unsigned long)
	?DeserializeL@TMdCPropertyDef@@QAEXAAVCMdCSerializationBuffer@@@Z @ 87 NONAME ; void TMdCPropertyDef::DeserializeL(class CMdCSerializationBuffer &)
	?InsertL@CMdCSerializationBuffer@@QAEKN@Z @ 88 NONAME ; unsigned long CMdCSerializationBuffer::InsertL(double)
	?GetFromBufferL@TMdCPropertyDef@@SAABV1@AAVCMdCSerializationBuffer@@@Z @ 89 NONAME ; class TMdCPropertyDef const & TMdCPropertyDef::GetFromBufferL(class CMdCSerializationBuffer &)
	??0TMdCLogicCondition@@QAE@XZ @ 90 NONAME ; TMdCLogicCondition::TMdCLogicCondition(void)
	?InsertL@CMdCSerializationBuffer@@QAEKK@Z @ 91 NONAME ; unsigned long CMdCSerializationBuffer::InsertL(unsigned long)
	?NewL@CMdCSerializationBuffer@@SAPAV1@ABVRMessage2@@H@Z @ 92 NONAME ; class CMdCSerializationBuffer * CMdCSerializationBuffer::NewL(class RMessage2 const &, int)
	?SerializeL@TMdCNamespaceDef@@QAEXAAVCMdCSerializationBuffer@@@Z @ 93 NONAME ; void TMdCNamespaceDef::SerializeL(class CMdCSerializationBuffer &)
	?GetFromBufferL@TMdCSearchCriteria@@SAABV1@AAVCMdCSerializationBuffer@@@Z @ 94 NONAME ; class TMdCSearchCriteria const & TMdCSearchCriteria::GetFromBufferL(class CMdCSerializationBuffer &)
	?NewL@CMdCSerializationBuffer@@SAPAV1@ABV1@@Z @ 95 NONAME ; class CMdCSerializationBuffer * CMdCSerializationBuffer::NewL(class CMdCSerializationBuffer const &)
	??0TMdCEventDef@@QAE@XZ @ 96 NONAME ; TMdCEventDef::TMdCEventDef(void)
	?RequiredSize@CMdCSerializationBuffer@@SAKABVTDesC16@@@Z @ 97 NONAME ; unsigned long CMdCSerializationBuffer::RequiredSize(class TDesC16 const &)
	?DeserializeL@TMdCRelation@@QAEXAAVCMdCSerializationBuffer@@@Z @ 98 NONAME ; void TMdCRelation::DeserializeL(class CMdCSerializationBuffer &)
	?NewL@CMdCSerializationBuffer@@SAPAV1@PAEJ@Z @ 99 NONAME ; class CMdCSerializationBuffer * CMdCSerializationBuffer::NewL(unsigned char *, long)
	??0TMdCObjectCondition@@QAE@XZ @ 100 NONAME ; TMdCObjectCondition::TMdCObjectCondition(void)
	?GetFromBufferL@TMdCEvent@@SAABV1@AAVCMdCSerializationBuffer@@@Z @ 101 NONAME ; class TMdCEvent const & TMdCEvent::GetFromBufferL(class CMdCSerializationBuffer &)
	?GetFromBufferL@TMdCRelation@@SAABV1@AAVCMdCSerializationBuffer@@@Z @ 102 NONAME ; class TMdCRelation const & TMdCRelation::GetFromBufferL(class CMdCSerializationBuffer &)
	?DeserializeL@TMdCObjectCondition@@QAEXAAVCMdCSerializationBuffer@@@Z @ 103 NONAME ; void TMdCObjectCondition::DeserializeL(class CMdCSerializationBuffer &)
	?GetFromBufferL@TMdCLogicCondition@@SAABV1@AAVCMdCSerializationBuffer@@@Z @ 104 NONAME ; class TMdCLogicCondition const & TMdCLogicCondition::GetFromBufferL(class CMdCSerializationBuffer &)
	??0TMdCPropertyCondition@@QAE@XZ @ 105 NONAME ; TMdCPropertyCondition::TMdCPropertyCondition(void)
	?InsertL@CMdCSerializationBuffer@@QAEKAAVTDesC16@@@Z @ 106 NONAME ; unsigned long CMdCSerializationBuffer::InsertL(class TDesC16 &)
	?DeserializeL@TMdCEventDef@@QAEXAAVCMdCSerializationBuffer@@@Z @ 107 NONAME ; void TMdCEventDef::DeserializeL(class CMdCSerializationBuffer &)
	?InsertL@CMdCSerializationBuffer@@QAEKAAVTDesC8@@@Z @ 108 NONAME ; unsigned long CMdCSerializationBuffer::InsertL(class TDesC8 &)
	?GetFromBufferL@TMdCPropertyCondition@@SAABV1@AAVCMdCSerializationBuffer@@@Z @ 109 NONAME ; class TMdCPropertyCondition const & TMdCPropertyCondition::GetFromBufferL(class CMdCSerializationBuffer &)
	?ReceiveL@CMdCSerializationBuffer@@QAEKAAG@Z @ 110 NONAME ; unsigned long CMdCSerializationBuffer::ReceiveL(unsigned short &)
	?BufferPtr@CMdCSerializationBuffer@@QBEPAVTPtr8@@XZ @ 111 NONAME ; class TPtr8 * CMdCSerializationBuffer::BufferPtr(void) const
	?ReceiveL@CMdCSerializationBuffer@@QAEKAAK@Z @ 112 NONAME ; unsigned long CMdCSerializationBuffer::ReceiveL(unsigned long &)
	?DeserializeL@TMdCEvent@@QAEXAAVCMdCSerializationBuffer@@@Z @ 113 NONAME ; void TMdCEvent::DeserializeL(class CMdCSerializationBuffer &)
	??0TMdCObject@@QAE@XZ @ 114 NONAME ; TMdCObject::TMdCObject(void)
	?SerializeL@TMdCSearchCriteria@@QAEXAAVCMdCSerializationBuffer@@@Z @ 115 NONAME ; void TMdCSearchCriteria::SerializeL(class CMdCSerializationBuffer &)
	??0TMdCSchema@@QAE@XZ @ 116 NONAME ; TMdCSchema::TMdCSchema(void)
	?GetFromBufferL@TMdCItems@@SAABV1@AAVCMdCSerializationBuffer@@@Z @ 117 NONAME ; class TMdCItems const & TMdCItems::GetFromBufferL(class CMdCSerializationBuffer &)
	?DeserializeL@TMdCSchema@@QAEXAAVCMdCSerializationBuffer@@@Z @ 118 NONAME ; void TMdCSchema::DeserializeL(class CMdCSerializationBuffer &)
	?ReceiveL@CMdCSerializationBuffer@@QAEKAAJ@Z @ 119 NONAME ; unsigned long CMdCSerializationBuffer::ReceiveL(long &)
	?DeserializeL@TMdCItemCounts@@QAEXAAVCMdCSerializationBuffer@@@Z @ 120 NONAME ; void TMdCItemCounts::DeserializeL(class CMdCSerializationBuffer &)
	?SerializeL@TMdCItemIds@@QAEXAAVCMdCSerializationBuffer@@@Z @ 121 NONAME ; void TMdCItemIds::SerializeL(class CMdCSerializationBuffer &)
	?NewLC@CMdCSerializationBuffer@@SAPAV1@J@Z @ 122 NONAME ; class CMdCSerializationBuffer * CMdCSerializationBuffer::NewLC(long)
	?DeserializeL@TMdCLogicCondition@@QAEXAAVCMdCSerializationBuffer@@@Z @ 123 NONAME ; void TMdCLogicCondition::DeserializeL(class CMdCSerializationBuffer &)
	?InsertL@CMdCSerializationBuffer@@QAEKAATTMdCValueUnion@@@Z @ 124 NONAME ; unsigned long CMdCSerializationBuffer::InsertL(union TMdCValueUnion &)
	?ReceiveL@CMdCSerializationBuffer@@QAEKAAC@Z @ 125 NONAME ; unsigned long CMdCSerializationBuffer::ReceiveL(signed char &)
	?InsertL@CMdCSerializationBuffer@@QAEKF@Z @ 126 NONAME ; unsigned long CMdCSerializationBuffer::InsertL(short)
	??0TMdCNamespaceDef@@QAE@XZ @ 127 NONAME ; TMdCNamespaceDef::TMdCNamespaceDef(void)
	?ReceiveL@CMdCSerializationBuffer@@QAEKAAVTDes16@@@Z @ 128 NONAME ; unsigned long CMdCSerializationBuffer::ReceiveL(class TDes16 &)
	?SerializeL@TMdCItemCounts@@QAEXAAVCMdCSerializationBuffer@@@Z @ 129 NONAME ; void TMdCItemCounts::SerializeL(class CMdCSerializationBuffer &)
	?InsertL@CMdCSerializationBuffer@@QAEKJ@Z @ 130 NONAME ; unsigned long CMdCSerializationBuffer::InsertL(long)
	?ReceivePtr16L@CMdCSerializationBuffer@@QAE?AVTPtrC16@@XZ @ 131 NONAME ; class TPtrC16 CMdCSerializationBuffer::ReceivePtr16L(void)
	?GetFromBufferL@TMdCRelationCondition@@SAABV1@AAVCMdCSerializationBuffer@@@Z @ 132 NONAME ; class TMdCRelationCondition const & TMdCRelationCondition::GetFromBufferL(class CMdCSerializationBuffer &)
	?ReceiveDes8L@CMdCSerializationBuffer@@QAEPAVHBufC8@@XZ @ 133 NONAME ; class HBufC8 * CMdCSerializationBuffer::ReceiveDes8L(void)
	?ReceiveDesciptorLength@CMdCSerializationBuffer@@QBEGXZ @ 134 NONAME ; unsigned short CMdCSerializationBuffer::ReceiveDesciptorLength(void) const
	?GetFromBufferL@TMdCRelationDef@@SAABV1@AAVCMdCSerializationBuffer@@@Z @ 135 NONAME ; class TMdCRelationDef const & TMdCRelationDef::GetFromBufferL(class CMdCSerializationBuffer &)

