EXPORTS
	??0CMsgSvgUtils@@QAE@XZ @ 1 NONAME ; CMsgSvgUtils::CMsgSvgUtils(void)
	??1CContactMatcher@@UAE@XZ @ 2 NONAME ABSENT ; CContactMatcher::~CContactMatcher(void)
	?CancelOperation@CContactMatcher@@QAEXXZ @ 3 NONAME ABSENT ; void CContactMatcher::CancelOperation(void)
	?CharconvIdToMibIdL@CMsgTextUtils@@QAEII@Z @ 4 NONAME ; unsigned int CMsgTextUtils::CharconvIdToMibIdL(unsigned int)
	?CloseStoresL@CContactMatcher@@QAEXXZ @ 5 NONAME ABSENT ; void CContactMatcher::CloseStoresL(void)
	?ContactHasFieldOfTypeL@CContactMatcher@@QAEHW4TAiwAddressSelectType@@ABVMVPbkStoreContact@@@Z @ 6 NONAME ABSENT ; int CContactMatcher::ContactHasFieldOfTypeL(enum TAiwAddressSelectType, class MVPbkStoreContact const &)
	?ConvertLineBreaksL@CMsgTextUtils@@SAXAAVCRichText@@H@Z @ 7 NONAME ; void CMsgTextUtils::ConvertLineBreaksL(class CRichText &, int)
	?ConvertParagraphSeparatorsLC@CMsgTextUtils@@SAPAVHBufC16@@ABVTDesC16@@@Z @ 8 NONAME ; class HBufC16 * CMsgTextUtils::ConvertParagraphSeparatorsLC(class TDesC16 const &)
	?ConvertToBuffer16LC@CMsgTextUtils@@QAEPAVHBufC16@@ABVTDesC16@@I@Z @ 9 NONAME ; class HBufC16 * CMsgTextUtils::ConvertToBuffer16LC(class TDesC16 const &, unsigned int)
	?ConvertToBuffer8LC@CMsgTextUtils@@QAEPAVHBufC8@@ABVTDesC16@@I@Z @ 10 NONAME ; class HBufC8 * CMsgTextUtils::ConvertToBuffer8LC(class TDesC16 const &, unsigned int)
	?ConvertToFileL@CMsgTextUtils@@QAEXABVTDesC16@@AAVRFile@@I@Z @ 11 NONAME ; void CMsgTextUtils::ConvertToFileL(class TDesC16 const &, class RFile &, unsigned int)
	?FieldTypes@CContactMatcher@@QBEABVMVPbkFieldTypeList@@XZ @ 12 NONAME ABSENT ; class MVPbkFieldTypeList const & CContactMatcher::FieldTypes(void) const
	?GenerateThumbnailL@CMsgSvgUtils@@QAEXAAVRFile@@PAVCFbsBitmap@@1HAAVTSize@@@Z @ 13 NONAME ; void CMsgSvgUtils::GenerateThumbnailL(class RFile &, class CFbsBitmap *, class CFbsBitmap *, int, class TSize &)
	?GetContactManager@CContactMatcher@@QAEAAVCVPbkContactManager@@XZ @ 14 NONAME ABSENT ; class CVPbkContactManager & CContactMatcher::GetContactManager(void)
	?GetContactStoresL@CContactMatcher@@QAEAAVMVPbkContactStoreList@@XZ @ 15 NONAME ABSENT ; class MVPbkContactStoreList & CContactMatcher::GetContactStoresL(void)
	?GetFieldDataBinaryL@CContactMatcher@@QBE?AVTPtrC8@@ABVMVPbkStoreContact@@ABVMVPbkFieldType@@@Z @ 16 NONAME ABSENT ; class TPtrC8 CContactMatcher::GetFieldDataBinaryL(class MVPbkStoreContact const &, class MVPbkFieldType const &) const
	?GetFieldDataDateTimeL@CContactMatcher@@QBE?AVTTime@@ABVMVPbkStoreContact@@ABVMVPbkFieldType@@@Z @ 17 NONAME ABSENT ; class TTime CContactMatcher::GetFieldDataDateTimeL(class MVPbkStoreContact const &, class MVPbkFieldType const &) const
	?GetFieldDataTextL@CContactMatcher@@QBE?AVTPtrC16@@ABVMVPbkStoreContact@@ABVMVPbkFieldType@@@Z @ 18 NONAME ABSENT ; class TPtrC16 CContactMatcher::GetFieldDataTextL(class MVPbkStoreContact const &, class MVPbkFieldType const &) const
	?GetNameL@CContactMatcher@@QAEPAVHBufC16@@AAVMVPbkStoreContactFieldCollection@@@Z @ 19 NONAME ABSENT ; class HBufC16 * CContactMatcher::GetNameL(class MVPbkStoreContactFieldCollection &)
	?GetSafeAttachmentNameLC@CMsgTextUtils@@SAPAVHBufC16@@AAVMMsvAttachmentManager@@ABVTDesC16@@IH@Z @ 20 NONAME ; class HBufC16 * CMsgTextUtils::GetSafeAttachmentNameLC(class MMsvAttachmentManager &, class TDesC16 const &, unsigned int, int)
	?GetStoreContactL@CContactMatcher@@QAEXABVMVPbkContactLink@@PAPAVMVPbkStoreContact@@@Z @ 21 NONAME ABSENT ; void CContactMatcher::GetStoreContactL(class MVPbkContactLink const &, class MVPbkStoreContact * *)
	?GetStoreContactL@CContactMatcher@@QAEXABVMVPbkContactLink@@PAPAVMVPbkStoreContact@@AAVTRequestStatus@@@Z @ 22 NONAME ABSENT ; void CContactMatcher::GetStoreContactL(class MVPbkContactLink const &, class MVPbkStoreContact * *, class TRequestStatus &)
	?IsOwnNumberL@CContactMatcher@@QAEXABVTDesC16@@AAH@Z @ 23 NONAME ABSENT ; void CContactMatcher::IsOwnNumberL(class TDesC16 const &, int &)
	?IsOwnNumberL@CContactMatcher@@QAEXABVTDesC16@@AAVTRequestStatus@@@Z @ 24 NONAME ABSENT ; void CContactMatcher::IsOwnNumberL(class TDesC16 const &, class TRequestStatus &)
	?IsPreferredTelephonyVoIP@CMsgVoIPExtension@@QBEHXZ @ 25 NONAME ; int CMsgVoIPExtension::IsPreferredTelephonyVoIP(void) const
	?IsVoIPSupported@CMsgVoIPExtension@@QBEHXZ @ 26 NONAME ; int CMsgVoIPExtension::IsVoIPSupported(void) const
	?MatchDataL@CContactMatcher@@QAEXABVMDesC16Array@@ABVMVPbkFieldTypeList@@AAVCVPbkContactLinkArray@@ABVTCallBack@@@Z @ 27 NONAME ABSENT ; void CContactMatcher::MatchDataL(class MDesC16Array const &, class MVPbkFieldTypeList const &, class CVPbkContactLinkArray &, class TCallBack const &)
	?MatchDataL@CContactMatcher@@QAEXABVTDesC16@@ABVMVPbkFieldTypeList@@AAVCVPbkContactLinkArray@@@Z @ 28 NONAME ABSENT ; void CContactMatcher::MatchDataL(class TDesC16 const &, class MVPbkFieldTypeList const &, class CVPbkContactLinkArray &)
	?MatchDataL@CContactMatcher@@QAEXABVTDesC16@@ABVMVPbkFieldTypeList@@AAVCVPbkContactLinkArray@@AAVTRequestStatus@@@Z @ 29 NONAME ABSENT ; void CContactMatcher::MatchDataL(class TDesC16 const &, class MVPbkFieldTypeList const &, class CVPbkContactLinkArray &, class TRequestStatus &)
	?MatchPhoneNumberL@CContactMatcher@@QAEXABVTDesC16@@HW4TVPbkPhoneNumberMatchFlags@CVPbkPhoneNumberMatchStrategy@@AAVCVPbkContactLinkArray@@@Z @ 30 NONAME ABSENT ; void CContactMatcher::MatchPhoneNumberL(class TDesC16 const &, int, enum CVPbkPhoneNumberMatchStrategy::TVPbkPhoneNumberMatchFlags, class CVPbkContactLinkArray &)
	?MatchPhoneNumberL@CContactMatcher@@QAEXABVTDesC16@@HW4TVPbkPhoneNumberMatchFlags@CVPbkPhoneNumberMatchStrategy@@AAVCVPbkContactLinkArray@@AAVTRequestStatus@@@Z @ 31 NONAME ABSENT ; void CContactMatcher::MatchPhoneNumberL(class TDesC16 const &, int, enum CVPbkPhoneNumberMatchStrategy::TVPbkPhoneNumberMatchFlags, class CVPbkContactLinkArray &, class TRequestStatus &)
	?MibIdToCharconvIdL@CMsgTextUtils@@QAEII@Z @ 32 NONAME ; unsigned int CMsgTextUtils::MibIdToCharconvIdL(unsigned int)
	?NewL@CContactMatcher@@SAPAV1@PAVRFs@@@Z @ 33 NONAME ABSENT ; class CContactMatcher * CContactMatcher::NewL(class RFs *)
	?NewL@CFileProtectionResolver@@SAPAV1@AAVRFs@@@Z @ 34 NONAME ; class CFileProtectionResolver * CFileProtectionResolver::NewL(class RFs &)
	?NewL@CMsgTextUtils@@SAPAV1@AAVRFs@@@Z @ 35 NONAME ; class CMsgTextUtils * CMsgTextUtils::NewL(class RFs &)
	?NewL@CMsgVoIPExtension@@SAPAV1@XZ @ 36 NONAME ; class CMsgVoIPExtension * CMsgVoIPExtension::NewL(void)
	?NewLC@CContactMatcher@@SAPAV1@PAVRFs@@@Z @ 37 NONAME ABSENT ; class CContactMatcher * CContactMatcher::NewLC(class RFs *)
	?NewLC@CFileProtectionResolver@@SAPAV1@AAVRFs@@@Z @ 38 NONAME ; class CFileProtectionResolver * CFileProtectionResolver::NewLC(class RFs &)
	?OpenAllStoresL@CContactMatcher@@QAEXAAVTRequestStatus@@@Z @ 39 NONAME ABSENT; void CContactMatcher::OpenAllStoresL(class TRequestStatus &)
	?OpenAllStoresL@CContactMatcher@@QAEXXZ @ 40 NONAME ABSENT ; void CContactMatcher::OpenAllStoresL(void)
	?OpenDefaultMatchStoresL@CContactMatcher@@QAEXAAVTRequestStatus@@@Z @ 41 NONAME ABSENT ; void CContactMatcher::OpenDefaultMatchStoresL(class TRequestStatus &)
	?OpenDefaultMatchStoresL@CContactMatcher@@QAEXXZ @ 42 NONAME ABSENT ; void CContactMatcher::OpenDefaultMatchStoresL(void)
	?OpenOwnNumberStoresL@CContactMatcher@@QAEXAAVTRequestStatus@@@Z @ 43 NONAME ABSENT ; void CContactMatcher::OpenOwnNumberStoresL(class TRequestStatus &)
	?OpenOwnNumberStoresL@CContactMatcher@@QAEXXZ @ 44 NONAME ABSENT ; void CContactMatcher::OpenOwnNumberStoresL(void)
	?OpenStoreL@CContactMatcher@@QAEXABVCVPbkContactStoreUriArray@@@Z @ 45 NONAME ABSENT ; void CContactMatcher::OpenStoreL(class CVPbkContactStoreUriArray const &)
	?OpenStoreL@CContactMatcher@@QAEXABVCVPbkContactStoreUriArray@@AAVTRequestStatus@@@Z @ 46 NONAME ABSENT ; void CContactMatcher::OpenStoreL(class CVPbkContactStoreUriArray const &, class TRequestStatus &)
	?ProtectionStatusL@CFileProtectionResolver@@QAEHAAVRFile@@AAVTDataType@@@Z @ 47 NONAME ; int CFileProtectionResolver::ProtectionStatusL(class RFile &, class TDataType &)
	?ProtectionStatusL@CFileProtectionResolver@@QAEHAAVRFile@@AAVTDataType@@AAPAVHBufC8@@@Z @ 48 NONAME ; int CFileProtectionResolver::ProtectionStatusL(class RFile &, class TDataType &, class HBufC8 * &)
	?ProtectionStatusL@CFileProtectionResolver@@QAEHABVTDesC16@@AAVTDataType@@@Z @ 49 NONAME ; int CFileProtectionResolver::ProtectionStatusL(class TDesC16 const &, class TDataType &)
	?ProtectionStatusL@CFileProtectionResolver@@QAEHABVTDesC16@@AAVTDataType@@AAPAVHBufC8@@@Z @ 50 NONAME ; int CFileProtectionResolver::ProtectionStatusL(class TDesC16 const &, class TDataType &, class HBufC8 * &)
	?RecognizeCharSetL@CMsgTextUtils@@SAIAAVRFs@@AAVRFile@@@Z @ 51 NONAME ; unsigned int CMsgTextUtils::RecognizeCharSetL(class RFs &, class RFile &)
	?TrimAndRemoveNonAlphaDigit@CMsgTextUtils@@SAXAAVTDes16@@@Z @ 52 NONAME ; void CMsgTextUtils::TrimAndRemoveNonAlphaDigit(class TDes16 &)
	?UTF8Size@CMsgTextUtils@@SAHVTPtrC16@@@Z @ 53 NONAME ; int CMsgTextUtils::UTF8Size(class TPtrC16)
	?VoIPProfilesExistL@CMsgVoIPExtension@@QBEHXZ @ 54 NONAME ; int CMsgVoIPExtension::VoIPProfilesExistL(void) const
	?GetFileNameFromBuffer@CMsgTextUtils@@SAXAAV?$TBuf@$0BAA@@@ABVTDesC16@@HPBV3@@Z @ 55 NONAME ; void CMsgTextUtils::GetFileNameFromBuffer(class TBuf<256> &, class TDesC16 const &, int, class TDesC16 const *)
	?ContactNameFormatterL@CContactMatcher@@QAEAAVMPbk2ContactNameFormatter@@XZ @ 56 NONAME ABSENT ; class MPbk2ContactNameFormatter & CContactMatcher::ContactNameFormatterL(void)
	?ConvertPtrToDesC16@CMsgTextUtils@@QAEXABVTDes8@@AAVTDes16@@@Z @ 57 NONAME ; void CMsgTextUtils::ConvertPtrToDesC16(class TDes8 const &, class TDes16 &)
	?ConvertToUnicodeL@CMsgTextUtils@@QAEPAVHBufC16@@ABVTDesC8@@I@Z @ 58 NONAME ; class HBufC16 * CMsgTextUtils::ConvertToUnicodeL(class TDesC8 const &, unsigned int)

