EXPORTS
	_ZN17DialpadKeyHandler11qt_metacallEN11QMetaObject4CallEiPPv @ 1 NONAME
	_ZN17DialpadKeyHandler11qt_metacastEPKc @ 2 NONAME
	_ZN17DialpadKeyHandler16staticMetaObjectE @ 3 NONAME DATA 16
	_ZN17DialpadKeyHandler19getStaticMetaObjectEv @ 4 NONAME
	_ZN17DialpadKeyHandlerC1EP7Dialpad6QFlagsINS_21DialpadKeyEventFilterEEP7QObject @ 5 NONAME
	_ZN17DialpadKeyHandlerC1EP7DialpadR12HbMainWindowP7QObject @ 6 NONAME
	_ZN17DialpadKeyHandlerC2EP7Dialpad6QFlagsINS_21DialpadKeyEventFilterEEP7QObject @ 7 NONAME
	_ZN17DialpadKeyHandlerC2EP7DialpadR12HbMainWindowP7QObject @ 8 NONAME
	_ZN17DialpadKeyHandlerD0Ev @ 9 NONAME
	_ZN17DialpadKeyHandlerD1Ev @ 10 NONAME
	_ZN17DialpadKeyHandlerD2Ev @ 11 NONAME
	_ZN19DialpadVtKeyHandler11qt_metacallEN11QMetaObject4CallEiPPv @ 12 NONAME
	_ZN19DialpadVtKeyHandler11qt_metacastEPKc @ 13 NONAME
	_ZN19DialpadVtKeyHandler16staticMetaObjectE @ 14 NONAME DATA 16
	_ZN19DialpadVtKeyHandler19getStaticMetaObjectEv @ 15 NONAME
	_ZN19DialpadVtKeyHandlerC1EP7DialpadR12HbMainWindowP7QObject @ 16 NONAME
	_ZN19DialpadVtKeyHandlerC2EP7DialpadR12HbMainWindowP7QObject @ 17 NONAME
	_ZN19DialpadVtKeyHandlerD0Ev @ 18 NONAME
	_ZN19DialpadVtKeyHandlerD1Ev @ 19 NONAME
	_ZN19DialpadVtKeyHandlerD2Ev @ 20 NONAME
	_ZN7Dialpad10closeEventEP11QCloseEvent @ 21 NONAME
	_ZN7Dialpad10initializeEv @ 22 NONAME
	_ZN7Dialpad11aboutToOpenEv @ 23 NONAME
	_ZN7Dialpad11openDialpadEv @ 24 NONAME
	_ZN7Dialpad11qt_metacallEN11QMetaObject4CallEiPPv @ 25 NONAME
	_ZN7Dialpad11qt_metacastEPKc @ 26 NONAME
	_ZN7Dialpad12aboutToCloseEv @ 27 NONAME
	_ZN7Dialpad12closeDialpadEv @ 28 NONAME
	_ZN7Dialpad12gestureEventEP13QGestureEvent @ 29 NONAME
	_ZN7Dialpad12updateLayoutEN2Qt11OrientationE @ 30 NONAME
	_ZN7Dialpad16openAnimFinishedEv @ 31 NONAME
	_ZN7Dialpad16staticMetaObjectE @ 32 NONAME DATA 16
	_ZN7Dialpad17closeAnimFinishedEv @ 33 NONAME
	_ZN7Dialpad19getStaticMetaObjectEv @ 34 NONAME
	_ZN7Dialpad19startCloseAnimationEv @ 35 NONAME
	_ZN7Dialpad20layoutBackgroundItemEv @ 36 NONAME
	_ZN7Dialpad20openAnimValueChangedEf @ 37 NONAME
	_ZN7Dialpad20setCallButtonEnabledEb @ 38 NONAME
	_ZN7Dialpad20setTapOutsideDismissEb @ 39 NONAME
	_ZN7Dialpad21closeAnimValueChangedEf @ 40 NONAME
	_ZN7Dialpad24orientationChangeStartedEv @ 41 NONAME
	_ZN7Dialpad25orientationChangeFinishedEN2Qt11OrientationE @ 42 NONAME
	_ZN7Dialpad5paintEP8QPainterPK24QStyleOptionGraphicsItemP7QWidget @ 43 NONAME
	_ZN7Dialpad9hideEventEP10QHideEvent @ 44 NONAME
	_ZN7Dialpad9showEventEP10QShowEvent @ 45 NONAME
	_ZN7DialpadC1ERK12HbMainWindow @ 46 NONAME
	_ZN7DialpadC1Ev @ 47 NONAME
	_ZN7DialpadC2ERK12HbMainWindow @ 48 NONAME
	_ZN7DialpadC2Ev @ 49 NONAME
	_ZN7DialpadD0Ev @ 50 NONAME
	_ZN7DialpadD1Ev @ 51 NONAME
	_ZN7DialpadD2Ev @ 52 NONAME
	_ZNK17DialpadKeyHandler10metaObjectEv @ 53 NONAME
	_ZNK19DialpadVtKeyHandler10metaObjectEv @ 54 NONAME
	_ZNK7Dialpad10metaObjectEv @ 55 NONAME
	_ZNK7Dialpad6editorEv @ 56 NONAME
	_ZNK7Dialpad6isOpenEv @ 57 NONAME
	_ZTI17DialpadKeyHandler @ 58 NONAME
	_ZTI19DialpadVtKeyHandler @ 59 NONAME
	_ZTI7Dialpad @ 60 NONAME
	_ZTV17DialpadKeyHandler @ 61 NONAME
	_ZTV19DialpadVtKeyHandler @ 62 NONAME
	_ZTV7Dialpad @ 63 NONAME
	_ZThn16_N7DialpadD0Ev @ 64 NONAME
	_ZThn16_N7DialpadD1Ev @ 65 NONAME
	_ZThn8_N7Dialpad5paintEP8QPainterPK24QStyleOptionGraphicsItemP7QWidget @ 66 NONAME
	_ZThn8_N7DialpadD0Ev @ 67 NONAME
	_ZThn8_N7DialpadD1Ev @ 68 NONAME
	_ZNK7Dialpad19isCallButtonEnabledEv @ 69 NONAME
	_ZN7Dialpad11changeEventEP6QEvent @ 70 NONAME

