EXPORTS
	_ZN3TMS12TMSCallProxy10CreateCallEi @ 1 NONAME
	_ZN3TMS12TMSCallProxy10DeleteCallEv @ 2 NONAME
	_ZN3TMS12TMSCallProxy10GetBitRateERj @ 3 NONAME
	_ZN3TMS12TMSCallProxy10GetMaxGainERj @ 4 NONAME
	_ZN3TMS12TMSCallProxy10GetVADModeEiRi @ 5 NONAME
	_ZN3TMS12TMSCallProxy10InitStreamEiiiiP11RHandleBasei @ 6 NONAME
	_ZN3TMS12TMSCallProxy10SetBitRateEj @ 7 NONAME
	_ZN3TMS12TMSCallProxy10SetVADModeEii @ 8 NONAME
	_ZN3TMS12TMSCallProxy10StopStreamEiii @ 9 NONAME
	_ZN3TMS12TMSCallProxy11PauseStreamEiii @ 10 NONAME
	_ZN3TMS12TMSCallProxy11StartStreamEiiii @ 11 NONAME
	_ZN3TMS12TMSCallProxy12BufferFilledEiiiRNS_9TMSBufferE @ 12 NONAME
	_ZN3TMS12TMSCallProxy12CreateStreamEiiRi @ 13 NONAME
	_ZN3TMS12TMSCallProxy12DeinitStreamEiii @ 14 NONAME
	_ZN3TMS12TMSCallProxy12DeleteStreamEiiRi @ 15 NONAME
	_ZN3TMS12TMSCallProxy12GetMaxVolumeERj @ 16 NONAME
	_ZN3TMS12TMSCallProxy13BufferEmptiedEiiiRNS_9TMSBufferE @ 17 NONAME
	_ZN3TMS12TMSCallProxy18GetFormatCodecModeEiiRi @ 18 NONAME
	_ZN3TMS12TMSCallProxy18SetFormatCodecModeEiii @ 19 NONAME
	_ZN3TMS12TMSCallProxy20GetSupportedBitRatesERSt6vectorIjSaIjEE @ 20 NONAME
	_ZN3TMS12TMSCallProxy22GetDataXferChunkHandleEiiij @ 21 NONAME
	_ZN3TMS12TMSCallProxy5CloseEv @ 22 NONAME
	_ZN3TMS12TMSCallProxy6GetCNGEiRi @ 23 NONAME
	_ZN3TMS12TMSCallProxy6GetPlcEiRi @ 24 NONAME
	_ZN3TMS12TMSCallProxy6SetCNGEii @ 25 NONAME
	_ZN3TMS12TMSCallProxy6SetPlcEii @ 26 NONAME
	_ZN3TMS12TMSCallProxy7ConnectEv @ 27 NONAME
	_ZN3TMS12TMSCallProxy7GetGainERj @ 28 NONAME
	_ZN3TMS12TMSCallProxy7SetGainEj @ 29 NONAME
	_ZN3TMS12TMSCallProxy9GetVolumeERj @ 30 NONAME
	_ZN3TMS12TMSCallProxy9SetVolumeEj @ 31 NONAME
	_ZN3TMS12TMSCallProxyC1Ev @ 32 NONAME
	_ZN3TMS12TMSCallProxyC2Ev @ 33 NONAME
	_ZN3TMS12TMSCallProxyD0Ev @ 34 NONAME
	_ZN3TMS12TMSCallProxyD1Ev @ 35 NONAME
	_ZN3TMS12TMSCallProxyD2Ev @ 36 NONAME
	_ZTIN3TMS12TMSCallProxyE @ 37 NONAME
	_ZTVN3TMS12TMSCallProxyE @ 38 NONAME

