EXPORTS
	_ZN13CLbtContainer11GetTriggersERK6RArrayImER13RPointerArrayI25CLbtContainerTriggerEntryERiR14TRequestStatus18TLbtSecurityPolicy @ 1 NONAME
	_ZN13CLbtContainer12ListTriggersEP24CLbtContainerListOptionsR13RPointerArrayI25CLbtContainerTriggerEntryERiR14TRequestStatus18TLbtSecurityPolicy @ 2 NONAME
	_ZN13CLbtContainer13CreateTriggerER25CLbtContainerTriggerEntryRiR14TRequestStatus18TLbtSecurityPolicy @ 3 NONAME
	_ZN13CLbtContainer14DeleteTriggersEP25CLbtContainerUpdateFilterRiR14TRequestStatus18TLbtSecurityPolicy @ 4 NONAME
	_ZN13CLbtContainer14RemoveObserverEP32MLbtContainerChangeEventObserver @ 5 NONAME
	_ZN13CLbtContainer14UpdateTriggerLER25CLbtContainerTriggerEntryymRiR14TRequestStatus18TLbtSecurityPolicy @ 6 NONAME
	_ZN13CLbtContainer17SetChangeObserverEP32MLbtContainerChangeEventObserveri @ 7 NONAME
	_ZN13CLbtContainer19UpdateTriggersStateEN16CLbtTriggerEntry16TLbtTriggerStateEP25CLbtContainerUpdateFilterRi16TLbtFireOnUpdateR14TRequestStatus18TLbtSecurityPolicy @ 8 NONAME
	_ZN13CLbtContainer20CancelAsyncOperationEi @ 9 NONAME
	_ZN13CLbtContainer21SetTimeTillCompactionE5TTime @ 10 NONAME
	_ZN13CLbtContainer22UpdateTriggersValidityEN22TLbtTriggerDynamicInfo19TLbtTriggerValidityER6RArrayImERiR14TRequestStatus18TLbtSecurityPolicy @ 11 NONAME
	_ZN13CLbtContainer23UpdateTriggerFiredStateER6RArrayImERiiR14TRequestStatus @ 12 NONAME
	_ZN13CLbtContainer33GetCountOfEnabledAndValidTriggersEv @ 13 NONAME
	_ZN13CLbtContainer4NewLEv @ 14 NONAME
	_ZN13CLbtContainer7DestroyEv @ 15 NONAME
	_ZN19CLbtContainerFilter12GetSidArrayLEP6RArrayI9TSecureIdE @ 16 NONAME
	_ZN19CLbtContainerFilter17GetRectAreaArrayLEP6RArrayIN23CLbtExtendedTriggerInfo19TLbtTriggerRectAreaEE @ 17 NONAME
	_ZN19CLbtContainerFilter19GetHystRadiusArrayLEP6RArrayIdE @ 18 NONAME
	_ZN19CLbtContainerFilter20AddOwnerSidInFilterLE9TSecureId @ 19 NONAME
	_ZN19CLbtContainerFilter21AddFiredInfoInFilterLEi @ 20 NONAME
	_ZN19CLbtContainerFilter21GetTriggerFiredArrayLEP6RArrayIiE @ 21 NONAME
	_ZN19CLbtContainerFilter23GetStartupProcessArrayLEP6RArrayI4TBufILi256EEE @ 22 NONAME
	_ZN19CLbtContainerFilter24AddRectTrigAreaInFilterLEN23CLbtExtendedTriggerInfo19TLbtTriggerRectAreaE @ 23 NONAME
	_ZN19CLbtContainerFilter24IsStartupProcessInFilterER4TBufILi256EE @ 24 NONAME
	_ZN19CLbtContainerFilter26AddStartupProcessInFilterLER4TBufILi256EE @ 25 NONAME
	_ZN19CLbtContainerFilter27AddHysteresisRadiusInFilterEd @ 26 NONAME
	_ZN19CLbtContainerFilter30GetTriggerFireOnCreationArrayLEP6RArrayIiE @ 27 NONAME
	_ZN19CLbtContainerFilter33AddTriggerFireOnCreationInFilterLEi @ 28 NONAME
	_ZN19CLbtContainerFilter4NewLEv @ 29 NONAME
	_ZN19CLbtContainerFilterD0Ev @ 30 NONAME
	_ZN19CLbtContainerFilterD1Ev @ 31 NONAME
	_ZN19CLbtContainerFilterD2Ev @ 32 NONAME
	_ZN23CLbtExtendedTriggerInfo11SetOwnerSidERK9TSecureId @ 33 NONAME
	_ZN23CLbtExtendedTriggerInfo12SetFiredInfoE19TLbtTriggerFireInfo @ 34 NONAME
	_ZN23CLbtExtendedTriggerInfo16SetStrategyDataLERK6TDesC8 @ 35 NONAME
	_ZN23CLbtExtendedTriggerInfo19SetHysteresisRadiusERKd @ 36 NONAME
	_ZN23CLbtExtendedTriggerInfo20SetTriggerFiredStateEi @ 37 NONAME
	_ZN23CLbtExtendedTriggerInfo23SetTriggerRectangleAreaERKNS_19TLbtTriggerRectAreaE @ 38 NONAME
	_ZN23CLbtExtendedTriggerInfo24SetTriggerFireOnCreationEi @ 39 NONAME
	_ZN23CLbtExtendedTriggerInfo4NewLENS_19TLbtTriggerRectAreaEdiRK6TDesC89TSecureIdi @ 40 NONAME
	_ZN23CLbtExtendedTriggerInfo4NewLEv @ 41 NONAME
	_ZN23CLbtExtendedTriggerInfoD0Ev @ 42 NONAME
	_ZN23CLbtExtendedTriggerInfoD1Ev @ 43 NONAME
	_ZN23CLbtExtendedTriggerInfoD2Ev @ 44 NONAME
	_ZN24CLbtContainerListOptions11ListOptionsEv @ 45 NONAME
	_ZN24CLbtContainerListOptions11SetDataMaskEy @ 46 NONAME
	_ZN24CLbtContainerListOptions14SetListOptionsEP22CLbtListTriggerOptions @ 47 NONAME
	_ZN24CLbtContainerListOptions15ContainerFilterEv @ 48 NONAME
	_ZN24CLbtContainerListOptions18SetContainerFilterEP19CLbtContainerFilter @ 49 NONAME
	_ZN24CLbtContainerListOptions4NewLEP22CLbtListTriggerOptionsP19CLbtContainerFilter @ 50 NONAME
	_ZN24CLbtContainerListOptions4NewLEv @ 51 NONAME
	_ZN24CLbtContainerListOptions8DataMaskEv @ 52 NONAME
	_ZN24CLbtContainerListOptionsD0Ev @ 53 NONAME
	_ZN24CLbtContainerListOptionsD1Ev @ 54 NONAME
	_ZN24CLbtContainerListOptionsD2Ev @ 55 NONAME
	_ZN25CLbtContainerTriggerEntry12StrategyDataEv @ 56 NONAME
	_ZN25CLbtContainerTriggerEntry15SetStrategyDataER13TStrategyData @ 57 NONAME
	_ZN25CLbtContainerTriggerEntry19ExtendedTriggerInfoEv @ 58 NONAME
	_ZN25CLbtContainerTriggerEntry22SetExtendedTriggerInfoEP23CLbtExtendedTriggerInfo @ 59 NONAME
	_ZN25CLbtContainerTriggerEntry4NewLEP16CLbtTriggerEntryP22TLbtTriggerDynamicInfoP23CLbtExtendedTriggerInfo @ 60 NONAME
	_ZN25CLbtContainerTriggerEntry4NewLEv @ 61 NONAME
	_ZN25CLbtContainerTriggerEntryD0Ev @ 62 NONAME
	_ZN25CLbtContainerTriggerEntryD1Ev @ 63 NONAME
	_ZN25CLbtContainerTriggerEntryD2Ev @ 64 NONAME
	_ZN25CLbtContainerUpdateFilter11SetDataMaskEy @ 65 NONAME
	_ZN25CLbtContainerUpdateFilter14TrigInfoFilterEv @ 66 NONAME
	_ZN25CLbtContainerUpdateFilter15ContainerFilterEv @ 67 NONAME
	_ZN25CLbtContainerUpdateFilter17SetTrigInfoFilterEP21CLbtTriggerFilterBase @ 68 NONAME
	_ZN25CLbtContainerUpdateFilter18SetContainerFilterEP19CLbtContainerFilter @ 69 NONAME
	_ZN25CLbtContainerUpdateFilter4NewLEP21CLbtTriggerFilterBaseP19CLbtContainerFilter @ 70 NONAME
	_ZN25CLbtContainerUpdateFilter4NewLEv @ 71 NONAME
	_ZN25CLbtContainerUpdateFilter8DataMaskEv @ 72 NONAME
	_ZN25CLbtContainerUpdateFilterD0Ev @ 73 NONAME
	_ZN25CLbtContainerUpdateFilterD1Ev @ 74 NONAME
	_ZN25CLbtContainerUpdateFilterD2Ev @ 75 NONAME
	_ZNK19CLbtContainerFilter18IsOwnerSidInFilterE9TSecureId @ 76 NONAME
	_ZNK19CLbtContainerFilter25IsRectTriggerAreaInFilterEN23CLbtExtendedTriggerInfo19TLbtTriggerRectAreaE @ 77 NONAME
	_ZNK19CLbtContainerFilter26IsHysteresisRadiusInFilterEd @ 78 NONAME
	_ZNK19CLbtContainerFilter26IsTriggerFiredInfoInFilterEi @ 79 NONAME
	_ZNK19CLbtContainerFilter31IsTriggerFireOnCreationInFilterEi @ 80 NONAME
	_ZNK23CLbtExtendedTriggerInfo11StategyDataEv @ 81 NONAME
	_ZNK23CLbtExtendedTriggerInfo12GetFiredInfoEv @ 82 NONAME
	_ZNK23CLbtExtendedTriggerInfo14IsTriggerFiredEv @ 83 NONAME
	_ZNK23CLbtExtendedTriggerInfo16HysteresisRadiusEv @ 84 NONAME
	_ZNK23CLbtExtendedTriggerInfo21TriggerReactangleAreaEv @ 85 NONAME
	_ZNK23CLbtExtendedTriggerInfo23IsTriggerFireOnCreationEv @ 86 NONAME
	_ZNK23CLbtExtendedTriggerInfo8OwnerSidEv @ 87 NONAME
	_ZTI14TLbtTriggerKey @ 88 NONAME ; #<TI>#
	_ZTI23TLbtTriggerClientSIDKey @ 89 NONAME ; #<TI>#
	_ZTV14TLbtTriggerKey @ 90 NONAME ; #<VT>#
	_ZTV23TLbtTriggerClientSIDKey @ 91 NONAME ; #<VT>#

