EXPORTS
	_ZN3TMS11TMSRingTone11AddObserverERNS_19TMSRingToneObserverEPv @ 1 NONAME
	_ZN3TMS11TMSRingTone14RemoveObserverERNS_19TMSRingToneObserverE @ 2 NONAME
	_ZN3TMS11TMSRingTone4InitEiP8_GStringS2_ @ 3 NONAME
	_ZN3TMS11TMSRingTone4MuteEv @ 4 NONAME
	_ZN3TMS11TMSRingTone4PlayEv @ 5 NONAME
	_ZN3TMS11TMSRingTone4StopEv @ 6 NONAME
	_ZN3TMS11TMSRingTone5PauseEv @ 7 NONAME
	_ZN3TMS11TMSRingTone6DeinitEv @ 8 NONAME
	_ZN3TMS11TMSRingToneC1Ev @ 9 NONAME
	_ZN3TMS11TMSRingToneC2Ev @ 10 NONAME
	_ZN3TMS11TMSRingToneD0Ev @ 11 NONAME
	_ZN3TMS11TMSRingToneD1Ev @ 12 NONAME
	_ZN3TMS11TMSRingToneD2Ev @ 13 NONAME
	_ZN3TMS12TMSAMRFormatC1Ev @ 14 NONAME
	_ZN3TMS12TMSAMRFormatC2Ev @ 15 NONAME
	_ZN3TMS12TMSAMRFormatD0Ev @ 16 NONAME
	_ZN3TMS12TMSAMRFormatD1Ev @ 17 NONAME
	_ZN3TMS12TMSAMRFormatD2Ev @ 18 NONAME
	_ZN3TMS12TMSMicSource7GetTypeERi @ 19 NONAME
	_ZN3TMS12TMSMicSourceC1Ev @ 20 NONAME
	_ZN3TMS12TMSMicSourceC2Ev @ 21 NONAME
	_ZN3TMS12TMSMicSourceD0Ev @ 22 NONAME
	_ZN3TMS12TMSMicSourceD1Ev @ 23 NONAME
	_ZN3TMS12TMSMicSourceD2Ev @ 24 NONAME
	_ZN3TMS12TMSModemSink7GetTypeERi @ 25 NONAME
	_ZN3TMS12TMSModemSinkC1Ev @ 26 NONAME
	_ZN3TMS12TMSModemSinkC2Ev @ 27 NONAME
	_ZN3TMS12TMSModemSinkD0Ev @ 28 NONAME
	_ZN3TMS12TMSModemSinkD1Ev @ 29 NONAME
	_ZN3TMS12TMSModemSinkD2Ev @ 30 NONAME
	_ZN3TMS12TMSPCMFormatC1Ev @ 31 NONAME
	_ZN3TMS12TMSPCMFormatC2Ev @ 32 NONAME
	_ZN3TMS12TMSPCMFormatD0Ev @ 33 NONAME
	_ZN3TMS12TMSPCMFormatD1Ev @ 34 NONAME
	_ZN3TMS12TMSPCMFormatD2Ev @ 35 NONAME
	_ZN3TMS13TMSClientSink11AddObserverERNS_21TMSClientSinkObserverEPv @ 36 NONAME
	_ZN3TMS13TMSClientSink14RemoveObserverERNS_21TMSClientSinkObserverE @ 37 NONAME
	_ZN3TMS13TMSClientSink15BufferProcessedEPNS_9TMSBufferE @ 38 NONAME
	_ZN3TMS13TMSClientSink7GetTypeERi @ 39 NONAME
	_ZN3TMS13TMSClientSinkC1Ev @ 40 NONAME
	_ZN3TMS13TMSClientSinkC2Ev @ 41 NONAME
	_ZN3TMS13TMSClientSinkD0Ev @ 42 NONAME
	_ZN3TMS13TMSClientSinkD1Ev @ 43 NONAME
	_ZN3TMS13TMSClientSinkD2Ev @ 44 NONAME
	_ZN3TMS13TMSG711Format10GetVADModeERi @ 45 NONAME
	_ZN3TMS13TMSG711Format10SetVADModeEi @ 46 NONAME
	_ZN3TMS13TMSG711Format6GetCNGERi @ 47 NONAME
	_ZN3TMS13TMSG711Format6GetPlcERi @ 48 NONAME
	_ZN3TMS13TMSG711Format6SetCNGEi @ 49 NONAME
	_ZN3TMS13TMSG711Format6SetPlcEi @ 50 NONAME
	_ZN3TMS13TMSG711Format7GetModeERi @ 51 NONAME
	_ZN3TMS13TMSG711Format7SetModeEi @ 52 NONAME
	_ZN3TMS13TMSG711FormatC1Ev @ 53 NONAME
	_ZN3TMS13TMSG711FormatC2Ev @ 54 NONAME
	_ZN3TMS13TMSG711FormatD0Ev @ 55 NONAME
	_ZN3TMS13TMSG711FormatD1Ev @ 56 NONAME
	_ZN3TMS13TMSG711FormatD2Ev @ 57 NONAME
	_ZN3TMS13TMSG729Format10GetVADModeERi @ 58 NONAME
	_ZN3TMS13TMSG729Format10SetVADModeEi @ 59 NONAME
	_ZN3TMS13TMSG729FormatC1Ev @ 60 NONAME
	_ZN3TMS13TMSG729FormatC2Ev @ 61 NONAME
	_ZN3TMS13TMSG729FormatD0Ev @ 62 NONAME
	_ZN3TMS13TMSG729FormatD1Ev @ 63 NONAME
	_ZN3TMS13TMSG729FormatD2Ev @ 64 NONAME
	_ZN3TMS13TMSGainEffect11AddObserverERNS_17TMSEffectObserverEPv @ 65 NONAME
	_ZN3TMS13TMSGainEffect11GetMaxLevelERj @ 66 NONAME
	_ZN3TMS13TMSGainEffect14RemoveObserverERNS_17TMSEffectObserverE @ 67 NONAME
	_ZN3TMS13TMSGainEffect7GetTypeERi @ 68 NONAME
	_ZN3TMS13TMSGainEffect8GetLevelERj @ 69 NONAME
	_ZN3TMS13TMSGainEffect8SetLevelEj @ 70 NONAME
	_ZN3TMS13TMSGainEffectC1Ev @ 71 NONAME
	_ZN3TMS13TMSGainEffectC2Ev @ 72 NONAME
	_ZN3TMS13TMSGainEffectD0Ev @ 73 NONAME
	_ZN3TMS13TMSGainEffectD1Ev @ 74 NONAME
	_ZN3TMS13TMSGainEffectD2Ev @ 75 NONAME
	_ZN3TMS13TMSILBCFormat10GetVADModeERi @ 76 NONAME
	_ZN3TMS13TMSILBCFormat10SetVADModeEi @ 77 NONAME
	_ZN3TMS13TMSILBCFormat6GetCNGERi @ 78 NONAME
	_ZN3TMS13TMSILBCFormat6SetCNGEi @ 79 NONAME
	_ZN3TMS13TMSILBCFormat7GetModeERi @ 80 NONAME
	_ZN3TMS13TMSILBCFormat7SetModeEi @ 81 NONAME
	_ZN3TMS13TMSILBCFormatC1Ev @ 82 NONAME
	_ZN3TMS13TMSILBCFormatC2Ev @ 83 NONAME
	_ZN3TMS13TMSILBCFormatD0Ev @ 84 NONAME
	_ZN3TMS13TMSILBCFormatD1Ev @ 85 NONAME
	_ZN3TMS13TMSILBCFormatD2Ev @ 86 NONAME
	_ZN3TMS13TMSInbandTone11AddObserverERNS_21TMSInbandToneObserverEPv @ 87 NONAME
	_ZN3TMS13TMSInbandTone14RemoveObserverERNS_21TMSInbandToneObserverE @ 88 NONAME
	_ZN3TMS13TMSInbandTone4StopEv @ 89 NONAME
	_ZN3TMS13TMSInbandTone5StartEi @ 90 NONAME
	_ZN3TMS13TMSInbandToneC1Ev @ 91 NONAME
	_ZN3TMS13TMSInbandToneC2Ev @ 92 NONAME
	_ZN3TMS13TMSInbandToneD0Ev @ 93 NONAME
	_ZN3TMS13TMSInbandToneD1Ev @ 94 NONAME
	_ZN3TMS13TMSInbandToneD2Ev @ 95 NONAME
	_ZN3TMS14TMSModemSource7GetTypeERi @ 96 NONAME
	_ZN3TMS14TMSModemSourceC1Ev @ 97 NONAME
	_ZN3TMS14TMSModemSourceC2Ev @ 98 NONAME
	_ZN3TMS14TMSModemSourceD0Ev @ 99 NONAME
	_ZN3TMS14TMSModemSourceD1Ev @ 100 NONAME
	_ZN3TMS14TMSModemSourceD2Ev @ 101 NONAME
	_ZN3TMS14TMSSpeakerSink7GetTypeERi @ 102 NONAME
	_ZN3TMS14TMSSpeakerSinkC1Ev @ 103 NONAME
	_ZN3TMS14TMSSpeakerSinkC2Ev @ 104 NONAME
	_ZN3TMS14TMSSpeakerSinkD0Ev @ 105 NONAME
	_ZN3TMS14TMSSpeakerSinkD1Ev @ 106 NONAME
	_ZN3TMS14TMSSpeakerSinkD2Ev @ 107 NONAME
	_ZN3TMS15TMSClientSource11AddObserverERNS_23TMSClientSourceObserverEPv @ 108 NONAME
	_ZN3TMS15TMSClientSource12BufferFilledERNS_9TMSBufferE @ 109 NONAME
	_ZN3TMS15TMSClientSource13ProcessBufferEPNS_9TMSBufferE @ 110 NONAME
	_ZN3TMS15TMSClientSource14GetEnqueueModeERi @ 111 NONAME
	_ZN3TMS15TMSClientSource14RemoveObserverERNS_23TMSClientSourceObserverE @ 112 NONAME
	_ZN3TMS15TMSClientSource14SetEnqueueModeEi @ 113 NONAME
	_ZN3TMS15TMSClientSource5FlushEv @ 114 NONAME
	_ZN3TMS15TMSClientSource7GetTypeERi @ 115 NONAME
	_ZN3TMS15TMSClientSourceC1Ev @ 116 NONAME
	_ZN3TMS15TMSClientSourceC2Ev @ 117 NONAME
	_ZN3TMS15TMSClientSourceD0Ev @ 118 NONAME
	_ZN3TMS15TMSClientSourceD1Ev @ 119 NONAME
	_ZN3TMS15TMSClientSourceD2Ev @ 120 NONAME
	_ZN3TMS15TMSVolumeEffect11AddObserverERNS_17TMSEffectObserverEPv @ 121 NONAME
	_ZN3TMS15TMSVolumeEffect11GetMaxLevelERj @ 122 NONAME
	_ZN3TMS15TMSVolumeEffect14RemoveObserverERNS_17TMSEffectObserverE @ 123 NONAME
	_ZN3TMS15TMSVolumeEffect7GetTypeERi @ 124 NONAME
	_ZN3TMS15TMSVolumeEffect8GetLevelERj @ 125 NONAME
	_ZN3TMS15TMSVolumeEffect8SetLevelEj @ 126 NONAME
	_ZN3TMS15TMSVolumeEffectC1Ev @ 127 NONAME
	_ZN3TMS15TMSVolumeEffectC2Ev @ 128 NONAME
	_ZN3TMS15TMSVolumeEffectD0Ev @ 129 NONAME
	_ZN3TMS15TMSVolumeEffectD1Ev @ 130 NONAME
	_ZN3TMS15TMSVolumeEffectD2Ev @ 131 NONAME
	_ZN3TMS16TMSGlobalRouting11AddObserverERNS_24TMSGlobalRoutingObserverEPv @ 132 NONAME
	_ZN3TMS16TMSGlobalRouting14RemoveObserverERNS_24TMSGlobalRoutingObserverE @ 133 NONAME
	_ZN3TMS16TMSGlobalRouting17GetPreviousOutputERi @ 134 NONAME
	_ZN3TMS16TMSGlobalRouting19GetAvailableOutputsERSt6vectorIjSaIjEE @ 135 NONAME
	_ZN3TMS16TMSGlobalRouting9GetOutputERi @ 136 NONAME
	_ZN3TMS16TMSGlobalRouting9SetOutputEi @ 137 NONAME
	_ZN3TMS16TMSGlobalRoutingC1Ev @ 138 NONAME
	_ZN3TMS16TMSGlobalRoutingC2Ev @ 139 NONAME
	_ZN3TMS16TMSGlobalRoutingD0Ev @ 140 NONAME
	_ZN3TMS16TMSGlobalRoutingD1Ev @ 141 NONAME
	_ZN3TMS16TMSGlobalRoutingD2Ev @ 142 NONAME
	_ZN3TMS18TMSGlobalVolEffect11AddObserverERNS_17TMSEffectObserverEPv @ 143 NONAME
	_ZN3TMS18TMSGlobalVolEffect11GetMaxLevelERj @ 144 NONAME
	_ZN3TMS18TMSGlobalVolEffect14RemoveObserverERNS_17TMSEffectObserverE @ 145 NONAME
	_ZN3TMS18TMSGlobalVolEffect7GetTypeERi @ 146 NONAME
	_ZN3TMS18TMSGlobalVolEffect8GetLevelERj @ 147 NONAME
	_ZN3TMS18TMSGlobalVolEffect8SetLevelEj @ 148 NONAME
	_ZN3TMS18TMSGlobalVolEffectC1Ev @ 149 NONAME
	_ZN3TMS18TMSGlobalVolEffectC2Ev @ 150 NONAME
	_ZN3TMS18TMSGlobalVolEffectD0Ev @ 151 NONAME
	_ZN3TMS18TMSGlobalVolEffectD1Ev @ 152 NONAME
	_ZN3TMS18TMSGlobalVolEffectD2Ev @ 153 NONAME
	_ZN3TMS19TMSGlobalGainEffect11AddObserverERNS_17TMSEffectObserverEPv @ 154 NONAME
	_ZN3TMS19TMSGlobalGainEffect11GetMaxLevelERj @ 155 NONAME
	_ZN3TMS19TMSGlobalGainEffect14RemoveObserverERNS_17TMSEffectObserverE @ 156 NONAME
	_ZN3TMS19TMSGlobalGainEffect7GetTypeERi @ 157 NONAME
	_ZN3TMS19TMSGlobalGainEffect8GetLevelERj @ 158 NONAME
	_ZN3TMS19TMSGlobalGainEffect8SetLevelEj @ 159 NONAME
	_ZN3TMS19TMSGlobalGainEffectC1Ev @ 160 NONAME
	_ZN3TMS19TMSGlobalGainEffectC2Ev @ 161 NONAME
	_ZN3TMS19TMSGlobalGainEffectD0Ev @ 162 NONAME
	_ZN3TMS19TMSGlobalGainEffectD1Ev @ 163 NONAME
	_ZN3TMS19TMSGlobalGainEffectD2Ev @ 164 NONAME
	_ZN3TMS7TMSCall11GetCallTypeEv @ 165 NONAME
	_ZN3TMS7TMSCall12CreateStreamEiRPNS_9TMSStreamE @ 166 NONAME
	_ZN3TMS7TMSCall12DeleteStreamERPNS_9TMSStreamE @ 167 NONAME
	_ZN3TMS7TMSCall16GetCallContextIdERj @ 168 NONAME
	_ZN3TMS7TMSCallC1Ev @ 169 NONAME
	_ZN3TMS7TMSCallC2Ev @ 170 NONAME
	_ZN3TMS7TMSCallD0Ev @ 171 NONAME
	_ZN3TMS7TMSCallD1Ev @ 172 NONAME
	_ZN3TMS7TMSCallD2Ev @ 173 NONAME
	_ZN3TMS7TMSDTMF11AddObserverERNS_15TMSDTMFObserverEPv @ 174 NONAME
	_ZN3TMS7TMSDTMF14RemoveObserverERNS_15TMSDTMFObserverE @ 175 NONAME
	_ZN3TMS7TMSDTMF25ContinueDTMFStringSendingEi @ 176 NONAME
	_ZN3TMS7TMSDTMF4StopEv @ 177 NONAME
	_ZN3TMS7TMSDTMF5StartEv @ 178 NONAME
	_ZN3TMS7TMSDTMF7SetToneEP8_GString @ 179 NONAME
	_ZN3TMS7TMSDTMFC1Ev @ 180 NONAME
	_ZN3TMS7TMSDTMFC2Ev @ 181 NONAME
	_ZN3TMS7TMSDTMFD0Ev @ 182 NONAME
	_ZN3TMS7TMSDTMFD1Ev @ 183 NONAME
	_ZN3TMS7TMSDTMFD2Ev @ 184 NONAME
	_ZN3TMS9TMSFormat10GetBitRateERj @ 185 NONAME
	_ZN3TMS9TMSFormat10SetBitRateEj @ 186 NONAME
	_ZN3TMS9TMSFormat20GetSupportedBitRatesERSt6vectorIjSaIjEE @ 187 NONAME
	_ZN3TMS9TMSFormat7GetTypeERi @ 188 NONAME
	_ZN3TMS9TMSFormatC1Ev @ 189 NONAME
	_ZN3TMS9TMSFormatC2Ev @ 190 NONAME
	_ZN3TMS9TMSFormatD0Ev @ 191 NONAME
	_ZN3TMS9TMSFormatD1Ev @ 192 NONAME
	_ZN3TMS9TMSFormatD2Ev @ 193 NONAME
	_ZN3TMS9TMSStream10RemoveSinkEPNS_7TMSSinkE @ 194 NONAME
	_ZN3TMS9TMSStream11AddObserverERNS_17TMSStreamObserverEPv @ 195 NONAME
	_ZN3TMS9TMSStream11GetStreamIdEv @ 196 NONAME
	_ZN3TMS9TMSStream11ResetFormatEPNS_9TMSFormatE @ 197 NONAME
	_ZN3TMS9TMSStream12RemoveEffectEPNS_9TMSEffectE @ 198 NONAME
	_ZN3TMS9TMSStream12RemoveSourceEPNS_9TMSSourceE @ 199 NONAME
	_ZN3TMS9TMSStream13GetStreamTypeEv @ 200 NONAME
	_ZN3TMS9TMSStream14RemoveObserverERNS_17TMSStreamObserverE @ 201 NONAME
	_ZN3TMS9TMSStream4InitEi @ 202 NONAME
	_ZN3TMS9TMSStream4StopEv @ 203 NONAME
	_ZN3TMS9TMSStream5PauseEv @ 204 NONAME
	_ZN3TMS9TMSStream5StartEi @ 205 NONAME
	_ZN3TMS9TMSStream6DeinitEv @ 206 NONAME
	_ZN3TMS9TMSStream7AddSinkEPNS_7TMSSinkE @ 207 NONAME
	_ZN3TMS9TMSStream8GetStateEv @ 208 NONAME
	_ZN3TMS9TMSStream9AddEffectEPNS_9TMSEffectE @ 209 NONAME
	_ZN3TMS9TMSStream9AddSourceEPNS_9TMSSourceE @ 210 NONAME
	_ZN3TMS9TMSStream9SetFormatEPNS_9TMSFormatE @ 211 NONAME
	_ZN3TMS9TMSStreamC1Ev @ 212 NONAME
	_ZN3TMS9TMSStreamC2Ev @ 213 NONAME
	_ZN3TMS9TMSStreamD1Ev @ 214 NONAME
	_ZN3TMS9TMSStreamD2Ev @ 215 NONAME
	_ZTIN3TMS11TMSRingToneE @ 216 NONAME
	_ZTIN3TMS12TMSAMRFormatE @ 217 NONAME
	_ZTIN3TMS12TMSMicSourceE @ 218 NONAME
	_ZTIN3TMS12TMSModemSinkE @ 219 NONAME
	_ZTIN3TMS12TMSPCMFormatE @ 220 NONAME
	_ZTIN3TMS13TMSClientSinkE @ 221 NONAME
	_ZTIN3TMS13TMSG711FormatE @ 222 NONAME
	_ZTIN3TMS13TMSG729FormatE @ 223 NONAME
	_ZTIN3TMS13TMSGainEffectE @ 224 NONAME
	_ZTIN3TMS13TMSILBCFormatE @ 225 NONAME
	_ZTIN3TMS13TMSInbandToneE @ 226 NONAME
	_ZTIN3TMS14TMSModemSourceE @ 227 NONAME
	_ZTIN3TMS14TMSSpeakerSinkE @ 228 NONAME
	_ZTIN3TMS15TMSClientSourceE @ 229 NONAME
	_ZTIN3TMS15TMSVolumeEffectE @ 230 NONAME
	_ZTIN3TMS16TMSGlobalRoutingE @ 231 NONAME
	_ZTIN3TMS18TMSGlobalVolEffectE @ 232 NONAME
	_ZTIN3TMS19TMSGlobalGainEffectE @ 233 NONAME
	_ZTIN3TMS7TMSCallE @ 234 NONAME
	_ZTIN3TMS7TMSDTMFE @ 235 NONAME
	_ZTIN3TMS9TMSFormatE @ 236 NONAME
	_ZTVN3TMS11TMSRingToneE @ 237 NONAME
	_ZTVN3TMS12TMSAMRFormatE @ 238 NONAME
	_ZTVN3TMS12TMSMicSourceE @ 239 NONAME
	_ZTVN3TMS12TMSModemSinkE @ 240 NONAME
	_ZTVN3TMS12TMSPCMFormatE @ 241 NONAME
	_ZTVN3TMS13TMSClientSinkE @ 242 NONAME
	_ZTVN3TMS13TMSG711FormatE @ 243 NONAME
	_ZTVN3TMS13TMSG729FormatE @ 244 NONAME
	_ZTVN3TMS13TMSGainEffectE @ 245 NONAME
	_ZTVN3TMS13TMSILBCFormatE @ 246 NONAME
	_ZTVN3TMS13TMSInbandToneE @ 247 NONAME
	_ZTVN3TMS14TMSModemSourceE @ 248 NONAME
	_ZTVN3TMS14TMSSpeakerSinkE @ 249 NONAME
	_ZTVN3TMS15TMSClientSourceE @ 250 NONAME
	_ZTVN3TMS15TMSVolumeEffectE @ 251 NONAME
	_ZTVN3TMS16TMSGlobalRoutingE @ 252 NONAME
	_ZTVN3TMS18TMSGlobalVolEffectE @ 253 NONAME
	_ZTVN3TMS19TMSGlobalGainEffectE @ 254 NONAME
	_ZTVN3TMS7TMSCallE @ 255 NONAME
	_ZTVN3TMS7TMSDTMFE @ 256 NONAME
	_ZTVN3TMS9TMSFormatE @ 257 NONAME

