EXPORTS
	_Z9LibEntryLR13CTestModuleIf @ 1 NONAME
	_ZTI13CSearchResult @ 2 NONAME ; #<TI>#
	_ZTI14CActiveLmEvent @ 3 NONAME ; #<TI>#
	_ZTI15CRecognizerData @ 4 NONAME ; #<TI>#
	_ZTI17CAreaSearchResult @ 5 NONAME ; #<TI>#
	_ZTI17CSearchResultBase @ 6 NONAME ; #<TI>#
	_ZTI18CActiveLmOperation @ 7 NONAME ; #<TI>#
	_ZTI19CTP116ActiveLmEvent @ 8 NONAME ; #<TI>#
	_ZTI19CTP117ActiveLmEvent @ 9 NONAME ; #<TI>#
	_ZTI20CMatchIteratorTester @ 10 NONAME ; #<TI>#
	_ZTI20CNearestSearchResult @ 11 NONAME ; #<TI>#
	_ZTI21CCategorySearchResult @ 12 NONAME ; #<TI>#
	_ZTI22CCompositeSearchResult @ 13 NONAME ; #<TI>#
	_ZTI24CNearestSearchResultTp35 @ 14 NONAME ; #<TI>#
	_ZTI26CLandmarkTestProcedureBase @ 15 NONAME ; #<TI>#
	_ZTI29CCategoryLandmarkSearchResult @ 16 NONAME ; #<TI>#
	_ZTI7CPosTp1 @ 17 NONAME ; #<TI>#
	_ZTI7CPosTp3 @ 18 NONAME ; #<TI>#
	_ZTI7CPosTp4 @ 19 NONAME ; #<TI>#
	_ZTI7CPosTp5 @ 20 NONAME ; #<TI>#
	_ZTI7CPosTp6 @ 21 NONAME ; #<TI>#
	_ZTI7CPosTp7 @ 22 NONAME ; #<TI>#
	_ZTI7CPosTp8 @ 23 NONAME ; #<TI>#
	_ZTI7CPosTp9 @ 24 NONAME ; #<TI>#
	_ZTI8CPosTp10 @ 25 NONAME ; #<TI>#
	_ZTI8CPosTp11 @ 26 NONAME ; #<TI>#
	_ZTI8CPosTp12 @ 27 NONAME ; #<TI>#
	_ZTI8CPosTp13 @ 28 NONAME ; #<TI>#
	_ZTI8CPosTp18 @ 29 NONAME ; #<TI>#
	_ZTI8CPosTp19 @ 30 NONAME ; #<TI>#
	_ZTI8CPosTp20 @ 31 NONAME ; #<TI>#
	_ZTI8CPosTp21 @ 32 NONAME ; #<TI>#
	_ZTI8CPosTp23 @ 33 NONAME ; #<TI>#
	_ZTI8CPosTp24 @ 34 NONAME ; #<TI>#
	_ZTI8CPosTp25 @ 35 NONAME ; #<TI>#
	_ZTI8CPosTp26 @ 36 NONAME ; #<TI>#
	_ZTI8CPosTp28 @ 37 NONAME ; #<TI>#
	_ZTI8CPosTp35 @ 38 NONAME ; #<TI>#
	_ZTI8CPosTp36 @ 39 NONAME ; #<TI>#
	_ZTI8CPosTp37 @ 40 NONAME ; #<TI>#
	_ZTI8CPosTp38 @ 41 NONAME ; #<TI>#
	_ZTI8CPosTp42 @ 42 NONAME ; #<TI>#
	_ZTI8CPosTp43 @ 43 NONAME ; #<TI>#
	_ZTI8CPosTp44 @ 44 NONAME ; #<TI>#
	_ZTI8CPosTp45 @ 45 NONAME ; #<TI>#
	_ZTI8CPosTp47 @ 46 NONAME ; #<TI>#
	_ZTI8CPosTp48 @ 47 NONAME ; #<TI>#
	_ZTI8CPosTp51 @ 48 NONAME ; #<TI>#
	_ZTI8CPosTp52 @ 49 NONAME ; #<TI>#
	_ZTI9CPosTp100 @ 50 NONAME ; #<TI>#
	_ZTI9CPosTp101 @ 51 NONAME ; #<TI>#
	_ZTI9CPosTp102 @ 52 NONAME ; #<TI>#
	_ZTI9CPosTp103 @ 53 NONAME ; #<TI>#
	_ZTI9CPosTp104 @ 54 NONAME ; #<TI>#
	_ZTI9CPosTp116 @ 55 NONAME ; #<TI>#
	_ZTI9CPosTp117 @ 56 NONAME ; #<TI>#
	_ZTI9CPosTp120 @ 57 NONAME ; #<TI>#
	_ZTI9CPosTp121 @ 58 NONAME ; #<TI>#
	_ZTI9CPosTp122 @ 59 NONAME ; #<TI>#
	_ZTI9CPosTp123 @ 60 NONAME ; #<TI>#
	_ZTI9CPosTp124 @ 61 NONAME ; #<TI>#
	_ZTI9CPosTp125 @ 62 NONAME ; #<TI>#
	_ZTI9CPosTp126 @ 63 NONAME ; #<TI>#
	_ZTI9CPosTp130 @ 64 NONAME ; #<TI>#
	_ZTI9CPosTp131 @ 65 NONAME ; #<TI>#
	_ZTI9CPosTp132 @ 66 NONAME ; #<TI>#
	_ZTI9CPosTp133 @ 67 NONAME ; #<TI>#
	_ZTI9CPosTp134 @ 68 NONAME ; #<TI>#
	_ZTI9CPosTp135 @ 69 NONAME ; #<TI>#
	_ZTI9CPosTp136 @ 70 NONAME ; #<TI>#
	_ZTI9CPosTp137 @ 71 NONAME ; #<TI>#
	_ZTI9CPosTp141 @ 72 NONAME ; #<TI>#
	_ZTIN26CLandmarkTestProcedureBase15COnTheFlyTesterE @ 73 NONAME ; #<TI>#
	_ZTV13CSearchResult @ 74 NONAME ; #<VT>#
	_ZTV14CActiveLmEvent @ 75 NONAME ; #<VT>#
	_ZTV15CRecognizerData @ 76 NONAME ; #<VT>#
	_ZTV17CAreaSearchResult @ 77 NONAME ; #<VT>#
	_ZTV17CSearchResultBase @ 78 NONAME ; #<VT>#
	_ZTV18CActiveLmOperation @ 79 NONAME ; #<VT>#
	_ZTV19CTP116ActiveLmEvent @ 80 NONAME ; #<VT>#
	_ZTV19CTP117ActiveLmEvent @ 81 NONAME ; #<VT>#
	_ZTV20CMatchIteratorTester @ 82 NONAME ; #<VT>#
	_ZTV20CNearestSearchResult @ 83 NONAME ; #<VT>#
	_ZTV21CCategorySearchResult @ 84 NONAME ; #<VT>#
	_ZTV22CCompositeSearchResult @ 85 NONAME ; #<VT>#
	_ZTV24CNearestSearchResultTp35 @ 86 NONAME ; #<VT>#
	_ZTV26CLandmarkTestProcedureBase @ 87 NONAME ; #<VT>#
	_ZTV29CCategoryLandmarkSearchResult @ 88 NONAME ; #<VT>#
	_ZTV7CPosTp1 @ 89 NONAME ; #<VT>#
	_ZTV7CPosTp3 @ 90 NONAME ; #<VT>#
	_ZTV7CPosTp4 @ 91 NONAME ; #<VT>#
	_ZTV7CPosTp5 @ 92 NONAME ; #<VT>#
	_ZTV7CPosTp6 @ 93 NONAME ; #<VT>#
	_ZTV7CPosTp7 @ 94 NONAME ; #<VT>#
	_ZTV7CPosTp8 @ 95 NONAME ; #<VT>#
	_ZTV7CPosTp9 @ 96 NONAME ; #<VT>#
	_ZTV8CPosTp10 @ 97 NONAME ; #<VT>#
	_ZTV8CPosTp11 @ 98 NONAME ; #<VT>#
	_ZTV8CPosTp12 @ 99 NONAME ; #<VT>#
	_ZTV8CPosTp13 @ 100 NONAME ; #<VT>#
	_ZTV8CPosTp18 @ 101 NONAME ; #<VT>#
	_ZTV8CPosTp19 @ 102 NONAME ; #<VT>#
	_ZTV8CPosTp20 @ 103 NONAME ; #<VT>#
	_ZTV8CPosTp21 @ 104 NONAME ; #<VT>#
	_ZTV8CPosTp23 @ 105 NONAME ; #<VT>#
	_ZTV8CPosTp24 @ 106 NONAME ; #<VT>#
	_ZTV8CPosTp25 @ 107 NONAME ; #<VT>#
	_ZTV8CPosTp26 @ 108 NONAME ; #<VT>#
	_ZTV8CPosTp28 @ 109 NONAME ; #<VT>#
	_ZTV8CPosTp35 @ 110 NONAME ; #<VT>#
	_ZTV8CPosTp36 @ 111 NONAME ; #<VT>#
	_ZTV8CPosTp37 @ 112 NONAME ; #<VT>#
	_ZTV8CPosTp38 @ 113 NONAME ; #<VT>#
	_ZTV8CPosTp42 @ 114 NONAME ; #<VT>#
	_ZTV8CPosTp43 @ 115 NONAME ; #<VT>#
	_ZTV8CPosTp44 @ 116 NONAME ; #<VT>#
	_ZTV8CPosTp45 @ 117 NONAME ; #<VT>#
	_ZTV8CPosTp47 @ 118 NONAME ; #<VT>#
	_ZTV8CPosTp48 @ 119 NONAME ; #<VT>#
	_ZTV8CPosTp51 @ 120 NONAME ; #<VT>#
	_ZTV8CPosTp52 @ 121 NONAME ; #<VT>#
	_ZTV9CPosTp100 @ 122 NONAME ; #<VT>#
	_ZTV9CPosTp101 @ 123 NONAME ; #<VT>#
	_ZTV9CPosTp102 @ 124 NONAME ; #<VT>#
	_ZTV9CPosTp103 @ 125 NONAME ; #<VT>#
	_ZTV9CPosTp104 @ 126 NONAME ; #<VT>#
	_ZTV9CPosTp116 @ 127 NONAME ; #<VT>#
	_ZTV9CPosTp117 @ 128 NONAME ; #<VT>#
	_ZTV9CPosTp120 @ 129 NONAME ; #<VT>#
	_ZTV9CPosTp121 @ 130 NONAME ; #<VT>#
	_ZTV9CPosTp122 @ 131 NONAME ; #<VT>#
	_ZTV9CPosTp123 @ 132 NONAME ; #<VT>#
	_ZTV9CPosTp124 @ 133 NONAME ; #<VT>#
	_ZTV9CPosTp125 @ 134 NONAME ; #<VT>#
	_ZTV9CPosTp126 @ 135 NONAME ; #<VT>#
	_ZTV9CPosTp130 @ 136 NONAME ; #<VT>#
	_ZTV9CPosTp131 @ 137 NONAME ; #<VT>#
	_ZTV9CPosTp132 @ 138 NONAME ; #<VT>#
	_ZTV9CPosTp133 @ 139 NONAME ; #<VT>#
	_ZTV9CPosTp134 @ 140 NONAME ; #<VT>#
	_ZTV9CPosTp135 @ 141 NONAME ; #<VT>#
	_ZTV9CPosTp136 @ 142 NONAME ; #<VT>#
	_ZTV9CPosTp137 @ 143 NONAME ; #<VT>#
	_ZTV9CPosTp141 @ 144 NONAME ; #<VT>#
	_ZTVN26CLandmarkTestProcedureBase15COnTheFlyTesterE @ 145 NONAME ; #<VT>#
	_ZTI7CPosTp2 @ 146 NONAME
	_ZTI9CPosTp106 @ 147 NONAME
	_ZTI9CPosTp118 @ 148 NONAME
	_ZTI9CPosTp119 @ 149 NONAME
	_ZTI9CPosTp143 @ 150 NONAME
	_ZTI9CPosTp144 @ 151 NONAME
	_ZTI9CPosTp145 @ 152 NONAME
	_ZTI9CPosTp146 @ 153 NONAME
	_ZTI9CPosTp147 @ 154 NONAME
	_ZTI9CPosTp148 @ 155 NONAME
	_ZTI9CPosTp149 @ 156 NONAME
	_ZTI9CPosTp150 @ 157 NONAME
	_ZTI9CPosTp151 @ 158 NONAME
	_ZTI9CPosTp152 @ 159 NONAME
	_ZTI9CPosTp153 @ 160 NONAME
	_ZTI9CPosTp154 @ 161 NONAME
	_ZTI9CPosTp155 @ 162 NONAME
	_ZTI9CPosTp156 @ 163 NONAME
	_ZTI9CPosTp157 @ 164 NONAME
	_ZTI9CPosTp158 @ 165 NONAME
	_ZTI9CPosTp159 @ 166 NONAME
	_ZTI9CPosTp160 @ 167 NONAME
	_ZTI9CPosTp161 @ 168 NONAME
	_ZTI9CPosTp162 @ 169 NONAME
	_ZTI9CPosTp163 @ 170 NONAME
	_ZTI9CPosTp164 @ 171 NONAME
	_ZTV7CPosTp2 @ 172 NONAME
	_ZTV9CPosTp106 @ 173 NONAME
	_ZTV9CPosTp118 @ 174 NONAME
	_ZTV9CPosTp119 @ 175 NONAME
	_ZTV9CPosTp143 @ 176 NONAME
	_ZTV9CPosTp144 @ 177 NONAME
	_ZTV9CPosTp145 @ 178 NONAME
	_ZTV9CPosTp146 @ 179 NONAME
	_ZTV9CPosTp147 @ 180 NONAME
	_ZTV9CPosTp148 @ 181 NONAME
	_ZTV9CPosTp149 @ 182 NONAME
	_ZTV9CPosTp150 @ 183 NONAME
	_ZTV9CPosTp151 @ 184 NONAME
	_ZTV9CPosTp152 @ 185 NONAME
	_ZTV9CPosTp153 @ 186 NONAME
	_ZTV9CPosTp154 @ 187 NONAME
	_ZTV9CPosTp155 @ 188 NONAME
	_ZTV9CPosTp156 @ 189 NONAME
	_ZTV9CPosTp157 @ 190 NONAME
	_ZTV9CPosTp158 @ 191 NONAME
	_ZTV9CPosTp159 @ 192 NONAME
	_ZTV9CPosTp160 @ 193 NONAME
	_ZTV9CPosTp161 @ 194 NONAME
	_ZTV9CPosTp162 @ 195 NONAME
	_ZTV9CPosTp163 @ 196 NONAME
	_ZTV9CPosTp164 @ 197 NONAME

