EXPORTS
	?DeleteFormat@TMSFactory@TMS@@QAEHAAPAVTMSFormat@2@@Z @ 1 NONAME ; int TMS::TMSFactory::DeleteFormat(class TMS::TMSFormat * &)
	?DeleteDTMF@TMSFactory@TMS@@QAEHAAPAVTMSDTMF@2@@Z @ 2 NONAME ; int TMS::TMSFactory::DeleteDTMF(class TMS::TMSDTMF * &)
	?DeleteSource@TMSFactory@TMS@@QAEHAAPAVTMSSource@2@@Z @ 3 NONAME ; int TMS::TMSFactory::DeleteSource(class TMS::TMSSource * &)
	?DeleteEffect@TMSFactory@TMS@@QAEHAAPAVTMSEffect@2@@Z @ 4 NONAME ; int TMS::TMSFactory::DeleteEffect(class TMS::TMSEffect * &)
	?CreateInbandTonePlayer@TMSFactory@TMS@@QAEHAAPAVTMSInbandTone@2@@Z @ 5 NONAME ; int TMS::TMSFactory::CreateInbandTonePlayer(class TMS::TMSInbandTone * &)
	?CreateBuffer@TMSFactory@TMS@@QAEHHIAAPAVTMSBuffer@2@@Z @ 6 NONAME ; int TMS::TMSFactory::CreateBuffer(int, unsigned int, class TMS::TMSBuffer * &)
	?CreateEffect@TMSFactory@TMS@@QAEHHAAPAVTMSEffect@2@@Z @ 7 NONAME ; int TMS::TMSFactory::CreateEffect(int, class TMS::TMSEffect * &)
	?CreateRingTonePlayer@TMSFactory@TMS@@QAEHAAPAVTMSRingTone@2@@Z @ 8 NONAME ; int TMS::TMSFactory::CreateRingTonePlayer(class TMS::TMSRingTone * &)
	?IsCallTypeSupported@TMSFactory@TMS@@QAEHHAAH@Z @ 9 NONAME ; int TMS::TMSFactory::IsCallTypeSupported(int, int &)
	?DeleteBuffer@TMSFactory@TMS@@QAEHAAPAVTMSBuffer@2@@Z @ 10 NONAME ; int TMS::TMSFactory::DeleteBuffer(class TMS::TMSBuffer * &)
	?CreateCall@TMSFactory@TMS@@QAEHHAAPAVTMSCall@2@I@Z @ 11 NONAME ; int TMS::TMSFactory::CreateCall(int, class TMS::TMSCall * &, unsigned int)
	?CreateSource@TMSFactory@TMS@@QAEHHAAPAVTMSSource@2@@Z @ 12 NONAME ; int TMS::TMSFactory::CreateSource(int, class TMS::TMSSource * &)
	?CreateGlobalRouting@TMSFactory@TMS@@QAEHAAPAVTMSGlobalRouting@2@@Z @ 13 NONAME ; int TMS::TMSFactory::CreateGlobalRouting(class TMS::TMSGlobalRouting * &)
	?CreateDTMF@TMSFactory@TMS@@QAEHHAAPAVTMSDTMF@2@@Z @ 14 NONAME ; int TMS::TMSFactory::CreateDTMF(int, class TMS::TMSDTMF * &)
	?DeleteCall@TMSFactory@TMS@@QAEHAAPAVTMSCall@2@@Z @ 15 NONAME ; int TMS::TMSFactory::DeleteCall(class TMS::TMSCall * &)
	?CreateSink@TMSFactory@TMS@@QAEHHAAPAVTMSSink@2@@Z @ 16 NONAME ; int TMS::TMSFactory::CreateSink(int, class TMS::TMSSink * &)
	?CreateFactory@TMSFactory@TMS@@SAHAAPAV12@AAVTMSVer@2@@Z @ 17 NONAME ; int TMS::TMSFactory::CreateFactory(class TMS::TMSFactory * &, class TMS::TMSVer &)
	?CreateRingTonePlayer@TMSFactory@TMS@@QAEHAAPAVTMSRingTone@2@AAVRWindow@@H@Z @ 18 NONAME ; int TMS::TMSFactory::CreateRingTonePlayer(class TMS::TMSRingTone * &, class RWindow &, int)
	?DeleteInbandTonePlayer@TMSFactory@TMS@@QAEHAAPAVTMSInbandTone@2@@Z @ 19 NONAME ; int TMS::TMSFactory::DeleteInbandTonePlayer(class TMS::TMSInbandTone * &)
	?DeleteSink@TMSFactory@TMS@@QAEHAAPAVTMSSink@2@@Z @ 20 NONAME ; int TMS::TMSFactory::DeleteSink(class TMS::TMSSink * &)
	?GetSupportedFormats@TMSFactory@TMS@@QAEHHAAV?$vector@PAVTMSFormat@TMS@@V?$allocator@PAVTMSFormat@TMS@@@std@@@std@@@Z @ 21 NONAME ; int TMS::TMSFactory::GetSupportedFormats(int, class std::vector<class TMS::TMSFormat *, class std::allocator<class TMS::TMSFormat *> > &)
	??1TMSFactory@TMS@@UAE@XZ @ 22 NONAME ; TMS::TMSFactory::~TMSFactory(void)
	?DeleteGlobalRouting@TMSFactory@TMS@@QAEHAAPAVTMSGlobalRouting@2@@Z @ 23 NONAME ; int TMS::TMSFactory::DeleteGlobalRouting(class TMS::TMSGlobalRouting * &)
	?DeleteRingTonePlayer@TMSFactory@TMS@@QAEHAAPAVTMSRingTone@2@@Z @ 24 NONAME ; int TMS::TMSFactory::DeleteRingTonePlayer(class TMS::TMSRingTone * &)
	?CreateFormat@TMSFactory@TMS@@QAEHHAAPAVTMSFormat@2@@Z @ 25 NONAME ; int TMS::TMSFactory::CreateFormat(int, class TMS::TMSFormat * &)
	?CreateRTPSession@TMSFactory@TMS@@QAEHAAPAVTMSRTPSession@2@PAEI@Z @ 26 NONAME ; int TMS::TMSFactory::CreateRTPSession(class TMS::TMSRTPSession * &, unsigned char *, unsigned int)
	?DeleteRTPSession@TMSFactory@TMS@@QAEHAAPAVTMSRTPSession@2@@Z @ 27 NONAME ; int TMS::TMSFactory::DeleteRTPSession(class TMS::TMSRTPSession * &)

