EXPORTS
	??1CPosLmLocalDbAccess@@UAE@XZ @ 1 NONAME ; CPosLmLocalDbAccess::~CPosLmLocalDbAccess(void)
	??1CPosLmResourceReader@@UAE@XZ @ 2 NONAME ; CPosLmResourceReader::~CPosLmResourceReader(void)
	?AddCategoriesToLandmarkL@PosLmLandmarkHandler@@SAXAAVCPosLmLocalDbAccess@@ABV?$RArray@K@@ABK@Z @ 3 NONAME ; void PosLmLandmarkHandler::AddCategoriesToLandmarkL(class CPosLmLocalDbAccess &, class RArray<unsigned long> const &, unsigned long const &)
	?AddCategoryL@PosLmCategoryHandler@@SAXAAVCPosLmLocalDbAccess@@AAVCPosLandmarkCategory@@@Z @ 4 NONAME ; void PosLmCategoryHandler::AddCategoryL(class CPosLmLocalDbAccess &, class CPosLandmarkCategory &)
	?AddLandmarkL@PosLmLandmarkHandler@@SAXAAVCPosLmLocalDbAccess@@AAVCPosLandmark@@@Z @ 5 NONAME ; void PosLmLandmarkHandler::AddLandmarkL(class CPosLmLocalDbAccess &, class CPosLandmark &)
	?BeginTransaction@CPosLmLocalDbAccess@@QAEHXZ @ 6 NONAME ; int CPosLmLocalDbAccess::BeginTransaction(void)
	?BeginTransactionLC@CPosLmLocalDbAccess@@QAEXXZ @ 7 NONAME ; void CPosLmLocalDbAccess::BeginTransactionLC(void)
	?CancelNotifySettingsChanged@CPosLmSettingsHandler@@QAEHXZ @ 8 NONAME ; int CPosLmSettingsHandler::CancelNotifySettingsChanged(void)
	?CommitTransaction@CPosLmLocalDbAccess@@QAEHXZ @ 9 NONAME ; int CPosLmLocalDbAccess::CommitTransaction(void)
	?CommitTransactionAndPopL@CPosLmLocalDbAccess@@QAEXXZ @ 10 NONAME ; void CPosLmLocalDbAccess::CommitTransactionAndPopL(void)
	?Count@CPosLmGlobalCategoryReader@@QAEHXZ @ 11 NONAME ; int CPosLmGlobalCategoryReader::Count(void)
	?CreateDatabaseUriL@PosLmDatabaseUtility@@SAPAVHBufC16@@ABVTDesC16@@@Z @ 12 NONAME ; class HBufC16 * PosLmDatabaseUtility::CreateDatabaseUriL(class TDesC16 const &)
	?DiskSpaceBelowCriticalLevelL@CPosLmDiskUtilities@@QAEXHVTChar@@@Z @ 13 NONAME ; void CPosLmDiskUtilities::DiskSpaceBelowCriticalLevelL(int, class TChar)
	?EmbedSingleQuoteCharactersLC@PosLmDatabaseUtility@@SAPAVHBufC16@@ABVTDesC16@@@Z @ 14 NONAME ; class HBufC16 * PosLmDatabaseUtility::EmbedSingleQuoteCharactersLC(class TDesC16 const &)
	?EstimatedDiskSizeOfEmptyDatabase@CPosLmDiskUtilities@@QAEHXZ @ 15 NONAME ; int CPosLmDiskUtilities::EstimatedDiskSizeOfEmptyDatabase(void)
	?EstimatedDiskSizeOfLmCatOperation@CPosLmDiskUtilities@@QAEHW4TLmOperation@1@AAKABV?$RArray@K@@@Z @ 16 NONAME ; int CPosLmDiskUtilities::EstimatedDiskSizeOfLmCatOperation(enum CPosLmDiskUtilities::TLmOperation, unsigned long &, class RArray<unsigned long> const &)
	?EstimatedDiskSizeOfLmOperation@CPosLmDiskUtilities@@QAEHW4TLmOperation@1@ABK@Z @ 17 NONAME ; int CPosLmDiskUtilities::EstimatedDiskSizeOfLmOperation(enum CPosLmDiskUtilities::TLmOperation, unsigned long const &)
	?EstimatedDiskSizeOfLmOperation@CPosLmDiskUtilities@@QAEHW4TLmOperation@1@ABV?$RArray@K@@@Z @ 18 NONAME ; int CPosLmDiskUtilities::EstimatedDiskSizeOfLmOperation(enum CPosLmDiskUtilities::TLmOperation, class RArray<unsigned long> const &)
	?EstimatedDiskSizeOfLmOperation@CPosLmDiskUtilities@@QAEHW4TLmOperation@1@ABVCPosLandmark@@@Z @ 19 NONAME ; int CPosLmDiskUtilities::EstimatedDiskSizeOfLmOperation(enum CPosLmDiskUtilities::TLmOperation, class CPosLandmark const &)
	?EstimatedDiskSizeOfLmOperation@CPosLmDiskUtilities@@QAEHW4TLmOperation@1@ABVCPosLandmarkCategory@@@Z @ 20 NONAME ; int CPosLmDiskUtilities::EstimatedDiskSizeOfLmOperation(enum CPosLmDiskUtilities::TLmOperation, class CPosLandmarkCategory const &)
	?ExecuteL@CPosLmLocalDbAccess@@QAEXABVTDesC16@@@Z @ 21 NONAME ; void CPosLmLocalDbAccess::ExecuteL(class TDesC16 const &)
	?FindCategoryL@PosLmCategoryHandler@@SAHAAVCPosLmLocalDbAccess@@K@Z @ 22 NONAME ; int PosLmCategoryHandler::FindCategoryL(class CPosLmLocalDbAccess &, unsigned long)
	?GetAllCategoryIdsL@PosLmCategoryHandler@@SAXAAVCPosLmLocalDbAccess@@W4TCategorySortPref@CPosLmCategoryManager@@AAV?$RArray@K@@@Z @ 23 NONAME ; void PosLmCategoryHandler::GetAllCategoryIdsL(class CPosLmLocalDbAccess &, enum CPosLmCategoryManager::TCategorySortPref, class RArray<unsigned long> &)
	?GetAllLandmarkIdsL@PosLmLandmarkHandler@@SAXAAVCPosLmLocalDbAccess@@HHAAV?$RArray@K@@@Z @ 24 NONAME ; void PosLmLandmarkHandler::GetAllLandmarkIdsL(class CPosLmLocalDbAccess &, int, int, class RArray<unsigned long> &)
	?GetDatabase@CPosLmLocalDbAccess@@QAEXAAVRDbNamedDatabase@@@Z @ 25 NONAME ; void CPosLmLocalDbAccess::GetDatabase(class RDbNamedDatabase &)
	?GetDefaultDatabaseUriL@CPosLmSettingsHandler@@QAEPAVHBufC16@@XZ @ 26 NONAME ; class HBufC16 * CPosLmSettingsHandler::GetDefaultDatabaseUriL(void)
	?GetGlobalCategoriesL@PosLmCategoryHandler@@SAXAAVCPosLmLocalDbAccess@@ABV?$RArray@H@@AAV?$RArray@K@@@Z @ 27 NONAME ; void PosLmCategoryHandler::GetGlobalCategoriesL(class CPosLmLocalDbAccess &, class RArray<int> const &, class RArray<unsigned long> &)
	?GetReferencedCategoryIdsL@PosLmCategoryHandler@@SAXAAVCPosLmLocalDbAccess@@W4TCategorySortPref@CPosLmCategoryManager@@AAV?$RArray@K@@@Z @ 28 NONAME ; void PosLmCategoryHandler::GetReferencedCategoryIdsL(class CPosLmLocalDbAccess &, enum CPosLmCategoryManager::TCategorySortPref, class RArray<unsigned long> &)
	?GlobalCategoryLC@CPosLmGlobalCategoryReader@@QAEPAVCPosLandmarkCategory@@H@Z @ 29 NONAME ; class CPosLandmarkCategory * CPosLmGlobalCategoryReader::GlobalCategoryLC(int)
	?HasLandmarkSpecifiedCategoryL@PosLmLandmarkHandler@@SAHAAVCPosLmLocalDbAccess@@KK@Z @ 30 NONAME ; int PosLmLandmarkHandler::HasLandmarkSpecifiedCategoryL(class CPosLmLocalDbAccess &, unsigned long, unsigned long)
	?InTransaction@CPosLmLocalDbAccess@@QBEHXZ @ 31 NONAME ; int CPosLmLocalDbAccess::InTransaction(void) const
	?InitFlag@CPosLmLocalDbAccess@@QBEIXZ @ 32 NONAME ; unsigned int CPosLmLocalDbAccess::InitFlag(void) const
	?InitFlagPtr@CPosLmLocalDbAccess@@QAEPAIXZ @ 33 NONAME ; unsigned int * CPosLmLocalDbAccess::InitFlagPtr(void)
	?IsCompactNeededL@CPosLmLocalDbAccess@@QAEHXZ @ 34 NONAME ; int CPosLmLocalDbAccess::IsCompactNeededL(void)
	?IsDamaged@CPosLmLocalDbAccess@@QAEHXZ @ 35 NONAME ; int CPosLmLocalDbAccess::IsDamaged(void)
	?IsEqual@PosLmTrealCompare@@SAHMM@Z @ 36 NONAME ; int PosLmTrealCompare::IsEqual(float, float)
	?IsEqual@PosLmTrealCompare@@SAHNN@Z @ 37 NONAME ; int PosLmTrealCompare::IsEqual(double, double)
	?IsEqual@PosLmTrealCompare@@SAHVTRealX@@0@Z @ 38 NONAME ; int PosLmTrealCompare::IsEqual(class TRealX, class TRealX)
	?IsGlobalCategoryExistingL@PosLmCategoryHandler@@SAHAAVCPosLmLocalDbAccess@@GAAKAAH@Z @ 39 NONAME ; int PosLmCategoryHandler::IsGlobalCategoryExistingL(class CPosLmLocalDbAccess &, unsigned short, unsigned long &, int &)
	?IsInitializeNeededL@CPosLmLocalDbAccess@@QAEHAAH@Z @ 40 NONAME ; int CPosLmLocalDbAccess::IsInitializeNeededL(int &)
	?IsLanguageChangeNeededL@CPosLmLocalDbAccess@@QAEHAAH@Z @ 41 NONAME ; int CPosLmLocalDbAccess::IsLanguageChangeNeededL(int &)
	?LandmarkExistsL@PosLmLandmarkHandler@@SAHAAVCPosLmLocalDbAccess@@K@Z @ 42 NONAME ; int PosLmLandmarkHandler::LandmarkExistsL(class CPosLmLocalDbAccess &, unsigned long)
	?LoadResourceL@CPosLmResourceReader@@IAEXH@Z @ 43 NONAME ; void CPosLmResourceReader::LoadResourceL(int)
	?NewL@CPosLmCompactDatabase@@SAPAV1@AAVCPosLmLocalDbAccess@@@Z @ 44 NONAME ; class CPosLmCompactDatabase * CPosLmCompactDatabase::NewL(class CPosLmLocalDbAccess &)
	?NewL@CPosLmDiskUtilities@@SAPAV1@XZ @ 45 NONAME ; class CPosLmDiskUtilities * CPosLmDiskUtilities::NewL(void)
	?NewL@CPosLmGlobalCategoryReader@@SAPAV1@XZ @ 46 NONAME ; class CPosLmGlobalCategoryReader * CPosLmGlobalCategoryReader::NewL(void)
	?NewL@CPosLmLocalDbAccess@@SAPAV1@W4TCompactLevelType@1@@Z @ 47 NONAME ; class CPosLmLocalDbAccess * CPosLmLocalDbAccess::NewL(enum CPosLmLocalDbAccess::TCompactLevelType)
	?NewL@CPosLmSettingsHandler@@SAPAV1@XZ @ 48 NONAME ; class CPosLmSettingsHandler * CPosLmSettingsHandler::NewL(void)
	?NewLC@CPosLmResourceReader@@SAPAV1@ABVTDesC16@@@Z @ 49 NONAME ; class CPosLmResourceReader * CPosLmResourceReader::NewLC(class TDesC16 const &)
	?NextL@CPosLmCompactDatabase@@QAEHAAM@Z @ 50 NONAME ; int CPosLmCompactDatabase::NextL(float &)
	?NotifySettingsChanged@CPosLmSettingsHandler@@QAEHAAVTRequestStatus@@@Z @ 51 NONAME ; int CPosLmSettingsHandler::NotifySettingsChanged(class TRequestStatus &)
	?OpenDatabaseL@CPosLmLocalDbAccess@@QAEHABVTDesC16@@@Z @ 52 NONAME ; int CPosLmLocalDbAccess::OpenDatabaseL(class TDesC16 const &)
	?PrepareViewLC@CPosLmLocalDbAccess@@QAEXW4TPreparationType@1@AAVRDbView@@ABVTDesC16@@W4TDbTextComparison@@@Z @ 53 NONAME ; void CPosLmLocalDbAccess::PrepareViewLC(enum CPosLmLocalDbAccess::TPreparationType, class RDbView &, class TDesC16 const &, enum TDbTextComparison)
	?ReadCategoryL@PosLmCategoryHandler@@SAXAAVCPosLmLocalDbAccess@@AAVCPosLandmarkCategory@@@Z @ 54 NONAME ; void PosLmCategoryHandler::ReadCategoryL(class CPosLmLocalDbAccess &, class CPosLandmarkCategory &)
	?ReadHBufCL@CPosLmResourceReader@@QAEPAVHBufC16@@H@Z @ 55 NONAME ; class HBufC16 * CPosLmResourceReader::ReadHBufCL(int)
	?ReadInt16L@CPosLmResourceReader@@QAEHH@Z @ 56 NONAME ; int CPosLmResourceReader::ReadInt16L(int)
	?ReadInt32L@CPosLmResourceReader@@QAEHH@Z @ 57 NONAME ; int CPosLmResourceReader::ReadInt32L(int)
	?ReadLandmarkL@PosLmLandmarkHandler@@SAXAAVCPosLmLocalDbAccess@@AAVCPosLandmark@@@Z @ 58 NONAME ; void PosLmLandmarkHandler::ReadLandmarkL(class CPosLmLocalDbAccess &, class CPosLandmark &)
	?ReadPartialLandmarkL@PosLmLandmarkHandler@@SAXAAVCPosLmLocalDbAccess@@AAVCPosLandmark@@AAVCPosLmPartialReadParameters@@@Z @ 59 NONAME ; void PosLmLandmarkHandler::ReadPartialLandmarkL(class CPosLmLocalDbAccess &, class CPosLandmark &, class CPosLmPartialReadParameters &)
	?RemoveAllGlobalCategoriesL@PosLmCategoryHandler@@SAXAAVCPosLmLocalDbAccess@@@Z @ 60 NONAME ; void PosLmCategoryHandler::RemoveAllGlobalCategoriesL(class CPosLmLocalDbAccess &)
	?RemoveCategoryFromLandmarkL@PosLmLandmarkHandler@@SAXAAVCPosLmLocalDbAccess@@KK@Z @ 61 NONAME ; void PosLmLandmarkHandler::RemoveCategoryFromLandmarkL(class CPosLmLocalDbAccess &, unsigned long, unsigned long)
	?RemoveCategoryL@PosLmCategoryHandler@@SAXAAVCPosLmLocalDbAccess@@K@Z @ 62 NONAME ; void PosLmCategoryHandler::RemoveCategoryL(class CPosLmLocalDbAccess &, unsigned long)
	?RemoveLandmarkL@PosLmLandmarkHandler@@SAXAAVCPosLmLocalDbAccess@@K@Z @ 63 NONAME ; void PosLmLandmarkHandler::RemoveLandmarkL(class CPosLmLocalDbAccess &, unsigned long)
	?RemoveProtocolFromUriL@PosLmDatabaseUtility@@SAXAAVTPtrC16@@@Z @ 64 NONAME ; void PosLmDatabaseUtility::RemoveProtocolFromUriL(class TPtrC16 &)
	?ResetGlobalCategoryL@PosLmCategoryHandler@@SAXAAVCPosLmLocalDbAccess@@AAVCPosLandmarkCategory@@@Z @ 65 NONAME ; void PosLmCategoryHandler::ResetGlobalCategoryL(class CPosLmLocalDbAccess &, class CPosLandmarkCategory &)
	?ResetInitFlag@CPosLmLocalDbAccess@@QAEXXZ @ 66 NONAME ; void CPosLmLocalDbAccess::ResetInitFlag(void)
	?ResourceFileL@PosLmFileFinder@@SAHPAV?$TBuf@$0BAA@@@AAVRFs@@ABVTDesC16@@@Z @ 67 NONAME ; int PosLmFileFinder::ResourceFileL(class TBuf<256> *, class RFs &, class TDesC16 const &)
	?RollbackTransaction@CPosLmLocalDbAccess@@QAEXXZ @ 68 NONAME ; void CPosLmLocalDbAccess::RollbackTransaction(void)
	?SetDefaultDatabaseUriL@CPosLmSettingsHandler@@QAEXABVTDesC16@@@Z @ 69 NONAME ; void CPosLmSettingsHandler::SetDefaultDatabaseUriL(class TDesC16 const &)
	?SetInitializeDoneL@CPosLmLocalDbAccess@@QAEXXZ @ 70 NONAME ; void CPosLmLocalDbAccess::SetInitializeDoneL(void)
	?SetLanguageL@CPosLmLocalDbAccess@@QAEXW4TLanguage@@@Z @ 71 NONAME ; void CPosLmLocalDbAccess::SetLanguageL(enum TLanguage)
	?SizeL@CPosLmLocalDbAccess@@QAE?AUTSize@CPosLandmarkDatabase@@XZ @ 72 NONAME ; struct CPosLandmarkDatabase::TSize CPosLmLocalDbAccess::SizeL(void)
	?UpdateCategoryL@PosLmCategoryHandler@@SAXAAVCPosLmLocalDbAccess@@ABVCPosLandmarkCategory@@@Z @ 73 NONAME ; void PosLmCategoryHandler::UpdateCategoryL(class CPosLmLocalDbAccess &, class CPosLandmarkCategory const &)
	?UpdateGlobalCategoryNameL@PosLmCategoryHandler@@SAXAAVCPosLmLocalDbAccess@@ABVCPosLandmarkCategory@@@Z @ 74 NONAME ; void PosLmCategoryHandler::UpdateGlobalCategoryNameL(class CPosLmLocalDbAccess &, class CPosLandmarkCategory const &)
	?UpdateLandmarkL@PosLmLandmarkHandler@@SAXAAVCPosLmLocalDbAccess@@ABVCPosLandmark@@@Z @ 75 NONAME ; void PosLmLandmarkHandler::UpdateLandmarkL(class CPosLmLocalDbAccess &, class CPosLandmark const &)
	?ValidateDatabaseUri@PosLmDatabaseUtility@@SAHABVTDesC16@@@Z @ 76 NONAME ; int PosLmDatabaseUtility::ValidateDatabaseUri(class TDesC16 const &)
	?VerifyCategoryIsProperL@PosLmCategoryHandler@@SAXAAVCPosLmLocalDbAccess@@ABVCPosLandmarkCategory@@ABW4TCheckCategoryType@1@@Z @ 77 NONAME ; void PosLmCategoryHandler::VerifyCategoryIsProperL(class CPosLmLocalDbAccess &, class CPosLandmarkCategory const &, enum PosLmCategoryHandler::TCheckCategoryType const &)
	?VerifyCategoryNameNotExistsL@PosLmCategoryHandler@@SAHAAVCPosLmLocalDbAccess@@ABVCPosLandmarkCategory@@ABW4TCheckCategoryType@1@AAK@Z @ 78 NONAME ; int PosLmCategoryHandler::VerifyCategoryNameNotExistsL(class CPosLmLocalDbAccess &, class CPosLandmarkCategory const &, enum PosLmCategoryHandler::TCheckCategoryType const &, unsigned long &)
	?VerifyCategoryNameNotExistsL@PosLmCategoryHandler@@SAXAAVCPosLmLocalDbAccess@@ABVCPosLandmarkCategory@@ABW4TCheckCategoryType@1@@Z @ 79 NONAME ; void PosLmCategoryHandler::VerifyCategoryNameNotExistsL(class CPosLmLocalDbAccess &, class CPosLandmarkCategory const &, enum PosLmCategoryHandler::TCheckCategoryType const &)
	?VerifyGlobalCategoryUnchangedL@PosLmCategoryHandler@@SAXAAVCPosLmLocalDbAccess@@ABVCPosLandmarkCategory@@@Z @ 80 NONAME ; void PosLmCategoryHandler::VerifyGlobalCategoryUnchangedL(class CPosLmLocalDbAccess &, class CPosLandmarkCategory const &)
	?EstimatedDiskSizeOfIndex@CPosLmDiskUtilities@@QAEHW4TLmOperation@1@H@Z @ 81 NONAME ; int CPosLmDiskUtilities::EstimatedDiskSizeOfIndex(enum CPosLmDiskUtilities::TLmOperation, int)
	?GetTableRowCountL@PosLmDatabaseUtility@@SAIAAVCPosLmLocalDbAccess@@ABVTDesC16@@@Z @ 82 NONAME ; unsigned int PosLmDatabaseUtility::GetTableRowCountL(class CPosLmLocalDbAccess &, class TDesC16 const &)
	?IndexExistsL@PosLmDatabaseUtility@@SAHABVRDbNamedDatabase@@ABVTDesC16@@1@Z @ 83 NONAME ; int PosLmDatabaseUtility::IndexExistsL(class RDbNamedDatabase const &, class TDesC16 const &, class TDesC16 const &)
	?IsIndexCreationNeededL@CPosLmLocalDbAccess@@QBEHXZ @ 84 NONAME ; int CPosLmLocalDbAccess::IsIndexCreationNeededL(void) const
	?ReadFromLongTextColumnL@PosLmLongTextColHandler@@SAXAAVTDes16@@AAVRDbRowSet@@H@Z @ 85 NONAME ; void PosLmLongTextColHandler::ReadFromLongTextColumnL(class TDes16 &, class RDbRowSet &, int)
	?ReadFromLongTextColumnLC@PosLmLongTextColHandler@@SAPAVHBufC16@@AAVRDbRowSet@@H@Z @ 86 NONAME ; class HBufC16 * PosLmLongTextColHandler::ReadFromLongTextColumnLC(class RDbRowSet &, int)
	?ReadLandmarkL@PosLmLandmarkHandler@@SAXAAVRDbRowSet@@AAVCPosLmLocalDbAccess@@AAVCPosLandmark@@@Z @ 87 NONAME ; void PosLmLandmarkHandler::ReadLandmarkL(class RDbRowSet &, class CPosLmLocalDbAccess &, class CPosLandmark &)
	?ReadPartialLandmarkL@PosLmLandmarkHandler@@SAXAAVRDbRowSet@@AAVCPosLmLocalDbAccess@@AAVCPosLandmark@@AAVCPosLmPartialReadParameters@@@Z @ 88 NONAME ; void PosLmLandmarkHandler::ReadPartialLandmarkL(class RDbRowSet &, class CPosLmLocalDbAccess &, class CPosLandmark &, class CPosLmPartialReadParameters &)
	?TotalCategoryCountL@PosLmCategoryHandler@@SAIAAVCPosLmLocalDbAccess@@@Z @ 89 NONAME ; unsigned int PosLmCategoryHandler::TotalCategoryCountL(class CPosLmLocalDbAccess &)
	?TotalLandmarkCountL@PosLmLandmarkHandler@@SAIAAVCPosLmLocalDbAccess@@@Z @ 90 NONAME ; unsigned int PosLmLandmarkHandler::TotalLandmarkCountL(class CPosLmLocalDbAccess &)
	?WriteToLongTextColumnL@PosLmLongTextColHandler@@SAXABVTDesC16@@AAVRDbRowSet@@H@Z @ 91 NONAME ; void PosLmLongTextColHandler::WriteToLongTextColumnL(class TDesC16 const &, class RDbRowSet &, int)
	?ReadCategoryL@PosLmCategoryHandler@@SAXAAVRDbRowSet@@AAVCPosLmLocalDbAccess@@AAVCPosLandmarkCategory@@@Z @ 92 NONAME ; void PosLmCategoryHandler::ReadCategoryL(class RDbRowSet &, class CPosLmLocalDbAccess &, class CPosLandmarkCategory &)

