EXPORTS
	_Z24ImplementationGroupProxyRi @ 1 NONAME
	_ZN17CROCHCAFInterface10DeregisterEv @ 2 NONAME
	_ZN17CROCHCAFInterface10WriteDataLERK6TDesC8 @ 3 NONAME
	_ZN17CROCHCAFInterface14AddToMetaDataLERK6TDesC8 @ 4 NONAME
	_ZN17CROCHCAFInterface14AddToMetaDataLERK6TDesC8S2_ @ 5 NONAME
	_ZN17CROCHCAFInterface14EndProcessingLEv @ 6 NONAME
	_ZN17CROCHCAFInterface15StartProcessingERK7TDesC16S2_R5RFile @ 7 NONAME
	_ZN17CROCHCAFInterface18PrepareProcessingLEv @ 8 NONAME
	_ZN17CROCHCAFInterface9RegisterLERK6TDesC8 @ 9 NONAME
	_ZN17CROCHCAFInterfaceC1ER3RFs @ 10 NONAME
	_ZN17CROCHCAFInterfaceC2ER3RFs @ 11 NONAME
	_ZN17CROCHCAFInterfaceD0Ev @ 12 NONAME
	_ZN17CROCHCAFInterfaceD1Ev @ 13 NONAME
	_ZN17CROCHCAFInterfaceD2Ev @ 14 NONAME
	_ZNK17CROCHCAFInterface10ProcessingEv @ 15 NONAME
	_ZNK17CROCHCAFInterface10RegisteredEv @ 16 NONAME
	_ZNK17CROCHCAFInterface30GetSuggestedAttachmentFileNameER6TDes16 @ 17 NONAME
	_ZTI16CMessageComposer @ 18 NONAME ; #<TI>#
	_ZTI17CROCHCAFInterface @ 19 NONAME ; #<TI>#
	_ZTI20CROAPTContentHandler @ 20 NONAME ; #<TI>#
	_ZTV16CMessageComposer @ 21 NONAME ; #<VT>#
	_ZTV17CROCHCAFInterface @ 22 NONAME ; #<VT>#
	_ZTV20CROAPTContentHandler @ 23 NONAME ; #<VT>#

