EXPORTS
	_Z9LibEntryLR13CTestModuleIf @ 1 NONAME
	_ZN11CLbtGeoCell14SetNetworkTypeEN12RMobilePhone23TMobilePhoneNetworkModeE @ 2 NONAME
	_ZN11CLbtGeoCell19SetLocationAreaCodeEj @ 3 NONAME
	_ZN11CLbtGeoCell21SetNetworkCountryCodeE4TBufILi4EE @ 4 NONAME
	_ZN11CLbtGeoCell22SetNetworkIdentityCodeE4TBufILi8EE @ 5 NONAME
	_ZN11CLbtGeoCell4NewLEN12RMobilePhone23TMobilePhoneNetworkModeE4TBufILi4EES2_ILi8EEjj @ 6 NONAME
	_ZN11CLbtGeoCell4NewLEv @ 7 NONAME
	_ZN11CLbtGeoCell5NewLCEN12RMobilePhone23TMobilePhoneNetworkModeE4TBufILi4EES2_ILi8EEjj @ 8 NONAME
	_ZN11CLbtGeoCell5NewLCEv @ 9 NONAME
	_ZN11CLbtGeoCell9SetCellIdEj @ 10 NONAME
	_ZN11CLbtGeoCellD0Ev @ 11 NONAME
	_ZN11CLbtGeoCellD1Ev @ 12 NONAME
	_ZN11CLbtGeoCellD2Ev @ 13 NONAME
	_ZN13CLBTOperation32CreateGeoAreaForCurrentLocationLER14TRequestStatusN15CLbtGeoAreaBase12TGeoAreaTypeEPPS2_ @ 14 NONAME
	_ZN14CLbtGeoGsmCell4BsicEv @ 15 NONAME
	_ZN14CLbtGeoGsmCell4NewLEN12RMobilePhone23TMobilePhoneNetworkModeE4TBufILi4EES2_ILi8EEjj @ 16 NONAME
	_ZN14CLbtGeoGsmCell4NewLEv @ 17 NONAME
	_ZN14CLbtGeoGsmCell5NewLCEN12RMobilePhone23TMobilePhoneNetworkModeE4TBufILi4EES2_ILi8EEjj @ 18 NONAME
	_ZN14CLbtGeoGsmCell5NewLCEv @ 19 NONAME
	_ZN14CLbtGeoGsmCell7SetBsicER6RArrayIiE @ 20 NONAME
	_ZN14CLbtGeoGsmCellD0Ev @ 21 NONAME
	_ZN14CLbtGeoGsmCellD1Ev @ 22 NONAME
	_ZN14CLbtGeoGsmCellD2Ev @ 23 NONAME
	_ZN14CLbtLoggerImpl12CreateLoggerEv @ 24 NONAME
	_ZN14CLbtLoggerImpl13GetFileLoggerEv @ 25 NONAME
	_ZN14CLbtLoggerImpl7DestroyEv @ 26 NONAME
	_ZN15CLbtGeoAreaBase12InternalizeLER11RReadStream @ 27 NONAME
	_ZN16CLbtGeoWcdmaCell13WcdmaCellInfoEv @ 28 NONAME
	_ZN16CLbtGeoWcdmaCell16SetWcdmaCellInfoERK17TLbtWcdmaCellInfo @ 29 NONAME
	_ZN16CLbtGeoWcdmaCell4NewLEN12RMobilePhone23TMobilePhoneNetworkModeE4TBufILi4EES2_ILi8EEjj @ 30 NONAME
	_ZN16CLbtGeoWcdmaCell4NewLEv @ 31 NONAME
	_ZN16CLbtGeoWcdmaCell5NewLCEN12RMobilePhone23TMobilePhoneNetworkModeE4TBufILi4EES2_ILi8EEjj @ 32 NONAME
	_ZN16CLbtGeoWcdmaCell5NewLCEv @ 33 NONAME
	_ZN16CLbtGeoWcdmaCellD0Ev @ 34 NONAME
	_ZN16CLbtGeoWcdmaCellD1Ev @ 35 NONAME
	_ZN16CLbtGeoWcdmaCellD2Ev @ 36 NONAME
	_ZN17TLbtWcdmaCellInfoD1Ev @ 37 NONAME
	_ZN17TLbtWcdmaCellInfoD2Ev @ 38 NONAME
	_ZNK11CLbtGeoCell11NetworkTypeEv @ 39 NONAME
	_ZNK11CLbtGeoCell16LocationAreaCodeEv @ 40 NONAME
	_ZNK11CLbtGeoCell18NetworkCountryCodeEv @ 41 NONAME
	_ZNK11CLbtGeoCell19NetworkIdentityCodeEv @ 42 NONAME
	_ZNK11CLbtGeoCell6CellIdEv @ 43 NONAME
	_ZNK14CLbtGeoGsmCell26CGISpecifiedDuringCreationEv @ 44 NONAME
	_ZNK15CLbtGeoAreaBase12ExternalizeLER12RWriteStream @ 45 NONAME
	_ZNK16CLbtGeoWcdmaCell26CGISpecifiedDuringCreationEv @ 46 NONAME
	_ZTI11CLbtGeoCell @ 47 NONAME
	_ZTI13CLBTOperation @ 48 NONAME
	_ZTI14CLbtGeoGsmCell @ 49 NONAME
	_ZTI15CLbtGeoAreaBase @ 50 NONAME
	_ZTI16CLbtGeoWcdmaCell @ 51 NONAME
	_ZTI17CLbtCellOperation @ 52 NONAME
	_ZTI19CLbtSettingsManager @ 53 NONAME
	_ZTI20CLbtDiskSpaceListner @ 54 NONAME
	_ZTV11CLbtGeoCell @ 55 NONAME
	_ZTV13CLBTOperation @ 56 NONAME
	_ZTV14CLbtGeoGsmCell @ 57 NONAME
	_ZTV15CLbtGeoAreaBase @ 58 NONAME
	_ZTV16CLbtGeoWcdmaCell @ 59 NONAME
	_ZTV17CLbtCellOperation @ 60 NONAME
	_ZTV19CLbtSettingsManager @ 61 NONAME
	_ZTV20CLbtDiskSpaceListner @ 62 NONAME

