EXPORTS
	_ZN14PhoneGsmParser13CreateParserLEv @ 1 NONAME
	_ZN14PhoneGsmParser13CreateResultLEv @ 2 NONAME
	_ZN14PhoneGsmParser18IsAllowedForBadSimERK21CPhoneGsmParserResult @ 3 NONAME
	_ZN14PhoneGsmParser20DetermineContentTypeERK21CPhoneGsmParserResult @ 4 NONAME
	_ZN14PhoneGsmParser20IsAllowedForArrivingERK21CPhoneGsmParserResult @ 5 NONAME
	_ZN14PhoneGsmParser22CreateOptionContainerLEv @ 6 NONAME
	_ZN18CPhoneGsmSsHandler8ProcessLER21CPhoneGsmParserResult @ 7 NONAME
	_ZN20CPhoneGsmMiscHandler8ProcessLER21CPhoneGsmParserResult @ 8 NONAME
	_ZN22CPhoneGsmSsCallHandler8ProcessLER21CPhoneGsmParserResult @ 9 NONAME
	_ZN23CPhoneVoipNumberHandler8ProcessLER21CPhoneGsmParserResult @ 10 NONAME
	_ZN25CPhoneGsmHandlerContainer11AddHandlerLER20CPhoneGsmHandlerBase @ 11 NONAME
	_ZN25CPhoneGsmHandlerContainer4NewLEv @ 12 NONAME
	_ZN25CPhoneGsmHandlerContainerD0Ev @ 13 NONAME
	_ZN25CPhoneGsmHandlerContainerD1Ev @ 14 NONAME
	_ZN25CPhoneGsmHandlerContainerD2Ev @ 15 NONAME
	_ZN26CPhoneGsmSimControlHandler8ProcessLER21CPhoneGsmParserResult @ 16 NONAME
	_ZN27CPhoneGsmPhoneNumberHandler8ProcessLER21CPhoneGsmParserResult @ 17 NONAME
	_ZN28CPhoneGsmManufacturerHandler8ProcessLER21CPhoneGsmParserResult @ 18 NONAME
	_ZN28CPhoneGsmPcnProcedureHandler8ProcessLER21CPhoneGsmParserResult @ 19 NONAME
	_ZN31CPhoneGsmEmergencyNumberHandler8ProcessLER21CPhoneGsmParserResult @ 20 NONAME
	_ZTI18CPhoneGsmSsHandler @ 21 NONAME
	_ZTI20CPhoneGsmMiscHandler @ 22 NONAME
	_ZTI22CPhoneGsmSsCallHandler @ 23 NONAME
	_ZTI23CPhoneVoipNumberHandler @ 24 NONAME
	_ZTI25CPhoneGsmHandlerContainer @ 25 NONAME
	_ZTI26CPhoneGsmSimControlHandler @ 26 NONAME
	_ZTI27CPhoneGsmPhoneNumberHandler @ 27 NONAME
	_ZTI28CPhoneGsmManufacturerHandler @ 28 NONAME
	_ZTI28CPhoneGsmPcnProcedureHandler @ 29 NONAME
	_ZTI31CPhoneGsmEmergencyNumberHandler @ 30 NONAME
	_ZTV18CPhoneGsmSsHandler @ 31 NONAME
	_ZTV20CPhoneGsmMiscHandler @ 32 NONAME
	_ZTV22CPhoneGsmSsCallHandler @ 33 NONAME
	_ZTV23CPhoneVoipNumberHandler @ 34 NONAME
	_ZTV25CPhoneGsmHandlerContainer @ 35 NONAME
	_ZTV26CPhoneGsmSimControlHandler @ 36 NONAME
	_ZTV27CPhoneGsmPhoneNumberHandler @ 37 NONAME
	_ZTV28CPhoneGsmManufacturerHandler @ 38 NONAME
	_ZTV28CPhoneGsmPcnProcedureHandler @ 39 NONAME
	_ZTV31CPhoneGsmEmergencyNumberHandler @ 40 NONAME

