EXPORTS
	_ZN13CRadioUtility16RadioRdsUtilityLER17MRadioRdsObserver @ 1 NONAME
	_ZN13CRadioUtility19RadioPlayerUtilityLER20MRadioPlayerObserver @ 2 NONAME
	_ZN13CRadioUtility20RadioFmTunerUtilityLER21MRadioFmTunerObserver @ 3 NONAME
	_ZN13CRadioUtility4NewLEi @ 4 NONAME
	_ZN13CRadioUtilityD0Ev @ 5 NONAME
	_ZN13CRadioUtilityD1Ev @ 6 NONAME
	_ZN13CRadioUtilityD2Ev @ 7 NONAME
	_ZN16CRadioRdsUtility10GetPSByPTYEi @ 8 NONAME
	_ZN16CRadioRdsUtility11GetFreqByTAEv @ 9 NONAME
	_ZN16CRadioRdsUtility12GetClockTimeER9TDateTime @ 10 NONAME
	_ZN16CRadioRdsUtility12GetFreqByPTYEi @ 11 NONAME
	_ZN16CRadioRdsUtility12GetRadioTextER6TBuf16ILi64EE @ 12 NONAME
	_ZN16CRadioRdsUtility14CancelAFSearchEv @ 13 NONAME
	_ZN16CRadioRdsUtility15CancelGetPSByTAEv @ 14 NONAME
	_ZN16CRadioRdsUtility15StationSeekByTAEi @ 15 NONAME
	_ZN16CRadioRdsUtility15StationSeekByTPEi @ 16 NONAME
	_ZN16CRadioRdsUtility16CancelGetPSByPTYEv @ 17 NONAME
	_ZN16CRadioRdsUtility16GetProgrammeTypeERi @ 18 NONAME
	_ZN16CRadioRdsUtility16GetRadioTextPlusE15TRdsRTplusClassR6TBuf16ILi64EE @ 19 NONAME
	_ZN16CRadioRdsUtility16StationSeekByPTYEii @ 20 NONAME
	_ZN16CRadioRdsUtility17CancelGetFreqByTAEv @ 21 NONAME
	_ZN16CRadioRdsUtility18CancelGetFreqByPTYEv @ 22 NONAME
	_ZN16CRadioRdsUtility19GetProgrammeServiceER6TBuf16ILi8EE @ 23 NONAME
	_ZN16CRadioRdsUtility19NotifyRdsDataChangeE8TRdsData @ 24 NONAME
	_ZN16CRadioRdsUtility20CancelRdsStationSeekEv @ 25 NONAME
	_ZN16CRadioRdsUtility21GetAutomaticSwitchingERi @ 26 NONAME
	_ZN16CRadioRdsUtility21SetAutomaticSwitchingEi @ 27 NONAME
	_ZN16CRadioRdsUtility25CancelNotifyRdsDataChangeEv @ 28 NONAME
	_ZN16CRadioRdsUtility25GetTrafficProgrammeStatusERi @ 29 NONAME
	_ZN16CRadioRdsUtility26GetProgrammeIdentificationERi @ 30 NONAME
	_ZN16CRadioRdsUtility28GetTrafficAnnouncementStatusERi @ 31 NONAME
	_ZN16CRadioRdsUtility31GetAutomaticTrafficAnnouncementERi @ 32 NONAME
	_ZN16CRadioRdsUtility31SetAutomaticTrafficAnnouncementEi @ 33 NONAME
	_ZN16CRadioRdsUtility5CloseEv @ 34 NONAME
	_ZN16CRadioRdsUtility9GetPSByTAEv @ 35 NONAME
	_ZN19CRadioPlayerUtility10SetBalanceEii @ 36 NONAME
	_ZN19CRadioPlayerUtility13SetVolumeRampERK25TTimeIntervalMicroSeconds @ 37 NONAME
	_ZN19CRadioPlayerUtility15CustomInterfaceE4TUid @ 38 NONAME
	_ZN19CRadioPlayerUtility4MuteEi @ 39 NONAME
	_ZN19CRadioPlayerUtility4PlayEv @ 40 NONAME
	_ZN19CRadioPlayerUtility4StopEv @ 41 NONAME
	_ZN19CRadioPlayerUtility5CloseEv @ 42 NONAME
	_ZN19CRadioPlayerUtility6IsMuteEv @ 43 NONAME
	_ZN19CRadioPlayerUtility9SetVolumeEi @ 44 NONAME
	_ZN19CRadioPlayerUtilityD0Ev @ 45 NONAME
	_ZN19CRadioPlayerUtilityD1Ev @ 46 NONAME
	_ZN19CRadioPlayerUtilityD2Ev @ 47 NONAME
	_ZN20CRadioFmTunerUtility10SetSquelchEi @ 48 NONAME
	_ZN20CRadioFmTunerUtility11StationSeekEi @ 49 NONAME
	_ZN20CRadioFmTunerUtility12SetFrequencyEi @ 50 NONAME
	_ZN20CRadioFmTunerUtility15GetCapabilitiesER20TFmTunerCapabilities @ 51 NONAME
	_ZN20CRadioFmTunerUtility17CancelStationSeekEv @ 52 NONAME
	_ZN20CRadioFmTunerUtility17SetFrequencyRangeE22TFmRadioFrequencyRange @ 53 NONAME
	_ZN20CRadioFmTunerUtility18CancelSetFrequencyEv @ 54 NONAME
	_ZN20CRadioFmTunerUtility18ForceMonoReceptionEi @ 55 NONAME
	_ZN20CRadioFmTunerUtility19RequestTunerControlEv @ 56 NONAME
	_ZN20CRadioFmTunerUtility23CancelSetFrequencyRangeEv @ 57 NONAME
	_ZN20CRadioFmTunerUtility24EnableTunerInOfflineModeEi @ 58 NONAME
	_ZN20CRadioFmTunerUtility5CloseEv @ 59 NONAME
	_ZN20CRadioFmTunerUtilityD0Ev @ 60 NONAME
	_ZN20CRadioFmTunerUtilityD1Ev @ 61 NONAME
	_ZN20CRadioFmTunerUtilityD2Ev @ 62 NONAME
	_ZNK16CRadioRdsUtility15GetCapabilitiesER16TRdsCapabilities @ 63 NONAME
	_ZNK16CRadioRdsUtility18GetRdsSignalStatusERi @ 64 NONAME
	_ZNK19CRadioPlayerUtility10GetBalanceERiS0_ @ 65 NONAME
	_ZNK19CRadioPlayerUtility11PlayerStateEv @ 66 NONAME
	_ZNK19CRadioPlayerUtility12GetMaxVolumeERi @ 67 NONAME
	_ZNK19CRadioPlayerUtility9GetVolumeERi @ 68 NONAME
	_ZNK20CRadioFmTunerUtility10GetSquelchERi @ 69 NONAME
	_ZNK20CRadioFmTunerUtility12GetFrequencyERi @ 70 NONAME
	_ZNK20CRadioFmTunerUtility13GetStereoModeERi @ 71 NONAME
	_ZNK20CRadioFmTunerUtility17GetFrequencyRangeER22TFmRadioFrequencyRangeRiS2_ @ 72 NONAME
	_ZNK20CRadioFmTunerUtility17GetSignalStrengthERi @ 73 NONAME
	_ZNK20CRadioFmTunerUtility20GetMaxSignalStrengthERi @ 74 NONAME
	_ZNK20CRadioFmTunerUtility22GetForcedMonoReceptionERi @ 75 NONAME
	_ZTI13CRadioUtility @ 76 NONAME
	_ZTI16CRadioRdsUtility @ 77 NONAME
	_ZTI19CRadioPlayerUtility @ 78 NONAME
	_ZTI20CRadioFmTunerUtility @ 79 NONAME
	_ZTIN13CRadioMonitor5CBodyE @ 80 NONAME
	_ZTIN13CRadioUtility5CBodyE @ 81 NONAME
	_ZTIN16CRadioRdsUtility5CBodyE @ 82 NONAME
	_ZTIN19CRadioPlayerUtility5CBodyE @ 83 NONAME
	_ZTIN20CRadioFmTunerUtility5CBodyE @ 84 NONAME
	_ZTV13CRadioUtility @ 85 NONAME
	_ZTV16CRadioRdsUtility @ 86 NONAME
	_ZTV19CRadioPlayerUtility @ 87 NONAME
	_ZTV20CRadioFmTunerUtility @ 88 NONAME
	_ZTVN13CRadioMonitor5CBodyE @ 89 NONAME
	_ZTVN13CRadioUtility5CBodyE @ 90 NONAME
	_ZTVN16CRadioRdsUtility5CBodyE @ 91 NONAME
	_ZTVN19CRadioPlayerUtility5CBodyE @ 92 NONAME
	_ZTVN20CRadioFmTunerUtility5CBodyE @ 93 NONAME
	_ZThn4_N19CRadioPlayerUtility15CustomInterfaceE4TUid @ 94 NONAME

