EXPORTS
	?DeleteTriggers@CLbtContainer@@QAEXPAVCLbtContainerUpdateFilter@@AAHAAVTRequestStatus@@VTLbtSecurityPolicy@@@Z @ 1 NONAME ; void CLbtContainer::DeleteTriggers(class CLbtContainerUpdateFilter *, int &, class TRequestStatus &, class TLbtSecurityPolicy)
	?IsTriggerFired@CLbtExtendedTriggerInfo@@QBEHXZ @ 2 NONAME ; int CLbtExtendedTriggerInfo::IsTriggerFired(void) const
	?GetStartupProcessArrayL@CLbtContainerFilter@@QAEXPAV?$RArray@V?$TBuf@$0BAA@@@@@@Z @ 3 NONAME ; void CLbtContainerFilter::GetStartupProcessArrayL(class RArray<class TBuf<256> > *)
	?NewL@CLbtContainerFilter@@SAPAV1@XZ @ 4 NONAME ; class CLbtContainerFilter * CLbtContainerFilter::NewL(void)
	?CreateTrigger@CLbtContainer@@QAEXAAVCLbtContainerTriggerEntry@@AAHAAVTRequestStatus@@VTLbtSecurityPolicy@@@Z @ 5 NONAME ; void CLbtContainer::CreateTrigger(class CLbtContainerTriggerEntry &, int &, class TRequestStatus &, class TLbtSecurityPolicy)
	?NewL@CLbtContainer@@SAPAV1@XZ @ 6 NONAME ; class CLbtContainer * CLbtContainer::NewL(void)
	?IsTriggerFireOnCreationInFilter@CLbtContainerFilter@@QBEHH@Z @ 7 NONAME ; int CLbtContainerFilter::IsTriggerFireOnCreationInFilter(int) const
	?GetHystRadiusArrayL@CLbtContainerFilter@@QAEXPAV?$RArray@N@@@Z @ 8 NONAME ; void CLbtContainerFilter::GetHystRadiusArrayL(class RArray<double> *)
	?TrigInfoFilter@CLbtContainerUpdateFilter@@QAEPAVCLbtTriggerFilterBase@@XZ @ 9 NONAME ; class CLbtTriggerFilterBase * CLbtContainerUpdateFilter::TrigInfoFilter(void)
	?SetTriggerRectangleArea@CLbtExtendedTriggerInfo@@QAEXABUTLbtTriggerRectArea@1@@Z @ 10 NONAME ; void CLbtExtendedTriggerInfo::SetTriggerRectangleArea(struct CLbtExtendedTriggerInfo::TLbtTriggerRectArea const &)
	?SetTriggerFireOnCreation@CLbtExtendedTriggerInfo@@QAEXH@Z @ 11 NONAME ; void CLbtExtendedTriggerInfo::SetTriggerFireOnCreation(int)
	??1CLbtContainerListOptions@@UAE@XZ @ 12 NONAME ; CLbtContainerListOptions::~CLbtContainerListOptions(void)
	?DataMask@CLbtContainerUpdateFilter@@QAE_KXZ @ 13 NONAME ; unsigned long long CLbtContainerUpdateFilter::DataMask(void)
	?SetFiredInfo@CLbtExtendedTriggerInfo@@QAEXUTLbtTriggerFireInfo@@@Z @ 14 NONAME ; void CLbtExtendedTriggerInfo::SetFiredInfo(struct TLbtTriggerFireInfo)
	?IsHysteresisRadiusInFilter@CLbtContainerFilter@@QBEHN@Z @ 15 NONAME ; int CLbtContainerFilter::IsHysteresisRadiusInFilter(double) const
	?CancelAsyncOperation@CLbtContainer@@QAEXH@Z @ 16 NONAME ; void CLbtContainer::CancelAsyncOperation(int)
	?ExtendedTriggerInfo@CLbtContainerTriggerEntry@@QAEPAVCLbtExtendedTriggerInfo@@XZ @ 17 NONAME ; class CLbtExtendedTriggerInfo * CLbtContainerTriggerEntry::ExtendedTriggerInfo(void)
	?GetTriggerFireOnCreationArrayL@CLbtContainerFilter@@QAEXPAV?$RArray@H@@@Z @ 18 NONAME ; void CLbtContainerFilter::GetTriggerFireOnCreationArrayL(class RArray<int> *)
	?DataMask@CLbtContainerListOptions@@QAE_KXZ @ 19 NONAME ; unsigned long long CLbtContainerListOptions::DataMask(void)
	?StategyData@CLbtExtendedTriggerInfo@@QBEABVTDesC8@@XZ @ 20 NONAME ; class TDesC8 const & CLbtExtendedTriggerInfo::StategyData(void) const
	?NewL@CLbtContainerUpdateFilter@@SAPAV1@PAVCLbtTriggerFilterBase@@PAVCLbtContainerFilter@@@Z @ 21 NONAME ; class CLbtContainerUpdateFilter * CLbtContainerUpdateFilter::NewL(class CLbtTriggerFilterBase *, class CLbtContainerFilter *)
	?Destroy@CLbtContainer@@SAXXZ @ 22 NONAME ; void CLbtContainer::Destroy(void)
	?SetTimeTillCompaction@CLbtContainer@@QAEXVTTime@@@Z @ 23 NONAME ; void CLbtContainer::SetTimeTillCompaction(class TTime)
	?IsTriggerFiredInfoInFilter@CLbtContainerFilter@@QBEHH@Z @ 24 NONAME ; int CLbtContainerFilter::IsTriggerFiredInfoInFilter(int) const
	?NewL@CLbtExtendedTriggerInfo@@SAPAV1@UTLbtTriggerRectArea@1@NHABVTDesC8@@VTSecureId@@H@Z @ 25 NONAME ; class CLbtExtendedTriggerInfo * CLbtExtendedTriggerInfo::NewL(struct CLbtExtendedTriggerInfo::TLbtTriggerRectArea, double, int, class TDesC8 const &, class TSecureId, int)
	?IsRectTriggerAreaInFilter@CLbtContainerFilter@@QBEHUTLbtTriggerRectArea@CLbtExtendedTriggerInfo@@@Z @ 26 NONAME ; int CLbtContainerFilter::IsRectTriggerAreaInFilter(struct CLbtExtendedTriggerInfo::TLbtTriggerRectArea) const
	?AddOwnerSidInFilterL@CLbtContainerFilter@@QAEXVTSecureId@@@Z @ 27 NONAME ; void CLbtContainerFilter::AddOwnerSidInFilterL(class TSecureId)
	?SetChangeObserver@CLbtContainer@@QAEXPAVMLbtContainerChangeEventObserver@@H@Z @ 28 NONAME ; void CLbtContainer::SetChangeObserver(class MLbtContainerChangeEventObserver *, int)
	??1CLbtContainerTriggerEntry@@UAE@XZ @ 29 NONAME ; CLbtContainerTriggerEntry::~CLbtContainerTriggerEntry(void)
	?NewL@CLbtContainerUpdateFilter@@SAPAV1@XZ @ 30 NONAME ; class CLbtContainerUpdateFilter * CLbtContainerUpdateFilter::NewL(void)
	?UpdateTriggersState@CLbtContainer@@QAEXW4TLbtTriggerState@CLbtTriggerEntry@@PAVCLbtContainerUpdateFilter@@AAHW4TLbtFireOnUpdate@@AAVTRequestStatus@@VTLbtSecurityPolicy@@@Z @ 31 NONAME ; void CLbtContainer::UpdateTriggersState(enum CLbtTriggerEntry::TLbtTriggerState, class CLbtContainerUpdateFilter *, int &, enum TLbtFireOnUpdate, class TRequestStatus &, class TLbtSecurityPolicy)
	?GetTriggers@CLbtContainer@@QAEXABV?$RArray@K@@AAV?$RPointerArray@VCLbtContainerTriggerEntry@@@@AAHAAVTRequestStatus@@VTLbtSecurityPolicy@@@Z @ 32 NONAME ; void CLbtContainer::GetTriggers(class RArray<unsigned long> const &, class RPointerArray<class CLbtContainerTriggerEntry> &, int &, class TRequestStatus &, class TLbtSecurityPolicy)
	?NewL@CLbtContainerTriggerEntry@@SAPAV1@XZ @ 33 NONAME ; class CLbtContainerTriggerEntry * CLbtContainerTriggerEntry::NewL(void)
	?AddRectTrigAreaInFilterL@CLbtContainerFilter@@QAEXUTLbtTriggerRectArea@CLbtExtendedTriggerInfo@@@Z @ 34 NONAME ; void CLbtContainerFilter::AddRectTrigAreaInFilterL(struct CLbtExtendedTriggerInfo::TLbtTriggerRectArea)
	?SetDataMask@CLbtContainerListOptions@@QAEX_K@Z @ 35 NONAME ; void CLbtContainerListOptions::SetDataMask(unsigned long long)
	?AddStartupProcessInFilterL@CLbtContainerFilter@@QAEXAAV?$TBuf@$0BAA@@@@Z @ 36 NONAME ; void CLbtContainerFilter::AddStartupProcessInFilterL(class TBuf<256> &)
	?SetOwnerSid@CLbtExtendedTriggerInfo@@QAEXABVTSecureId@@@Z @ 37 NONAME ; void CLbtExtendedTriggerInfo::SetOwnerSid(class TSecureId const &)
	?ContainerFilter@CLbtContainerListOptions@@QAEPAVCLbtContainerFilter@@XZ @ 38 NONAME ; class CLbtContainerFilter * CLbtContainerListOptions::ContainerFilter(void)
	?GetRectAreaArrayL@CLbtContainerFilter@@QAEXPAV?$RArray@UTLbtTriggerRectArea@CLbtExtendedTriggerInfo@@@@@Z @ 39 NONAME ; void CLbtContainerFilter::GetRectAreaArrayL(class RArray<struct CLbtExtendedTriggerInfo::TLbtTriggerRectArea> *)
	?NewL@CLbtContainerTriggerEntry@@SAPAV1@PAVCLbtTriggerEntry@@PAUTLbtTriggerDynamicInfo@@PAVCLbtExtendedTriggerInfo@@@Z @ 40 NONAME ; class CLbtContainerTriggerEntry * CLbtContainerTriggerEntry::NewL(class CLbtTriggerEntry *, struct TLbtTriggerDynamicInfo *, class CLbtExtendedTriggerInfo *)
	?ListTriggers@CLbtContainer@@QAEXPAVCLbtContainerListOptions@@AAV?$RPointerArray@VCLbtContainerTriggerEntry@@@@AAHAAVTRequestStatus@@VTLbtSecurityPolicy@@@Z @ 41 NONAME ; void CLbtContainer::ListTriggers(class CLbtContainerListOptions *, class RPointerArray<class CLbtContainerTriggerEntry> &, int &, class TRequestStatus &, class TLbtSecurityPolicy)
	?HysteresisRadius@CLbtExtendedTriggerInfo@@QBEABNXZ @ 42 NONAME ; double const & CLbtExtendedTriggerInfo::HysteresisRadius(void) const
	?SetDataMask@CLbtContainerUpdateFilter@@QAEX_K@Z @ 43 NONAME ; void CLbtContainerUpdateFilter::SetDataMask(unsigned long long)
	?ListOptions@CLbtContainerListOptions@@QAEPAVCLbtListTriggerOptions@@XZ @ 44 NONAME ; class CLbtListTriggerOptions * CLbtContainerListOptions::ListOptions(void)
	?NewL@CLbtContainerListOptions@@SAPAV1@XZ @ 45 NONAME ; class CLbtContainerListOptions * CLbtContainerListOptions::NewL(void)
	?SetContainerFilter@CLbtContainerUpdateFilter@@QAEXPAVCLbtContainerFilter@@@Z @ 46 NONAME ; void CLbtContainerUpdateFilter::SetContainerFilter(class CLbtContainerFilter *)
	?SetTrigInfoFilter@CLbtContainerUpdateFilter@@QAEXPAVCLbtTriggerFilterBase@@@Z @ 47 NONAME ; void CLbtContainerUpdateFilter::SetTrigInfoFilter(class CLbtTriggerFilterBase *)
	?RemoveObserver@CLbtContainer@@QAEXPAVMLbtContainerChangeEventObserver@@@Z @ 48 NONAME ; void CLbtContainer::RemoveObserver(class MLbtContainerChangeEventObserver *)
	?OwnerSid@CLbtExtendedTriggerInfo@@QBEABVTSecureId@@XZ @ 49 NONAME ; class TSecureId const & CLbtExtendedTriggerInfo::OwnerSid(void) const
	?IsOwnerSidInFilter@CLbtContainerFilter@@QBEHVTSecureId@@@Z @ 50 NONAME ; int CLbtContainerFilter::IsOwnerSidInFilter(class TSecureId) const
	?GetSidArrayL@CLbtContainerFilter@@QAEXPAV?$RArray@VTSecureId@@@@@Z @ 51 NONAME ; void CLbtContainerFilter::GetSidArrayL(class RArray<class TSecureId> *)
	?AddFiredInfoInFilterL@CLbtContainerFilter@@QAEXH@Z @ 52 NONAME ; void CLbtContainerFilter::AddFiredInfoInFilterL(int)
	?NewL@CLbtExtendedTriggerInfo@@SAPAV1@XZ @ 53 NONAME ; class CLbtExtendedTriggerInfo * CLbtExtendedTriggerInfo::NewL(void)
	?UpdateTriggersValidity@CLbtContainer@@QAEXW4TLbtTriggerValidity@TLbtTriggerDynamicInfo@@AAV?$RArray@K@@AAHAAVTRequestStatus@@VTLbtSecurityPolicy@@@Z @ 54 NONAME ; void CLbtContainer::UpdateTriggersValidity(enum TLbtTriggerDynamicInfo::TLbtTriggerValidity, class RArray<unsigned long> &, int &, class TRequestStatus &, class TLbtSecurityPolicy)
	?UpdateTriggerL@CLbtContainer@@QAEXAAVCLbtContainerTriggerEntry@@_KKAAHAAVTRequestStatus@@VTLbtSecurityPolicy@@@Z @ 55 NONAME ; void CLbtContainer::UpdateTriggerL(class CLbtContainerTriggerEntry &, unsigned long long, unsigned long, int &, class TRequestStatus &, class TLbtSecurityPolicy)
	?AddHysteresisRadiusInFilter@CLbtContainerFilter@@QAEXN@Z @ 56 NONAME ; void CLbtContainerFilter::AddHysteresisRadiusInFilter(double)
	??1CLbtExtendedTriggerInfo@@UAE@XZ @ 57 NONAME ; CLbtExtendedTriggerInfo::~CLbtExtendedTriggerInfo(void)
	?SetExtendedTriggerInfo@CLbtContainerTriggerEntry@@QAEXPAVCLbtExtendedTriggerInfo@@@Z @ 58 NONAME ; void CLbtContainerTriggerEntry::SetExtendedTriggerInfo(class CLbtExtendedTriggerInfo *)
	?SetStrategyDataL@CLbtExtendedTriggerInfo@@QAEXABVTDesC8@@@Z @ 59 NONAME ; void CLbtExtendedTriggerInfo::SetStrategyDataL(class TDesC8 const &)
	?SetHysteresisRadius@CLbtExtendedTriggerInfo@@QAEXABN@Z @ 60 NONAME ; void CLbtExtendedTriggerInfo::SetHysteresisRadius(double const &)
	?SetListOptions@CLbtContainerListOptions@@QAEXPAVCLbtListTriggerOptions@@@Z @ 61 NONAME ; void CLbtContainerListOptions::SetListOptions(class CLbtListTriggerOptions *)
	?SetContainerFilter@CLbtContainerListOptions@@QAEXPAVCLbtContainerFilter@@@Z @ 62 NONAME ; void CLbtContainerListOptions::SetContainerFilter(class CLbtContainerFilter *)
	?StrategyData@CLbtContainerTriggerEntry@@QAE?AUTStrategyData@@XZ @ 63 NONAME ; struct TStrategyData CLbtContainerTriggerEntry::StrategyData(void)
	?NewL@CLbtContainerListOptions@@SAPAV1@PAVCLbtListTriggerOptions@@PAVCLbtContainerFilter@@@Z @ 64 NONAME ; class CLbtContainerListOptions * CLbtContainerListOptions::NewL(class CLbtListTriggerOptions *, class CLbtContainerFilter *)
	?GetCountOfEnabledAndValidTriggers@CLbtContainer@@QAEHXZ @ 65 NONAME ; int CLbtContainer::GetCountOfEnabledAndValidTriggers(void)
	?UpdateTriggerFiredState@CLbtContainer@@QAEXAAV?$RArray@K@@AAHHAAVTRequestStatus@@@Z @ 66 NONAME ; void CLbtContainer::UpdateTriggerFiredState(class RArray<unsigned long> &, int &, int, class TRequestStatus &)
	?ContainerFilter@CLbtContainerUpdateFilter@@QAEPAVCLbtContainerFilter@@XZ @ 67 NONAME ; class CLbtContainerFilter * CLbtContainerUpdateFilter::ContainerFilter(void)
	?GetTriggerFiredArrayL@CLbtContainerFilter@@QAEXPAV?$RArray@H@@@Z @ 68 NONAME ; void CLbtContainerFilter::GetTriggerFiredArrayL(class RArray<int> *)
	?TriggerReactangleArea@CLbtExtendedTriggerInfo@@QBE?BUTLbtTriggerRectArea@1@XZ @ 69 NONAME ; struct CLbtExtendedTriggerInfo::TLbtTriggerRectArea const CLbtExtendedTriggerInfo::TriggerReactangleArea(void) const
	?GetFiredInfo@CLbtExtendedTriggerInfo@@QBE?AUTLbtTriggerFireInfo@@XZ @ 70 NONAME ; struct TLbtTriggerFireInfo CLbtExtendedTriggerInfo::GetFiredInfo(void) const
	??1CLbtContainerUpdateFilter@@UAE@XZ @ 71 NONAME ; CLbtContainerUpdateFilter::~CLbtContainerUpdateFilter(void)
	?IsStartupProcessInFilter@CLbtContainerFilter@@QAEHAAV?$TBuf@$0BAA@@@@Z @ 72 NONAME ; int CLbtContainerFilter::IsStartupProcessInFilter(class TBuf<256> &)
	?SetTriggerFiredState@CLbtExtendedTriggerInfo@@QAEXH@Z @ 73 NONAME ; void CLbtExtendedTriggerInfo::SetTriggerFiredState(int)
	?AddTriggerFireOnCreationInFilterL@CLbtContainerFilter@@QAEXH@Z @ 74 NONAME ; void CLbtContainerFilter::AddTriggerFireOnCreationInFilterL(int)
	?IsTriggerFireOnCreation@CLbtExtendedTriggerInfo@@QBEHXZ @ 75 NONAME ; int CLbtExtendedTriggerInfo::IsTriggerFireOnCreation(void) const
	?SetStrategyData@CLbtContainerTriggerEntry@@QAEXAAUTStrategyData@@@Z @ 76 NONAME ; void CLbtContainerTriggerEntry::SetStrategyData(struct TStrategyData &)
	??1CLbtContainerFilter@@UAE@XZ @ 77 NONAME ; CLbtContainerFilter::~CLbtContainerFilter(void)

