EXPORTS
	_ZN15TMsvOffPeakTime12InternalizeLER11RReadStream @ 1 NONAME
	_ZN15TMsvOffPeakTime17SetValidityPeriodE20TTimeIntervalMinutes @ 2 NONAME
	_ZN15TMsvOffPeakTime5ResetEv @ 3 NONAME
	_ZN15TMsvOffPeakTime6SetDayE4TDay @ 4 NONAME
	_ZN15TMsvOffPeakTime7SetHourEi @ 5 NONAME
	_ZN15TMsvOffPeakTime9SetMinuteEi @ 6 NONAME
	_ZN15TMsvOffPeakTimeC1E4TDayii20TTimeIntervalMinutes @ 7 NONAME
	_ZN15TMsvOffPeakTimeC1Ev @ 8 NONAME
	_ZN15TMsvOffPeakTimeC2E4TDayii20TTimeIntervalMinutes @ 9 NONAME
	_ZN15TMsvOffPeakTimeC2Ev @ 10 NONAME
	_ZN16CMsvOffPeakTimes8RestoreLER9CMsvStore @ 11 NONAME
	_ZN16CMsvOffPeakTimesC1Ev @ 12 NONAME
	_ZN16CMsvOffPeakTimesC2Ev @ 13 NONAME
	_ZN16CMsvScheduleSend10ConstructLEv @ 14 NONAME
	_ZN16CMsvScheduleSend11ReScheduleLERK18CMsvEntrySelectionRK19TMsvSchedulePackagePK19TMsvSendErrorAction @ 15 NONAME
	_ZN16CMsvScheduleSend13FindScheduleLER10RSchedulerRK5TTimeR17TSchedulerItemRef @ 16 NONAME
	_ZN16CMsvScheduleSend14CheckScheduleLERK18CMsvEntrySelection @ 17 NONAME
	_ZN16CMsvScheduleSend14ScheduleEntryLER10RSchedulerRK17TSchedulerItemRefRK19TMsvSchedulePackageR9TTaskInfo @ 18 NONAME
	_ZN16CMsvScheduleSend15CreateScheduleLER10RSchedulerRK20CMsvScheduleSettingsRK5TTimeRK20TTimeIntervalMinutesR17TSchedulerItemRef @ 19 NONAME
	_ZN16CMsvScheduleSend15DeleteScheduleLERK18CMsvEntrySelection @ 20 NONAME
	_ZN16CMsvScheduleSend15RoundUpToMinuteER5TTime @ 21 NONAME
	_ZN16CMsvScheduleSend16SendingCompleteLER9TMsvEntryi @ 22 NONAME
	_ZN16CMsvScheduleSend16SendingCompleteLERK18CMsvEntrySelection @ 23 NONAME
	_ZN16CMsvScheduleSend19ConnectAndRegisterLER10RSchedulerRK20CMsvScheduleSettings @ 24 NONAME
	_ZN16CMsvScheduleSend24UpdateEntryAfterScheduleERK17TSchedulerItemRefRK9TTaskInfoRK5TTimeiR9TMsvEntryR21TMsvEntryScheduleData @ 25 NONAME
	_ZN16CMsvScheduleSend8RestoreLER9CMsvStore @ 26 NONAME
	_ZN16CMsvScheduleSend9ScheduleLERK18CMsvEntrySelectionRK19TMsvSchedulePackage @ 27 NONAME
	_ZTV22CScheduleBaseServerMtm @ 28 NONAME ; #<VT>#
	_ZN16CMsvScheduleSendC2ER15CMsvServerEntry @ 29 NONAME
	_ZN16CMsvScheduleSendD0Ev @ 30 NONAME
	_ZN16CMsvScheduleSendD1Ev @ 31 NONAME
	_ZN16CMsvScheduleSendD2Ev @ 32 NONAME
	_ZN18CMsvScheduledEntry8RestoreLER9CMsvStore @ 33 NONAME
	_ZTV19CMsvSysAgentActions @ 34 NONAME ; #<VT>#
	_ZN18CMsvScheduledEntryC2ERK9TMsvEntry @ 35 NONAME
	_ZN19CMsvSysAgentActions14ConditionsMetLER19TMsvSendErrorAction @ 36 NONAME
	_ZN19CMsvSysAgentActions8RestoreLER9CMsvStore @ 37 NONAME
	_ZN19CMsvSysAgentActionsC1Ev @ 38 NONAME
	_ZN19CMsvSysAgentActionsC2Ev @ 39 NONAME
	_ZN19CMsvSysAgentActionsD0Ev @ 40 NONAME
	_ZN19CMsvSysAgentActionsD1Ev @ 41 NONAME
	_ZN19CMsvSysAgentActionsD2Ev @ 42 NONAME
	_ZN19TMsvSchedulePackage7UnpackLERK9TTaskInfoRK7TDesC16 @ 43 NONAME
	_ZN19TMsvSchedulePackageC1Ev @ 44 NONAME
	_ZN19TMsvSchedulePackageC2Ev @ 45 NONAME
	_ZN19TMsvSendErrorAction12InternalizeLER11RReadStream @ 46 NONAME
	_ZN19TMsvSendErrorAction13SetMaxRetriesEs @ 47 NONAME
	_ZN19TMsvSendErrorAction5ResetEv @ 48 NONAME
	_ZN19TMsvSendErrorActionC1Ev @ 49 NONAME
	_ZN19TMsvSendErrorActionC2Ev @ 50 NONAME
	_ZN20CMsvScheduleSettings10SetLatencyERK27TTimeIntervalMicroSeconds32 @ 51 NONAME
	_ZN20CMsvScheduleSettings10SetSendExeERK7TDesC16 @ 52 NONAME
	_ZN20CMsvScheduleSettings11SetPriorityEi @ 53 NONAME
	_ZN20CMsvScheduleSettings15SetIntervalTypeE13TIntervalType @ 54 NONAME
	_ZN20CMsvScheduleSettings15SetLongIntervalERK20TTimeIntervalSeconds @ 55 NONAME
	_ZN20CMsvScheduleSettings16SetShortIntervalERK20TTimeIntervalSeconds @ 56 NONAME
	_ZN20CMsvScheduleSettings17SetValidityPeriodERK20TTimeIntervalMinutes @ 57 NONAME
	_ZN20CMsvScheduleSettings21SetVariableIntervalsLERK13CArrayFixFlatI20TTimeIntervalSecondsE @ 58 NONAME
	_ZN20CMsvScheduleSettings4NewLEv @ 59 NONAME
	_ZN20CMsvScheduleSettings5ResetEv @ 60 NONAME
	_ZN20CMsvScheduleSettings8RestoreLER9CMsvStore @ 61 NONAME
	_ZN20CMsvScheduleSettingsD0Ev @ 62 NONAME
	_ZN20CMsvScheduleSettingsD1Ev @ 63 NONAME
	_ZN20CMsvScheduleSettingsD2Ev @ 64 NONAME
	_ZN20CMsvSendErrorActions10SetDefaultERK19TMsvSendErrorAction @ 65 NONAME
	_ZN20CMsvSendErrorActions10SetErrorsLERK13CArrayFixFlatI19TMsvSendErrorActionE @ 66 NONAME
	_ZN20CMsvSendErrorActions19AddSendErrorActionLERK19TMsvSendErrorAction @ 67 NONAME
	_ZN20CMsvSendErrorActions20RestoreFromResourceLER15TResourceReader @ 68 NONAME
	_ZN20CMsvSendErrorActions21RemoveSendErrorActionEi @ 69 NONAME
	_ZN20CMsvSendErrorActions4NewLEv @ 70 NONAME
	_ZN20CMsvSendErrorActions8RestoreLER9CMsvStore @ 71 NONAME
	_ZN20CMsvSendErrorActionsD0Ev @ 72 NONAME
	_ZN20CMsvSendErrorActionsD1Ev @ 73 NONAME
	_ZN20CMsvSendErrorActionsD2Ev @ 74 NONAME
	_ZN21TMsvEntryScheduleData12ResetRetriesEv @ 75 NONAME
	_ZN21TMsvEntryScheduleData15IncreaseRetriesEv @ 76 NONAME
	_ZN21TMsvEntryScheduleData5ResetEv @ 77 NONAME
	_ZN21TMsvEntryScheduleData8RestoreLER9CMsvStore @ 78 NONAME
	_ZN21TMsvEntryScheduleDataC1Ev @ 79 NONAME
	_ZN21TMsvEntryScheduleDataC2Ev @ 80 NONAME
	_ZN22CScheduleBaseServerMtm10ConstructLEv @ 81 NONAME
	_ZN22CScheduleBaseServerMtm14CheckScheduleLERK18CMsvEntrySelectionRK6TDesC8R14TRequestStatus @ 82 NONAME
	_ZN22CScheduleBaseServerMtm14SendScheduledLER18CMsvEntrySelectioniRK6TDesC8R14TRequestStatus @ 83 NONAME
	_ZN22CScheduleBaseServerMtm15DeleteScheduleLERK18CMsvEntrySelectionRK6TDesC8R14TRequestStatus @ 84 NONAME
	_ZN22CScheduleBaseServerMtm17LoadResourceFileLERK7TDesC16 @ 85 NONAME
	_ZN22CScheduleBaseServerMtm24RestoreScheduleSettingsLEii @ 86 NONAME
	_ZN22CScheduleBaseServerMtm5QueueER14TRequestStatus @ 87 NONAME
	_ZN22CScheduleBaseServerMtm9ScheduleLER18CMsvEntrySelectioniRK6TDesC8R14TRequestStatus @ 88 NONAME
	_ZTV18CMsvScheduledEntry @ 89 NONAME ; #<VT>#
	_ZN22CScheduleBaseServerMtmC2ER17CRegisteredMtmDllP15CMsvServerEntry @ 90 NONAME
	_ZN22CScheduleBaseServerMtmD0Ev @ 91 NONAME
	_ZN22CScheduleBaseServerMtmD1Ev @ 92 NONAME
	_ZN22CScheduleBaseServerMtmD2Ev @ 93 NONAME
	_ZN27TMsvSysAgentConditionAction12InternalizeLER11RReadStream @ 94 NONAME
	_ZN27TMsvSysAgentConditionActionC1Ev @ 95 NONAME
	_ZN27TMsvSysAgentConditionActionC2Ev @ 96 NONAME
	_ZNK15TMsvOffPeakTime12ExternalizeLER12RWriteStream @ 97 NONAME
	_ZNK15TMsvOffPeakTime14ValidityPeriodEv @ 98 NONAME
	_ZNK15TMsvOffPeakTime17NextTimeInclusiveERK5TTime @ 99 NONAME
	_ZNK15TMsvOffPeakTime3DayEv @ 100 NONAME
	_ZNK15TMsvOffPeakTime4HourEv @ 101 NONAME
	_ZNK15TMsvOffPeakTime6MinuteEv @ 102 NONAME
	_ZNK16CMsvOffPeakTimes18GetNextOffPeakTimeERK5TTimeR15TMsvOffPeakTimeRS0_ @ 103 NONAME
	_ZNK16CMsvOffPeakTimes6StoreLER9CMsvStore @ 104 NONAME
	_ZNK18CMsvScheduledEntry5EntryER9TMsvEntry @ 105 NONAME
	_ZNK18CMsvScheduledEntry6StoreLER9CMsvStore @ 106 NONAME
	_ZNK19CMsvSysAgentActions6StoreLER9CMsvStore @ 107 NONAME
	_ZNK19TMsvSchedulePackage6PackLCER9TTaskInfoRP7HBufC16 @ 108 NONAME
	_ZNK19TMsvSendErrorAction10MaxRetriesEv @ 109 NONAME
	_ZNK19TMsvSendErrorAction12ExternalizeLER12RWriteStream @ 110 NONAME
	_ZNK20CMsvScheduleSettings12IntervalTypeEv @ 111 NONAME
	_ZNK20CMsvScheduleSettings12LongIntervalEv @ 112 NONAME
	_ZNK20CMsvScheduleSettings13ShortIntervalEv @ 113 NONAME
	_ZNK20CMsvScheduleSettings14ValidityPeriodEv @ 114 NONAME
	_ZNK20CMsvScheduleSettings17VariableIntervalsEv @ 115 NONAME
	_ZNK20CMsvScheduleSettings6StoreLER9CMsvStore @ 116 NONAME
	_ZNK20CMsvScheduleSettings7LatencyEv @ 117 NONAME
	_ZNK20CMsvScheduleSettings7SendExeEv @ 118 NONAME
	_ZNK20CMsvScheduleSettings8PriorityEv @ 119 NONAME
	_ZNK20CMsvSendErrorActions18GetSendErrorActionEiR19TMsvSendErrorAction @ 120 NONAME
	_ZNK20CMsvSendErrorActions6ErrorsEv @ 121 NONAME
	_ZNK20CMsvSendErrorActions6StoreLER9CMsvStore @ 122 NONAME
	_ZNK20CMsvSendErrorActions7DefaultEv @ 123 NONAME
	_ZNK21TMsvEntryScheduleData6StoreLER9CMsvStore @ 124 NONAME
	_ZNK21TMsvEntryScheduleData7IsResetEv @ 125 NONAME
	_ZNK21TMsvEntryScheduleData7RemoveLER9CMsvStore @ 126 NONAME
	_ZNK21TMsvEntryScheduleData7RetriesEv @ 127 NONAME
	_ZNK27TMsvSysAgentConditionAction12ExternalizeLER12RWriteStream @ 128 NONAME
	_ZTV20CMsvSendErrorActions @ 129 NONAME ; #<VT>#
	_ZTI16CMsvScheduleSend @ 130 NONAME ; #<TI>#
	_ZTI18CMsvScheduledEntry @ 131 NONAME ; #<TI>#
	_ZTI19CMsvSysAgentActions @ 132 NONAME ; #<TI>#
	_ZTI22CScheduleBaseServerMtm @ 133 NONAME ; #<TI>#
	_ZTV16CMsvScheduleSend @ 134 NONAME ; #<VT>#
	_ZN16CMsvScheduleSend13FindScheduleLER10RSchedulerRK13CArrayFixFlatI23TTaskSchedulerConditionERK5TTimeR17TSchedulerItemRef @ 135 NONAME
	_ZN16CMsvScheduleSend15CreateScheduleLER10RSchedulerRK13CArrayFixFlatI23TTaskSchedulerConditionERK5TTimeR17TSchedulerItemRef @ 136 NONAME
	_ZN18CMsvScheduledEntry20SetPendingConditionsEi @ 137 NONAME
	_ZN20CMsvScheduleSettings27SetPendingConditionsTimeoutERK20TTimeIntervalMinutes @ 138 NONAME
	_ZNK18CMsvScheduledEntry17PendingConditionsEv @ 139 NONAME
	_ZNK20CMsvScheduleSettings24PendingConditionsTimeoutEv @ 140 NONAME
	_ZTI20CMsvScheduleSettings @ 141 NONAME ; #<TI>#
	_ZTI20CMsvSendErrorActions @ 142 NONAME ; #<TI>#
	_ZTV20CMsvScheduleSettings @ 143 NONAME ; #<VT>#
	_ZN16CMsvScheduleSend21LoadScheduleSettingsLER11CRepository @ 144 NONAME
	_ZN20CMsvScheduleSettings5NewLCEv @ 145 NONAME
	_ZN20CMsvSendErrorActions5NewLCEv @ 146 NONAME
	_ZN22CScheduleBaseServerMtm21LoadScheduleSettingsLER11CRepositoryii @ 147 NONAME
	_ZN25TMsvScheduleSettingsUtils20LoadOffPeakSettingsLER16CMsvOffPeakTimesR11CRepository @ 148 NONAME
	_ZN25TMsvScheduleSettingsUtils20SaveOffPeakSettingsLERK16CMsvOffPeakTimesR11CRepository @ 149 NONAME
	_ZN25TMsvScheduleSettingsUtils21LoadScheduleSettingsLER20CMsvScheduleSettingsR11CRepository @ 150 NONAME
	_ZN25TMsvScheduleSettingsUtils21LoadSysAgentSettingsLER19CMsvSysAgentActionsR11CRepository @ 151 NONAME
	_ZN25TMsvScheduleSettingsUtils21SaveScheduleSettingsLERK20CMsvScheduleSettingsR11CRepository @ 152 NONAME
	_ZN25TMsvScheduleSettingsUtils21SaveSysAgentSettingsLERK19CMsvSysAgentActionsR11CRepository @ 153 NONAME
	_ZN25TMsvScheduleSettingsUtils22LoadSendErrorSettingsLER20CMsvSendErrorActionsR11CRepository @ 154 NONAME
	_ZN25TMsvScheduleSettingsUtils22SaveSendErrorSettingsLERK20CMsvSendErrorActionsR11CRepository @ 155 NONAME
	_ZN20CMsvSendErrorActions5ResetEv @ 156 NONAME

