EXPORTS
	?DeleteItem@CTestMenuView@@IAEXH@Z @ 1 NONAME ; void CTestMenuView::DeleteItem(int)
	?NewL@CConsoleMain@@SAPAV1@PAVCActiveScheduler@@@Z @ 2 NONAME ; class CConsoleMain * CConsoleMain::NewL(class CActiveScheduler *)
	??1CTestBaseView@@UAE@XZ @ 3 NONAME ; CTestBaseView::~CTestBaseView(void)
	?TestLog@TestUtility@@SAXPAVCStifLogger@@V?$TRefByValue@$$CBVTDesC16@@@@ZZ @ 4 NONAME ; void TestUtility::TestLog(class CStifLogger *, class TRefByValue<class TDesC16 const >, ...)
	?ConstructL@CTestMenuView@@IAEXXZ @ 5 NONAME ; void CTestMenuView::ConstructL(void)
	??0CTestMenuView@@IAE@PAVCConsoleMain@@PAVCTestBaseView@@ABVTDesC16@@@Z @ 6 NONAME ; CTestMenuView::CTestMenuView(class CConsoleMain *, class CTestBaseView *, class TDesC16 const &)
	??1CTestPlaybackView@@UAE@XZ @ 7 NONAME ; CTestPlaybackView::~CTestPlaybackView(void)
	?CurrentPosition@CTestMenuView@@IAEHXZ @ 8 NONAME ; int CTestMenuView::CurrentPosition(void)
	?SetParent@CTestBaseView@@QAEXPAV1@@Z @ 9 NONAME ; void CTestBaseView::SetParent(class CTestBaseView *)
	?CurrentIndex@CTestMenuView@@IAEHXZ @ 10 NONAME ; int CTestMenuView::CurrentIndex(void)
	?UpdateSongInfo@CTestPlaybackView@@QAEXABVTDesC16@@0@Z @ 11 NONAME ; void CTestPlaybackView::UpdateSongInfo(class TDesC16 const &, class TDesC16 const &)
	?NewL@CTestPlaybackView@@SAPAV1@PAVCConsoleMain@@PAVCTestBaseView@@ABVTDesC16@@PAVCStifLogger@@@Z @ 12 NONAME ; class CTestPlaybackView * CTestPlaybackView::NewL(class CConsoleMain *, class CTestBaseView *, class TDesC16 const &, class CStifLogger *)
	?ItemCount@CTestMenuView@@IBEHXZ @ 13 NONAME ; int CTestMenuView::ItemCount(void) const
	?DisplayViewL@CTestMenuView@@UAEXXZ @ 14 NONAME ; void CTestMenuView::DisplayViewL(void)
	?Parent@CTestBaseView@@QAEPAV1@XZ @ 15 NONAME ; class CTestBaseView * CTestBaseView::Parent(void)
	?StateChanged@CTestPlaybackView@@QAEXW4TTestPlaybackState@@@Z @ 16 NONAME ; void CTestPlaybackView::StateChanged(enum TTestPlaybackState)
	?UpdateProgress@CTestPlaybackView@@QAEXHH@Z @ 17 NONAME ; void CTestPlaybackView::UpdateProgress(int, int)
	??1CTestMenuView@@UAE@XZ @ 18 NONAME ; CTestMenuView::~CTestMenuView(void)
	?Stop@CConsoleMain@@QAEXXZ @ 19 NONAME ; void CConsoleMain::Stop(void)
	?SelectL@CTestMenuView@@UAEXW4TKeyCode@@AAH@Z @ 20 NONAME ; void CTestMenuView::SelectL(enum TKeyCode, int &)
	?UpdateItemIndex@CTestPlaybackView@@QAEXHH@Z @ 21 NONAME ; void CTestPlaybackView::UpdateItemIndex(int, int)
	?Name@CTestBaseView@@QBEABVTDesC16@@XZ @ 22 NONAME ; class TDesC16 const & CTestBaseView::Name(void) const
	?SetName@CTestBaseView@@QAEXABVTDesC16@@@Z @ 23 NONAME ; void CTestBaseView::SetName(class TDesC16 const &)
	?ActivateL@CConsoleMain@@QAEXPAVCTestBaseView@@@Z @ 24 NONAME ; void CConsoleMain::ActivateL(class CTestBaseView *)
	?CurrentViewDoneL@CTestBaseView@@IAEXXZ @ 25 NONAME ; void CTestBaseView::CurrentViewDoneL(void)
	??0CTestBaseView@@IAE@PAVCConsoleMain@@PAV0@ABVTDesC16@@@Z @ 26 NONAME ; CTestBaseView::CTestBaseView(class CConsoleMain *, class CTestBaseView *, class TDesC16 const &)
	?PrintMulti@CTestMenuView@@IAEXABVTDesC16@@@Z @ 27 NONAME ; void CTestMenuView::PrintMulti(class TDesC16 const &)
	?LastKeyPressed@CTestMenuView@@IAE?AW4TKeyCode@@XZ @ 28 NONAME ; enum TKeyCode CTestMenuView::LastKeyPressed(void)
	?ItemL@CTestMenuView@@IAE?AVTPtrC16@@H@Z @ 29 NONAME ; class TPtrC16 CTestMenuView::ItemL(int)
	?AddObserver@CTestPlaybackView@@QAEXPAVMTestPlaybackViewObserver@@@Z @ 30 NONAME ; void CTestPlaybackView::AddObserver(class MTestPlaybackViewObserver *)
	?ItemsCreated@CTestMenuView@@IAEHXZ @ 31 NONAME ; int CTestMenuView::ItemsCreated(void)
	?TimerUpdate@CTestMenuView@@UAEXXZ @ 32 NONAME ; void CTestMenuView::TimerUpdate(void)
	?UpdateVolume@CTestPlaybackView@@QAEXHH@Z @ 33 NONAME ; void CTestPlaybackView::UpdateVolume(int, int)
	?NextViewL@CTestBaseView@@IAEXPAV1@@Z @ 34 NONAME ; void CTestBaseView::NextViewL(class CTestBaseView *)
	?ConvertStrToDecL@TestUtility@@SAHABVTDesC16@@@Z @ 35 NONAME ; int TestUtility::ConvertStrToDecL(class TDesC16 const &)
	?ReadString@CTestMenuView@@IAEXAAVTDes16@@@Z @ 36 NONAME ; void CTestMenuView::ReadString(class TDes16 &)
	?AddItemL@CTestMenuView@@IAEXABVTDesC16@@@Z @ 37 NONAME ; void CTestMenuView::AddItemL(class TDesC16 const &)
	?ReadString@CConsoleMain@@QAEXAAVTDes16@@@Z @ 38 NONAME ; void CConsoleMain::ReadString(class TDes16 &)
	?Print@CTestMenuView@@IAEXABVTDesC16@@@Z @ 39 NONAME ; void CTestMenuView::Print(class TDesC16 const &)

