EXPORTS
	?Create@TMSEffectImpl@TMS@@SAHHAAPAVTMSEffect@2@@Z @ 1 NONAME ; int TMS::TMSEffectImpl::Create(int, class TMS::TMSEffect * &)
	?Create@TMSDTMFImpl@TMS@@SAHHAAPAVTMSDTMF@2@@Z @ 2 NONAME ; int TMS::TMSDTMFImpl::Create(int, class TMS::TMSDTMF * &)
	?Delete@TMSDTMFImpl@TMS@@SAHAAPAVTMSDTMF@2@@Z @ 3 NONAME ; int TMS::TMSDTMFImpl::Delete(class TMS::TMSDTMF * &)
	?Create@TMSSourceImpl@TMS@@SAHHAAPAVTMSSource@2@@Z @ 4 NONAME ; int TMS::TMSSourceImpl::Create(int, class TMS::TMSSource * &)
	?Delete@TMSRingToneImpl@TMS@@SAHAAPAVTMSRingTone@2@@Z @ 5 NONAME ; int TMS::TMSRingToneImpl::Delete(class TMS::TMSRingTone * &)
	?Create@TMSRingToneImpl@TMS@@SAHAAPAVTMSRingTone@2@@Z @ 6 NONAME ; int TMS::TMSRingToneImpl::Create(class TMS::TMSRingTone * &)
	?Delete@TMSFormatImpl@TMS@@SAHAAPAVTMSFormat@2@@Z @ 7 NONAME ; int TMS::TMSFormatImpl::Delete(class TMS::TMSFormat * &)
	?Delete@TMSCallImpl@TMS@@SAHAAPAVTMSCall@2@@Z @ 8 NONAME ; int TMS::TMSCallImpl::Delete(class TMS::TMSCall * &)
	?Delete@TMSSinkImpl@TMS@@SAHAAPAVTMSSink@2@@Z @ 9 NONAME ; int TMS::TMSSinkImpl::Delete(class TMS::TMSSink * &)
	?Delete@TMSBufferImpl@TMS@@SAHAAPAVTMSBuffer@2@@Z @ 10 NONAME ; int TMS::TMSBufferImpl::Delete(class TMS::TMSBuffer * &)
	?Delete@TMSSourceImpl@TMS@@SAHAAPAVTMSSource@2@@Z @ 11 NONAME ; int TMS::TMSSourceImpl::Delete(class TMS::TMSSource * &)
	?Delete@TMSEffectImpl@TMS@@SAHAAPAVTMSEffect@2@@Z @ 12 NONAME ; int TMS::TMSEffectImpl::Delete(class TMS::TMSEffect * &)
	?Create@TMSBufferImpl@TMS@@SAHHIAAPAVTMSBuffer@2@@Z @ 13 NONAME ; int TMS::TMSBufferImpl::Create(int, unsigned int, class TMS::TMSBuffer * &)
	?Create@TMSCallImpl@TMS@@SAHHAAPAVTMSCall@2@I@Z @ 14 NONAME ; int TMS::TMSCallImpl::Create(int, class TMS::TMSCall * &, unsigned int)
	?Delete@TMSGlobalRoutingImpl@TMS@@SAHAAPAVTMSGlobalRouting@2@@Z @ 15 NONAME ; int TMS::TMSGlobalRoutingImpl::Delete(class TMS::TMSGlobalRouting * &)
	?Create@TMSRingToneImpl@TMS@@SAHAAPAVTMSRingTone@2@AAVRWindow@@H@Z @ 16 NONAME ; int TMS::TMSRingToneImpl::Create(class TMS::TMSRingTone * &, class RWindow &, int)
	?Delete@TMSInbandToneImpl@TMS@@SAHAAPAVTMSInbandTone@2@@Z @ 17 NONAME ; int TMS::TMSInbandToneImpl::Delete(class TMS::TMSInbandTone * &)
	?Create@TMSSinkImpl@TMS@@SAHHAAPAVTMSSink@2@@Z @ 18 NONAME ; int TMS::TMSSinkImpl::Create(int, class TMS::TMSSink * &)
	?Create@TMSInbandToneImpl@TMS@@SAHAAPAVTMSInbandTone@2@@Z @ 19 NONAME ; int TMS::TMSInbandToneImpl::Create(class TMS::TMSInbandTone * &)
	?Create@TMSFormatImpl@TMS@@SAHHAAPAVTMSFormat@2@@Z @ 20 NONAME ; int TMS::TMSFormatImpl::Create(int, class TMS::TMSFormat * &)
	?Create@TMSGlobalRoutingImpl@TMS@@SAHAAPAVTMSGlobalRouting@2@@Z @ 21 NONAME ; int TMS::TMSGlobalRoutingImpl::Create(class TMS::TMSGlobalRouting * &)

