EXPORTS
	??0TPresCondIdentityMany@@QAE@XZ @ 1 NONAME ; TPresCondIdentityMany::TPresCondIdentityMany(void)
	??0TPresCondIdentityOne@@QAE@XZ @ 2 NONAME ; TPresCondIdentityOne::TPresCondIdentityOne(void)
	??0TPresCondMisc@@QAE@XZ @ 3 NONAME ; TPresCondMisc::TPresCondMisc(void)
	??0TPresCondSphere@@QAE@XZ @ 4 NONAME ; TPresCondSphere::TPresCondSphere(void)
	??0TPresCondValidity@@QAE@XZ @ 5 NONAME ; TPresCondValidity::TPresCondValidity(void)
	??0TPresenceActionXDM@@QAE@XZ @ 6 NONAME ; TPresenceActionXDM::TPresenceActionXDM(void)
	??0TPresenceTransformXDM@@QAE@XZ @ 7 NONAME ; TPresenceTransformXDM::TPresenceTransformXDM(void)
	?AddAnonymousRequestL@TPresCondMisc@@QAEHABVTDesC16@@@Z @ 8 NONAME ; int TPresCondMisc::AddAnonymousRequestL(class TDesC16 const &)
	?AddElementL@CRLSXDM@@QAEHABVTDesC16@@00@Z @ 9 NONAME ; int CRLSXDM::AddElementL(class TDesC16 const &, class TDesC16 const &, class TDesC16 const &)
	?AddExternListL@TPresCondMisc@@QAEHABVTDesC16@@0@Z @ 10 NONAME ; int TPresCondMisc::AddExternListL(class TDesC16 const &, class TDesC16 const &)
	?AddIdentitiesInManyExceptL@TPresCondIdentityMany@@QAEHABVTDesC16@@ABVCDesC16Array@@0@Z @ 11 NONAME ; int TPresCondIdentityMany::AddIdentitiesInManyExceptL(class TDesC16 const &, class CDesC16Array const &, class TDesC16 const &)
	?AddIdentitiesL@TPresCondIdentityOne@@QAEHABVTDesC16@@ABVMDesC16Array@@@Z @ 12 NONAME ; int TPresCondIdentityOne::AddIdentitiesL(class TDesC16 const &, class MDesC16Array const &)
	?AddIdentityInManyExceptL@TPresCondIdentityMany@@QAEHABVTDesC16@@00@Z @ 13 NONAME ; int TPresCondIdentityMany::AddIdentityInManyExceptL(class TDesC16 const &, class TDesC16 const &, class TDesC16 const &)
	?AddIdentityL@TPresCondIdentityOne@@QAEHABVTDesC16@@0@Z @ 14 NONAME ; int TPresCondIdentityOne::AddIdentityL(class TDesC16 const &, class TDesC16 const &)
	?AddManyIdentityL@TPresCondIdentityMany@@QAEHABVTDesC16@@0@Z @ 15 NONAME ; int TPresCondIdentityMany::AddManyIdentityL(class TDesC16 const &, class TDesC16 const &)
	?AddOrRepProvideAllTransComplexL@TPresenceTransformXDM@@QAEHABVTDesC16@@0@Z @ 16 NONAME ; int TPresenceTransformXDM::AddOrRepProvideAllTransComplexL(class TDesC16 const &, class TDesC16 const &)
	?AddOrRepTransKnownBoolL@TPresenceTransformXDM@@QAEHABVTDesC16@@0H@Z @ 17 NONAME ; int TPresenceTransformXDM::AddOrRepTransKnownBoolL(class TDesC16 const &, class TDesC16 const &, int)
	?AddOrRepTransUnknownBoolL@TPresenceTransformXDM@@QAEHABVTDesC16@@0H@Z @ 18 NONAME ; int TPresenceTransformXDM::AddOrRepTransUnknownBoolL(class TDesC16 const &, class TDesC16 const &, int)
	?AddOrReplaceActionL@TPresenceActionXDM@@QAEHABVTDesC16@@0@Z @ 19 NONAME ; int TPresenceActionXDM::AddOrReplaceActionL(class TDesC16 const &, class TDesC16 const &)
	?AddOrReplaceSphereL@TPresCondSphere@@QAEHABVTDesC16@@0@Z @ 20 NONAME ; int TPresCondSphere::AddOrReplaceSphereL(class TDesC16 const &, class TDesC16 const &)
	?AddOtherIdentityL@TPresCondMisc@@QAEHABVTDesC16@@@Z @ 21 NONAME ; int TPresCondMisc::AddOtherIdentityL(class TDesC16 const &)
	?AddServiceURIL@CRLSXDM@@QAEHABVTDesC16@@@Z @ 22 NONAME ; int CRLSXDM::AddServiceURIL(class TDesC16 const &)
	?AddTransComplexL@TPresenceTransformXDM@@QAEHABVTDesC16@@0ABV?$RArray@UTTransDataCompo@@@@@Z @ 23 NONAME ; int TPresenceTransformXDM::AddTransComplexL(class TDesC16 const &, class TDesC16 const &, class RArray<struct TTransDataCompo> const &)
	?AddValidityL@TPresCondValidity@@QAEHABVTDesC16@@UTTimePeriod@@@Z @ 24 NONAME ; int TPresCondValidity::AddValidityL(class TDesC16 const &, struct TTimePeriod)
	?CancelUpdateL@CPresenceXDM@@QAEXXZ @ 25 NONAME ; void CPresenceXDM::CancelUpdateL(void)
	?CancelUpdateL@CRLSXDM@@QAEXXZ @ 26 NONAME ; void CRLSXDM::CancelUpdateL(void)
	?CreateNewRuleL@CPresenceXDM@@QAEHAAVTDes16@@@Z @ 27 NONAME ; int CPresenceXDM::CreateNewRuleL(class TDes16 &)
	?DeleteAll@CRLSXDM@@QAEXXZ @ 28 NONAME ; void CRLSXDM::DeleteAll(void)
	?DeleteAllEmptyLists@CRLSXDM@@QAEHPAVMRLSPresXDMAsyncHandler@@@Z @ 29 NONAME ; int CRLSXDM::DeleteAllEmptyLists(class MRLSPresXDMAsyncHandler *)
	?DeleteAllEmptyServiceUrisL@CRLSXDM@@QAEXXZ @ 30 NONAME ; void CRLSXDM::DeleteAllEmptyServiceUrisL(void)
	?DeleteAllExternalListsL@TPresCondMisc@@QAEXABVTDesC16@@@Z @ 31 NONAME ; void TPresCondMisc::DeleteAllExternalListsL(class TDesC16 const &)
	?DeleteAllIdentitiesFromManyExceptL@TPresCondIdentityMany@@QAEHABVTDesC16@@0@Z @ 32 NONAME ; int TPresCondIdentityMany::DeleteAllIdentitiesFromManyExceptL(class TDesC16 const &, class TDesC16 const &)
	?DeleteAllIdentitiesL@TPresCondIdentityOne@@QAEXABVTDesC16@@@Z @ 33 NONAME ; void TPresCondIdentityOne::DeleteAllIdentitiesL(class TDesC16 const &)
	?DeleteAllRules@CPresenceXDM@@QAEXXZ @ 34 NONAME ; void CPresenceXDM::DeleteAllRules(void)
	?DeleteAllValidityL@TPresCondValidity@@QAEHABVTDesC16@@@Z @ 35 NONAME ; int TPresCondValidity::DeleteAllValidityL(class TDesC16 const &)
	?DeleteEmptyRulesL@CPresenceXDM@@QAEXXZ @ 36 NONAME ; void CPresenceXDM::DeleteEmptyRulesL(void)
	?DeleteExternalListL@TPresCondMisc@@QAEHABVTDesC16@@0@Z @ 37 NONAME ; int TPresCondMisc::DeleteExternalListL(class TDesC16 const &, class TDesC16 const &)
	?DeleteExternalListsL@TPresCondMisc@@QAEXABVTDesC16@@ABVMDesC16Array@@@Z @ 38 NONAME ; void TPresCondMisc::DeleteExternalListsL(class TDesC16 const &, class MDesC16Array const &)
	?DeleteIdentitiesL@TPresCondIdentityOne@@QAEXABVTDesC16@@ABVMDesC16Array@@@Z @ 39 NONAME ; void TPresCondIdentityOne::DeleteIdentitiesL(class TDesC16 const &, class MDesC16Array const &)
	?DeleteIdentityL@TPresCondIdentityOne@@QAEHABVTDesC16@@0@Z @ 40 NONAME ; int TPresCondIdentityOne::DeleteIdentityL(class TDesC16 const &, class TDesC16 const &)
	?DeleteRuleL@CPresenceXDM@@QAEHABVTDesC16@@@Z @ 41 NONAME ; int CPresenceXDM::DeleteRuleL(class TDesC16 const &)
	?DeleteSphereL@TPresCondSphere@@QAEHABVTDesC16@@@Z @ 42 NONAME ; int TPresCondSphere::DeleteSphereL(class TDesC16 const &)
	?GetActionL@TPresenceActionXDM@@QAEHABVTDesC16@@AAVTDes16@@@Z @ 43 NONAME ; int TPresenceActionXDM::GetActionL(class TDesC16 const &, class TDes16 &)
	?GetAllRulesL@CPresenceXDM@@QAEXAAVCDesC16Array@@@Z @ 44 NONAME ; void CPresenceXDM::GetAllRulesL(class CDesC16Array &)
	?GetCurrentPathL@CRLSXDM@@QAEXAAVCDesC16Array@@@Z @ 45 NONAME ; void CRLSXDM::GetCurrentPathL(class CDesC16Array &)
	?GetDisplayName@CRLSXDM@@QAEHABVTDesC16@@0AAVTPtrC8@@@Z @ 46 NONAME ; int CRLSXDM::GetDisplayName(class TDesC16 const &, class TDesC16 const &, class TPtrC8 &)
	?GetElementsL@CRLSXDM@@QAEXABVTDesC16@@AAVCDesC16Array@@@Z @ 47 NONAME ; void CRLSXDM::GetElementsL(class TDesC16 const &, class CDesC16Array &)
	?GetExternalListsL@TPresCondMisc@@QAEXABVTDesC16@@AAVCDesC16Array@@@Z @ 48 NONAME ; void TPresCondMisc::GetExternalListsL(class TDesC16 const &, class CDesC16Array &)
	?GetIdentitiesFromManyExceptL@TPresCondIdentityMany@@QAEHABVTDesC16@@AAVCDesC16Array@@0@Z @ 49 NONAME ; int TPresCondIdentityMany::GetIdentitiesFromManyExceptL(class TDesC16 const &, class CDesC16Array &, class TDesC16 const &)
	?GetIdentitiesL@TPresCondIdentityOne@@QAEXABVTDesC16@@AAVCDesC16Array@@@Z @ 50 NONAME ; void TPresCondIdentityOne::GetIdentitiesL(class TDesC16 const &, class CDesC16Array &)
	?GetManyIdentityElementsL@TPresCondIdentityMany@@QAEHABVTDesC16@@AAVCDesC16Array@@@Z @ 51 NONAME ; int TPresCondIdentityMany::GetManyIdentityElementsL(class TDesC16 const &, class CDesC16Array &)
	?GetServiceUrisL@CRLSXDM@@QAEXAAVCDesC16Array@@@Z @ 52 NONAME ; void CRLSXDM::GetServiceUrisL(class CDesC16Array &)
	?GetSphereL@TPresCondSphere@@QAEHABVTDesC16@@AAVTPtrC16@@@Z @ 53 NONAME ; int TPresCondSphere::GetSphereL(class TDesC16 const &, class TPtrC16 &)
	?GetTransComplexL@TPresenceTransformXDM@@QAEHABVTDesC16@@0AAV?$RArray@UTTransDataCompo@@@@@Z @ 54 NONAME ; int TPresenceTransformXDM::GetTransComplexL(class TDesC16 const &, class TDesC16 const &, class RArray<struct TTransDataCompo> &)
	?GetTransKnownBoolL@TPresenceTransformXDM@@QAEHABVTDesC16@@0AAH@Z @ 55 NONAME ; int TPresenceTransformXDM::GetTransKnownBoolL(class TDesC16 const &, class TDesC16 const &, int &)
	?GetTransUnknownBoolL@TPresenceTransformXDM@@QAEHABVTDesC16@@0AAH@Z @ 56 NONAME ; int TPresenceTransformXDM::GetTransUnknownBoolL(class TDesC16 const &, class TDesC16 const &, int &)
	?GetValidityL@TPresCondValidity@@QAEHABVTDesC16@@AAV?$RArray@UTTimePeriod@@@@@Z @ 57 NONAME ; int TPresCondValidity::GetValidityL(class TDesC16 const &, class RArray<struct TTimePeriod> &)
	?Init@TPresCondIdentityMany@@QAEXPAVCPresenceXDM@@@Z @ 58 NONAME ; void TPresCondIdentityMany::Init(class CPresenceXDM *)
	?Init@TPresCondIdentityOne@@QAEXPAVCPresenceXDM@@@Z @ 59 NONAME ; void TPresCondIdentityOne::Init(class CPresenceXDM *)
	?Init@TPresCondMisc@@QAEXPAVCPresenceXDM@@@Z @ 60 NONAME ; void TPresCondMisc::Init(class CPresenceXDM *)
	?Init@TPresCondSphere@@QAEXPAVCPresenceXDM@@@Z @ 61 NONAME ; void TPresCondSphere::Init(class CPresenceXDM *)
	?Init@TPresCondValidity@@QAEXPAVCPresenceXDM@@@Z @ 62 NONAME ; void TPresCondValidity::Init(class CPresenceXDM *)
	?Init@TPresenceActionXDM@@QAEXPAVCPresenceXDM@@@Z @ 63 NONAME ; void TPresenceActionXDM::Init(class CPresenceXDM *)
	?Init@TPresenceTransformXDM@@QAEXPAVCPresenceXDM@@@Z @ 64 NONAME ; void TPresenceTransformXDM::Init(class CPresenceXDM *)
	?IsAnonymousRequestExistL@TPresCondMisc@@QAEHABVTDesC16@@@Z @ 65 NONAME ; int TPresCondMisc::IsAnonymousRequestExistL(class TDesC16 const &)
	?IsElementExist@CRLSXDM@@QAEHABVTDesC16@@0@Z @ 66 NONAME ; int CRLSXDM::IsElementExist(class TDesC16 const &, class TDesC16 const &)
	?IsExistServiceURI@CRLSXDM@@QAEHABVTDesC16@@@Z @ 67 NONAME ; int CRLSXDM::IsExistServiceURI(class TDesC16 const &)
	?IsExternListExistL@TPresCondMisc@@QAEHABVTDesC16@@0@Z @ 68 NONAME ; int TPresCondMisc::IsExternListExistL(class TDesC16 const &, class TDesC16 const &)
	?IsIdentityExistL@TPresCondIdentityOne@@QAEHABVTDesC16@@0@Z @ 69 NONAME ; int TPresCondIdentityOne::IsIdentityExistL(class TDesC16 const &, class TDesC16 const &)
	?IsIdentityExistsInManyExceptL@TPresCondIdentityMany@@QAEHABVTDesC16@@00@Z @ 70 NONAME ; int TPresCondIdentityMany::IsIdentityExistsInManyExceptL(class TDesC16 const &, class TDesC16 const &, class TDesC16 const &)
	?IsManyExistsL@TPresCondIdentityMany@@QAEHABVTDesC16@@0@Z @ 71 NONAME ; int TPresCondIdentityMany::IsManyExistsL(class TDesC16 const &, class TDesC16 const &)
	?IsOtherIdentityExistL@TPresCondMisc@@QAEHABVTDesC16@@@Z @ 72 NONAME ; int TPresCondMisc::IsOtherIdentityExistL(class TDesC16 const &)
	?IsRuleExist@CPresenceXDM@@QAEHABVTDesC16@@@Z @ 73 NONAME ; int CPresenceXDM::IsRuleExist(class TDesC16 const &)
	?IsTimeValidL@TPresCondValidity@@QAEHABVTDesC16@@UTTimePeriod@@@Z @ 74 NONAME ; int TPresCondValidity::IsTimeValidL(class TDesC16 const &, struct TTimePeriod)
	?IsTransformExistL@TPresenceTransformXDM@@QAEHABVTDesC16@@0@Z @ 75 NONAME ; int TPresenceTransformXDM::IsTransformExistL(class TDesC16 const &, class TDesC16 const &)
	?NewL@CPresenceXDM@@SAPAV1@H@Z @ 76 NONAME ; class CPresenceXDM * CPresenceXDM::NewL(int)
	?NewL@CRLSXDM@@SAPAV1@H@Z @ 77 NONAME ; class CRLSXDM * CRLSXDM::NewL(int)
	?NewLC@CPresenceXDM@@SAPAV1@H@Z @ 78 NONAME ; class CPresenceXDM * CPresenceXDM::NewLC(int)
	?NewLC@CRLSXDM@@SAPAV1@H@Z @ 79 NONAME ; class CRLSXDM * CRLSXDM::NewLC(int)
	?RemoveActionL@TPresenceActionXDM@@QAEHABVTDesC16@@@Z @ 80 NONAME ; int TPresenceActionXDM::RemoveActionL(class TDesC16 const &)
	?RemoveAnonymousRequestL@TPresCondMisc@@QAEHABVTDesC16@@@Z @ 81 NONAME ; int TPresCondMisc::RemoveAnonymousRequestL(class TDesC16 const &)
	?RemoveElementL@CRLSXDM@@QAEHABVTDesC16@@0@Z @ 82 NONAME ; int CRLSXDM::RemoveElementL(class TDesC16 const &, class TDesC16 const &)
	?RemoveIdentityFromManyExceptL@TPresCondIdentityMany@@QAEHABVTDesC16@@00@Z @ 83 NONAME ; int TPresCondIdentityMany::RemoveIdentityFromManyExceptL(class TDesC16 const &, class TDesC16 const &, class TDesC16 const &)
	?RemoveManyIdentityL@TPresCondIdentityMany@@QAEHABVTDesC16@@0@Z @ 84 NONAME ; int TPresCondIdentityMany::RemoveManyIdentityL(class TDesC16 const &, class TDesC16 const &)
	?RemoveOtherIdentityL@TPresCondMisc@@QAEHABVTDesC16@@@Z @ 85 NONAME ; int TPresCondMisc::RemoveOtherIdentityL(class TDesC16 const &)
	?RemoveServiceURIL@CRLSXDM@@QAEHABVTDesC16@@@Z @ 86 NONAME ; int CRLSXDM::RemoveServiceURIL(class TDesC16 const &)
	?RemoveTransformL@TPresenceTransformXDM@@QAEHABVTDesC16@@0@Z @ 87 NONAME ; int TPresenceTransformXDM::RemoveTransformL(class TDesC16 const &, class TDesC16 const &)
	?RenameListL@CRLSXDM@@QAEHABVTDesC16@@0@Z @ 88 NONAME ; int CRLSXDM::RenameListL(class TDesC16 const &, class TDesC16 const &)
	?SetCurrentpathL@CRLSXDM@@QAEHABVMDesC16Array@@@Z @ 89 NONAME ; int CRLSXDM::SetCurrentpathL(class MDesC16Array const &)
	?SwitchOutFromList@CRLSXDM@@QAEXXZ @ 90 NONAME ; void CRLSXDM::SwitchOutFromList(void)
	?SwitchToListL@CRLSXDM@@QAEHABVTDesC16@@@Z @ 91 NONAME ; int CRLSXDM::SwitchToListL(class TDesC16 const &)
	?SwitchToServiceURIL@CRLSXDM@@QAEHABVTDesC16@@@Z @ 92 NONAME ; int CRLSXDM::SwitchToServiceURIL(class TDesC16 const &)
	?UpdateAllFromServerL@CPresenceXDM@@QAEHPAVMRLSPresXDMAsyncHandler@@@Z @ 93 NONAME ; int CPresenceXDM::UpdateAllFromServerL(class MRLSPresXDMAsyncHandler *)
	?UpdateAllFromServerL@CRLSXDM@@QAEHPAVMRLSPresXDMAsyncHandler@@@Z @ 94 NONAME ; int CRLSXDM::UpdateAllFromServerL(class MRLSPresXDMAsyncHandler *)
	?UpdateDisplayNameL@CRLSXDM@@QAEHABVTDesC16@@00@Z @ 95 NONAME ; int CRLSXDM::UpdateDisplayNameL(class TDesC16 const &, class TDesC16 const &, class TDesC16 const &)
	?UpdateToServerL@CPresenceXDM@@QAEHPAVMRLSPresXDMAsyncHandler@@@Z @ 96 NONAME ; int CPresenceXDM::UpdateToServerL(class MRLSPresXDMAsyncHandler *)
	?UpdateToServerL@CRLSXDM@@QAEHPAVMRLSPresXDMAsyncHandler@@@Z @ 97 NONAME ; int CRLSXDM::UpdateToServerL(class MRLSPresXDMAsyncHandler *)
	?NegotiatedServiceUri@CRLSXDM@@QAE?AVTPtrC16@@XZ @ 98 NONAME ; class TPtrC16 CRLSXDM::NegotiatedServiceUri(void)

