EXPORTS
	_ZN15CSmsBaseWatcher10ConstructLEv @ 1 NONAME
	_ZN15CSmsBaseWatcher10DeleteBifLE4TUid @ 2 NONAME
	_ZN15CSmsBaseWatcher10ReloadBifLE4TUid @ 3 NONAME
	_ZN15CSmsBaseWatcher14CompleteMyselfEi @ 4 NONAME
	_ZN15CSmsBaseWatcher15AddBifWithTypeLE13TBioMsgIdType4TUid @ 5 NONAME
	_ZN15CSmsBaseWatcher15SetupAndAppendLER27CBaseSmsActiveSocketWatcherR13CArrayPtrFlatIS0_E @ 6 NONAME
	_ZN15CSmsBaseWatcher16HandleBifChangeLEN18MBifChangeObserver15TBifChangeEventE4TUid @ 7 NONAME
	_ZN15CSmsBaseWatcher20StartSocketWatchersLEv @ 8 NONAME
	_ZN15CSmsBaseWatcher21HandleWatcherCompleteER27CBaseSmsActiveSocketWatcheri @ 9 NONAME
	_ZN15CSmsBaseWatcher28DeleteSocketWatchersWithUidLE4TUid @ 10 NONAME
	_ZN15CSmsBaseWatcher30CreateSocketWatchersFromBioDbLE13TBioMsgIdType @ 11 NONAME
	_ZN15CSmsBaseWatcher30CreateSocketWatchersFromBioDbLE13TBioMsgIdType4TUid @ 12 NONAME
	_ZN15CSmsBaseWatcher4RunLEv @ 13 NONAME
	_ZN15CSmsBaseWatcher5ResetEv @ 14 NONAME
	_ZN15CSmsBaseWatcher6StartLEv @ 15 NONAME
	_ZN15CSmsBaseWatcher7ResetDbEv @ 16 NONAME
	_ZN15CSmsBaseWatcher8DoCancelEv @ 17 NONAME
	_ZN15CSmsBaseWatcher8RunErrorEi @ 18 NONAME
	_ZThn32_N15CSmsBaseWatcher16HandleBifChangeLEN18MBifChangeObserver15TBifChangeEventE4TUid @ 19 NONAME ; #<thunk>#
	_ZN15CSmsBaseWatcherC2ER3RFsR11CWatcherLogi @ 20 NONAME
	_ZN15CSmsBaseWatcherD0Ev @ 21 NONAME
	_ZN15CSmsBaseWatcherD1Ev @ 22 NONAME
	_ZN15CSmsBaseWatcherD2Ev @ 23 NONAME
	_ZN27CBaseSmsActiveSocketWatcher10ConstructLER12CBIODatabasell @ 24 NONAME
	_ZN27CBaseSmsActiveSocketWatcher13SetBioMsgTextER12CBIODatabase @ 25 NONAME
	_ZN27CBaseSmsActiveSocketWatcher15PreStoreActionLER11CMsvSessionR11CSmsMessage @ 26 NONAME
	_ZN27CBaseSmsActiveSocketWatcher16RestoreSettingsLER11CMsvSession @ 27 NONAME
	_ZN27CBaseSmsActiveSocketWatcher4RunLEv @ 28 NONAME
	_ZN27CBaseSmsActiveSocketWatcher6SetupLEv @ 29 NONAME
	_ZN27CBaseSmsActiveSocketWatcher6StartLEv @ 30 NONAME
	_ZN27CBaseSmsActiveSocketWatcher8CompleteEi @ 31 NONAME
	_ZN27CBaseSmsActiveSocketWatcher8RunErrorEi @ 32 NONAME
	_ZN27CBaseSmsActiveSocketWatcher9StoreMsgLEP11CSmsMessage @ 33 NONAME
	_ZThn28_N15CSmsBaseWatcher21HandleWatcherCompleteER27CBaseSmsActiveSocketWatcheri @ 34 NONAME ; #<thunk>#
	_ZN27CBaseSmsActiveSocketWatcherC2ER11CWatcherLogi4TUidR3RFs @ 35 NONAME
	_ZN27CBaseSmsActiveSocketWatcherD0Ev @ 36 NONAME
	_ZN27CBaseSmsActiveSocketWatcherD1Ev @ 37 NONAME
	_ZN27CBaseSmsActiveSocketWatcherD2Ev @ 38 NONAME
	_ZTI15CSmsBaseWatcher @ 39 NONAME ; #<TI>#
	_ZTI27CBaseSmsActiveSocketWatcher @ 40 NONAME ; #<TI>#
	_ZTV15CSmsBaseWatcher @ 41 NONAME ; #<VT>#
	_ZTV27CBaseSmsActiveSocketWatcher @ 42 NONAME ; #<VT>#
	_ZN27CBaseSmsActiveSocketWatcher9StoreMsgLEP11CSmsMessagei @ 43 NONAME
	_ZN15CSmsBaseWatcher15GetBioServiceIdER11CMsvSessionRlS2_ @ 44 NONAME
	_ZN27CBaseSmsActiveSocketWatcher16RestoreSettingsLEll @ 45 NONAME

