EXPORTS
	??1TMSClientSource@TMS@@UAE@XZ @ 1 NONAME ; TMS::TMSClientSource::~TMSClientSource(void)
	?Start@TMSInbandTone@TMS@@QAEHH@Z @ 2 NONAME ; int TMS::TMSInbandTone::Start(int)
	?DeleteStream@TMSCall@TMS@@QAEHAAPAVTMSStream@2@@Z @ 3 NONAME ; int TMS::TMSCall::DeleteStream(class TMS::TMSStream * &)
	?Stop@TMSRingTone@TMS@@QAEHXZ @ 4 NONAME ; int TMS::TMSRingTone::Stop(void)
	?SetCNG@TMSILBCFormat@TMS@@QAEHH@Z @ 5 NONAME ; int TMS::TMSILBCFormat::SetCNG(int)
	?GetMode@TMSILBCFormat@TMS@@QAEHAAH@Z @ 6 NONAME ; int TMS::TMSILBCFormat::GetMode(int &)
	?GetCNG@TMSG711Format@TMS@@QAEHAAH@Z @ 7 NONAME ; int TMS::TMSG711Format::GetCNG(int &)
	?GetLevel@TMSGlobalVolEffect@TMS@@QAEHAAI@Z @ 8 NONAME ; int TMS::TMSGlobalVolEffect::GetLevel(unsigned int &)
	?Deinit@TMSStream@TMS@@QAEXXZ @ 9 NONAME ; void TMS::TMSStream::Deinit(void)
	?Stop@TMSStream@TMS@@QAEHXZ @ 10 NONAME ; int TMS::TMSStream::Stop(void)
	?Pause@TMSRingTone@TMS@@QAEHXZ @ 11 NONAME ; int TMS::TMSRingTone::Pause(void)
	??1TMSPCMFormat@TMS@@UAE@XZ @ 12 NONAME ; TMS::TMSPCMFormat::~TMSPCMFormat(void)
	??0TMSRingTone@TMS@@IAE@XZ @ 13 NONAME ; TMS::TMSRingTone::TMSRingTone(void)
	?RemoveObserver@TMSGlobalGainEffect@TMS@@QAEHAAVTMSEffectObserver@2@@Z @ 14 NONAME ; int TMS::TMSGlobalGainEffect::RemoveObserver(class TMS::TMSEffectObserver &)
	??0TMSModemSink@TMS@@IAE@XZ @ 15 NONAME ; TMS::TMSModemSink::TMSModemSink(void)
	?RemoveSink@TMSStream@TMS@@QAEHPAVTMSSink@2@@Z @ 16 NONAME ; int TMS::TMSStream::RemoveSink(class TMS::TMSSink *)
	?GetType@TMSClientSource@TMS@@UAEHAAH@Z @ 17 NONAME ; int TMS::TMSClientSource::GetType(int &)
	??0TMSClientSink@TMS@@IAE@XZ @ 18 NONAME ; TMS::TMSClientSink::TMSClientSink(void)
	?AddEffect@TMSStream@TMS@@QAEHPAVTMSEffect@2@@Z @ 19 NONAME ; int TMS::TMSStream::AddEffect(class TMS::TMSEffect *)
	?GetType@TMSModemSink@TMS@@UAEHAAH@Z @ 20 NONAME ; int TMS::TMSModemSink::GetType(int &)
	?CreateStream@TMSCall@TMS@@QAEHHAAPAVTMSStream@2@@Z @ 21 NONAME ; int TMS::TMSCall::CreateStream(int, class TMS::TMSStream * &)
	?GetType@TMSGainEffect@TMS@@UAEHAAH@Z @ 22 NONAME ; int TMS::TMSGainEffect::GetType(int &)
	?GetCNG@TMSILBCFormat@TMS@@QAEHAAH@Z @ 23 NONAME ; int TMS::TMSILBCFormat::GetCNG(int &)
	?AddObserver@TMSStream@TMS@@QAEHAAVTMSStreamObserver@2@PAX@Z @ 24 NONAME ; int TMS::TMSStream::AddObserver(class TMS::TMSStreamObserver &, void *)
	?Init@TMSStream@TMS@@QAEHH@Z @ 25 NONAME ; int TMS::TMSStream::Init(int)
	??0TMSG729Format@TMS@@IAE@XZ @ 26 NONAME ; TMS::TMSG729Format::TMSG729Format(void)
	?RemoveObserver@TMSVolumeEffect@TMS@@QAEHAAVTMSEffectObserver@2@@Z @ 27 NONAME ; int TMS::TMSVolumeEffect::RemoveObserver(class TMS::TMSEffectObserver &)
	?GetType@TMSGlobalVolEffect@TMS@@UAEHAAH@Z @ 28 NONAME ; int TMS::TMSGlobalVolEffect::GetType(int &)
	??1TMSSpeakerSink@TMS@@UAE@XZ @ 29 NONAME ; TMS::TMSSpeakerSink::~TMSSpeakerSink(void)
	?GetPreviousOutput@TMSGlobalRouting@TMS@@QAEHAAH@Z @ 30 NONAME ; int TMS::TMSGlobalRouting::GetPreviousOutput(int &)
	?GetMaxLevel@TMSVolumeEffect@TMS@@QAEHAAI@Z @ 31 NONAME ; int TMS::TMSVolumeEffect::GetMaxLevel(unsigned int &)
	?SetPlc@TMSG711Format@TMS@@QAEHH@Z @ 32 NONAME ; int TMS::TMSG711Format::SetPlc(int)
	?GetStreamType@TMSStream@TMS@@QAEHXZ @ 33 NONAME ; int TMS::TMSStream::GetStreamType(void)
	?AddSource@TMSStream@TMS@@QAEHPAVTMSSource@2@@Z @ 34 NONAME ; int TMS::TMSStream::AddSource(class TMS::TMSSource *)
	??0TMSAMRFormat@TMS@@IAE@XZ @ 35 NONAME ; TMS::TMSAMRFormat::TMSAMRFormat(void)
	??1TMSDTMF@TMS@@UAE@XZ @ 36 NONAME ; TMS::TMSDTMF::~TMSDTMF(void)
	?AddObserver@TMSRingTone@TMS@@QAEHAAVTMSRingToneObserver@2@PAX@Z @ 37 NONAME ; int TMS::TMSRingTone::AddObserver(class TMS::TMSRingToneObserver &, void *)
	?AddObserver@TMSDTMF@TMS@@QAEHAAVTMSDTMFObserver@2@PAX@Z @ 38 NONAME ; int TMS::TMSDTMF::AddObserver(class TMS::TMSDTMFObserver &, void *)
	??0TMSGlobalVolEffect@TMS@@IAE@XZ @ 39 NONAME ; TMS::TMSGlobalVolEffect::TMSGlobalVolEffect(void)
	??0TMSInbandTone@TMS@@IAE@XZ @ 40 NONAME ; TMS::TMSInbandTone::TMSInbandTone(void)
	?GetType@TMSModemSource@TMS@@UAEHAAH@Z @ 41 NONAME ; int TMS::TMSModemSource::GetType(int &)
	??0TMSVolumeEffect@TMS@@IAE@XZ @ 42 NONAME ; TMS::TMSVolumeEffect::TMSVolumeEffect(void)
	??1TMSG711Format@TMS@@UAE@XZ @ 43 NONAME ; TMS::TMSG711Format::~TMSG711Format(void)
	??1TMSGlobalVolEffect@TMS@@UAE@XZ @ 44 NONAME ; TMS::TMSGlobalVolEffect::~TMSGlobalVolEffect(void)
	?GetType@TMSClientSink@TMS@@UAEHAAH@Z @ 45 NONAME ; int TMS::TMSClientSink::GetType(int &)
	?AddObserver@TMSVolumeEffect@TMS@@QAEHAAVTMSEffectObserver@2@PAX@Z @ 46 NONAME ; int TMS::TMSVolumeEffect::AddObserver(class TMS::TMSEffectObserver &, void *)
	?SetMode@TMSG711Format@TMS@@QAEHH@Z @ 47 NONAME ; int TMS::TMSG711Format::SetMode(int)
	?Play@TMSRingTone@TMS@@QAEHXZ @ 48 NONAME ; int TMS::TMSRingTone::Play(void)
	?RemoveObserver@TMSClientSink@TMS@@QAEHAAVTMSClientSinkObserver@2@@Z @ 49 NONAME ; int TMS::TMSClientSink::RemoveObserver(class TMS::TMSClientSinkObserver &)
	?GetVADMode@TMSG711Format@TMS@@QAEHAAH@Z @ 50 NONAME ; int TMS::TMSG711Format::GetVADMode(int &)
	??1TMSGlobalRouting@TMS@@UAE@XZ @ 51 NONAME ; TMS::TMSGlobalRouting::~TMSGlobalRouting(void)
	??1TMSCall@TMS@@UAE@XZ @ 52 NONAME ; TMS::TMSCall::~TMSCall(void)
	??1TMSILBCFormat@TMS@@UAE@XZ @ 53 NONAME ; TMS::TMSILBCFormat::~TMSILBCFormat(void)
	??0TMSGainEffect@TMS@@IAE@XZ @ 54 NONAME ; TMS::TMSGainEffect::TMSGainEffect(void)
	?GetMaxLevel@TMSGlobalVolEffect@TMS@@QAEHAAI@Z @ 55 NONAME ; int TMS::TMSGlobalVolEffect::GetMaxLevel(unsigned int &)
	??1TMSFormat@TMS@@UAE@XZ @ 56 NONAME ; TMS::TMSFormat::~TMSFormat(void)
	??1TMSModemSource@TMS@@UAE@XZ @ 57 NONAME ; TMS::TMSModemSource::~TMSModemSource(void)
	?GetBitRate@TMSFormat@TMS@@QAEHAAI@Z @ 58 NONAME ; int TMS::TMSFormat::GetBitRate(unsigned int &)
	?GetLevel@TMSGlobalGainEffect@TMS@@QAEHAAI@Z @ 59 NONAME ; int TMS::TMSGlobalGainEffect::GetLevel(unsigned int &)
	?AddObserver@TMSGlobalGainEffect@TMS@@QAEHAAVTMSEffectObserver@2@PAX@Z @ 60 NONAME ; int TMS::TMSGlobalGainEffect::AddObserver(class TMS::TMSEffectObserver &, void *)
	?RemoveObserver@TMSDTMF@TMS@@QAEHAAVTMSDTMFObserver@2@@Z @ 61 NONAME ; int TMS::TMSDTMF::RemoveObserver(class TMS::TMSDTMFObserver &)
	??1TMSVolumeEffect@TMS@@UAE@XZ @ 62 NONAME ; TMS::TMSVolumeEffect::~TMSVolumeEffect(void)
	?Start@TMSDTMF@TMS@@QAEHXZ @ 63 NONAME ; int TMS::TMSDTMF::Start(void)
	??0TMSStream@TMS@@IAE@XZ @ 64 NONAME ; TMS::TMSStream::TMSStream(void)
	?GetVADMode@TMSILBCFormat@TMS@@QAEHAAH@Z @ 65 NONAME ; int TMS::TMSILBCFormat::GetVADMode(int &)
	?GetCallContextId@TMSCall@TMS@@QAEHAAI@Z @ 66 NONAME ; int TMS::TMSCall::GetCallContextId(unsigned int &)
	?RemoveObserver@TMSClientSource@TMS@@QAEHAAVTMSClientSourceObserver@2@@Z @ 67 NONAME ; int TMS::TMSClientSource::RemoveObserver(class TMS::TMSClientSourceObserver &)
	??0TMSSpeakerSink@TMS@@IAE@XZ @ 68 NONAME ; TMS::TMSSpeakerSink::TMSSpeakerSink(void)
	?ProcessBuffer@TMSClientSource@TMS@@QAEHPAVTMSBuffer@2@@Z @ 69 NONAME ; int TMS::TMSClientSource::ProcessBuffer(class TMS::TMSBuffer *)
	?Stop@TMSDTMF@TMS@@QAEHXZ @ 70 NONAME ; int TMS::TMSDTMF::Stop(void)
	??1TMSRingTone@TMS@@UAE@XZ @ 71 NONAME ; TMS::TMSRingTone::~TMSRingTone(void)
	?SetMode@TMSILBCFormat@TMS@@QAEHH@Z @ 72 NONAME ; int TMS::TMSILBCFormat::SetMode(int)
	?GetEnqueueMode@TMSClientSource@TMS@@QAEHAAH@Z @ 73 NONAME ; int TMS::TMSClientSource::GetEnqueueMode(int &)
	??1TMSModemSink@TMS@@UAE@XZ @ 74 NONAME ; TMS::TMSModemSink::~TMSModemSink(void)
	?Flush@TMSClientSource@TMS@@QAEHXZ @ 75 NONAME ; int TMS::TMSClientSource::Flush(void)
	?GetType@TMSMicSource@TMS@@UAEHAAH@Z @ 76 NONAME ; int TMS::TMSMicSource::GetType(int &)
	?GetMaxLevel@TMSGainEffect@TMS@@QAEHAAI@Z @ 77 NONAME ; int TMS::TMSGainEffect::GetMaxLevel(unsigned int &)
	??0TMSMicSource@TMS@@IAE@XZ @ 78 NONAME ; TMS::TMSMicSource::TMSMicSource(void)
	?Init@TMSRingTone@TMS@@QAEHHPAU_GString@@0@Z @ 79 NONAME ; int TMS::TMSRingTone::Init(int, struct _GString *, struct _GString *)
	?AddObserver@TMSGlobalVolEffect@TMS@@QAEHAAVTMSEffectObserver@2@PAX@Z @ 80 NONAME ; int TMS::TMSGlobalVolEffect::AddObserver(class TMS::TMSEffectObserver &, void *)
	?GetType@TMSSpeakerSink@TMS@@UAEHAAH@Z @ 81 NONAME ; int TMS::TMSSpeakerSink::GetType(int &)
	??1TMSStream@TMS@@QAE@XZ @ 82 NONAME ; TMS::TMSStream::~TMSStream(void)
	?AddObserver@TMSClientSource@TMS@@QAEHAAVTMSClientSourceObserver@2@PAX@Z @ 83 NONAME ; int TMS::TMSClientSource::AddObserver(class TMS::TMSClientSourceObserver &, void *)
	?AddObserver@TMSGlobalRouting@TMS@@QAEHAAVTMSGlobalRoutingObserver@2@PAX@Z @ 84 NONAME ; int TMS::TMSGlobalRouting::AddObserver(class TMS::TMSGlobalRoutingObserver &, void *)
	?RemoveObserver@TMSGainEffect@TMS@@QAEHAAVTMSEffectObserver@2@@Z @ 85 NONAME ; int TMS::TMSGainEffect::RemoveObserver(class TMS::TMSEffectObserver &)
	??0TMSModemSource@TMS@@IAE@XZ @ 86 NONAME ; TMS::TMSModemSource::TMSModemSource(void)
	??1TMSAMRFormat@TMS@@UAE@XZ @ 87 NONAME ; TMS::TMSAMRFormat::~TMSAMRFormat(void)
	??0TMSFormat@TMS@@IAE@XZ @ 88 NONAME ; TMS::TMSFormat::TMSFormat(void)
	?SetLevel@TMSVolumeEffect@TMS@@QAEHI@Z @ 89 NONAME ; int TMS::TMSVolumeEffect::SetLevel(unsigned int)
	??1TMSClientSink@TMS@@UAE@XZ @ 90 NONAME ; TMS::TMSClientSink::~TMSClientSink(void)
	??0TMSDTMF@TMS@@IAE@XZ @ 91 NONAME ; TMS::TMSDTMF::TMSDTMF(void)
	?ContinueDTMFStringSending@TMSDTMF@TMS@@QAEHH@Z @ 92 NONAME ; int TMS::TMSDTMF::ContinueDTMFStringSending(int)
	?SetOutput@TMSGlobalRouting@TMS@@QAEHH@Z @ 93 NONAME ; int TMS::TMSGlobalRouting::SetOutput(int)
	?GetType@TMSVolumeEffect@TMS@@UAEHAAH@Z @ 94 NONAME ; int TMS::TMSVolumeEffect::GetType(int &)
	?BufferFilled@TMSClientSource@TMS@@QAEHAAVTMSBuffer@2@@Z @ 95 NONAME ; int TMS::TMSClientSource::BufferFilled(class TMS::TMSBuffer &)
	?RemoveObserver@TMSGlobalRouting@TMS@@QAEHAAVTMSGlobalRoutingObserver@2@@Z @ 96 NONAME ; int TMS::TMSGlobalRouting::RemoveObserver(class TMS::TMSGlobalRoutingObserver &)
	?Pause@TMSStream@TMS@@QAEHXZ @ 97 NONAME ; int TMS::TMSStream::Pause(void)
	?SetBitRate@TMSFormat@TMS@@QAEHI@Z @ 98 NONAME ; int TMS::TMSFormat::SetBitRate(unsigned int)
	?SetLevel@TMSGlobalGainEffect@TMS@@QAEHI@Z @ 99 NONAME ; int TMS::TMSGlobalGainEffect::SetLevel(unsigned int)
	??0TMSGlobalRouting@TMS@@IAE@XZ @ 100 NONAME ; TMS::TMSGlobalRouting::TMSGlobalRouting(void)
	?SetTone@TMSDTMF@TMS@@QAEHPAU_GString@@@Z @ 101 NONAME ; int TMS::TMSDTMF::SetTone(struct _GString *)
	?RemoveObserver@TMSRingTone@TMS@@QAEHAAVTMSRingToneObserver@2@@Z @ 102 NONAME ; int TMS::TMSRingTone::RemoveObserver(class TMS::TMSRingToneObserver &)
	?GetLevel@TMSGainEffect@TMS@@QAEHAAI@Z @ 103 NONAME ; int TMS::TMSGainEffect::GetLevel(unsigned int &)
	??0TMSPCMFormat@TMS@@IAE@XZ @ 104 NONAME ; TMS::TMSPCMFormat::TMSPCMFormat(void)
	??1TMSG729Format@TMS@@UAE@XZ @ 105 NONAME ; TMS::TMSG729Format::~TMSG729Format(void)
	?SetLevel@TMSGainEffect@TMS@@QAEHI@Z @ 106 NONAME ; int TMS::TMSGainEffect::SetLevel(unsigned int)
	?AddObserver@TMSGainEffect@TMS@@QAEHAAVTMSEffectObserver@2@PAX@Z @ 107 NONAME ; int TMS::TMSGainEffect::AddObserver(class TMS::TMSEffectObserver &, void *)
	?SetVADMode@TMSG729Format@TMS@@QAEHH@Z @ 108 NONAME ; int TMS::TMSG729Format::SetVADMode(int)
	??0TMSCall@TMS@@IAE@XZ @ 109 NONAME ; TMS::TMSCall::TMSCall(void)
	?GetVADMode@TMSG729Format@TMS@@QAEHAAH@Z @ 110 NONAME ; int TMS::TMSG729Format::GetVADMode(int &)
	?GetOutput@TMSGlobalRouting@TMS@@QAEHAAH@Z @ 111 NONAME ; int TMS::TMSGlobalRouting::GetOutput(int &)
	?SetVADMode@TMSG711Format@TMS@@QAEHH@Z @ 112 NONAME ; int TMS::TMSG711Format::SetVADMode(int)
	??1TMSInbandTone@TMS@@UAE@XZ @ 113 NONAME ; TMS::TMSInbandTone::~TMSInbandTone(void)
	??0TMSG711Format@TMS@@IAE@XZ @ 114 NONAME ; TMS::TMSG711Format::TMSG711Format(void)
	?GetState@TMSStream@TMS@@QAEHXZ @ 115 NONAME ; int TMS::TMSStream::GetState(void)
	?GetStreamId@TMSStream@TMS@@QAEHXZ @ 116 NONAME ; int TMS::TMSStream::GetStreamId(void)
	?AddSink@TMSStream@TMS@@QAEHPAVTMSSink@2@@Z @ 117 NONAME ; int TMS::TMSStream::AddSink(class TMS::TMSSink *)
	?ResetFormat@TMSStream@TMS@@QAEHPAVTMSFormat@2@@Z @ 118 NONAME ; int TMS::TMSStream::ResetFormat(class TMS::TMSFormat *)
	??1TMSGlobalGainEffect@TMS@@UAE@XZ @ 119 NONAME ; TMS::TMSGlobalGainEffect::~TMSGlobalGainEffect(void)
	?RemoveEffect@TMSStream@TMS@@QAEHPAVTMSEffect@2@@Z @ 120 NONAME ; int TMS::TMSStream::RemoveEffect(class TMS::TMSEffect *)
	??0TMSILBCFormat@TMS@@IAE@XZ @ 121 NONAME ; TMS::TMSILBCFormat::TMSILBCFormat(void)
	?GetPlc@TMSG711Format@TMS@@QAEHAAH@Z @ 122 NONAME ; int TMS::TMSG711Format::GetPlc(int &)
	?SetFormat@TMSStream@TMS@@QAEHPAVTMSFormat@2@@Z @ 123 NONAME ; int TMS::TMSStream::SetFormat(class TMS::TMSFormat *)
	?GetLevel@TMSVolumeEffect@TMS@@QAEHAAI@Z @ 124 NONAME ; int TMS::TMSVolumeEffect::GetLevel(unsigned int &)
	?GetType@TMSGlobalGainEffect@TMS@@UAEHAAH@Z @ 125 NONAME ; int TMS::TMSGlobalGainEffect::GetType(int &)
	?GetCallType@TMSCall@TMS@@QAEHXZ @ 126 NONAME ; int TMS::TMSCall::GetCallType(void)
	?GetMaxLevel@TMSGlobalGainEffect@TMS@@QAEHAAI@Z @ 127 NONAME ; int TMS::TMSGlobalGainEffect::GetMaxLevel(unsigned int &)
	?GetType@TMSFormat@TMS@@UAEHAAH@Z @ 128 NONAME ; int TMS::TMSFormat::GetType(int &)
	?RemoveObserver@TMSInbandTone@TMS@@QAEHAAVTMSInbandToneObserver@2@@Z @ 129 NONAME ; int TMS::TMSInbandTone::RemoveObserver(class TMS::TMSInbandToneObserver &)
	??1TMSGainEffect@TMS@@UAE@XZ @ 130 NONAME ; TMS::TMSGainEffect::~TMSGainEffect(void)
	?SetCNG@TMSG711Format@TMS@@QAEHH@Z @ 131 NONAME ; int TMS::TMSG711Format::SetCNG(int)
	??0TMSClientSource@TMS@@IAE@XZ @ 132 NONAME ; TMS::TMSClientSource::TMSClientSource(void)
	?Start@TMSStream@TMS@@QAEHH@Z @ 133 NONAME ; int TMS::TMSStream::Start(int)
	?GetAvailableOutputs@TMSGlobalRouting@TMS@@QAEHAAV?$vector@IV?$allocator@I@std@@@std@@@Z @ 134 NONAME ; int TMS::TMSGlobalRouting::GetAvailableOutputs(class std::vector<unsigned int, class std::allocator<unsigned int> > &)
	?Deinit@TMSRingTone@TMS@@QAEHXZ @ 135 NONAME ; int TMS::TMSRingTone::Deinit(void)
	?AddObserver@TMSClientSink@TMS@@QAEHAAVTMSClientSinkObserver@2@PAX@Z @ 136 NONAME ; int TMS::TMSClientSink::AddObserver(class TMS::TMSClientSinkObserver &, void *)
	?RemoveSource@TMSStream@TMS@@QAEHPAVTMSSource@2@@Z @ 137 NONAME ; int TMS::TMSStream::RemoveSource(class TMS::TMSSource *)
	??0TMSGlobalGainEffect@TMS@@IAE@XZ @ 138 NONAME ; TMS::TMSGlobalGainEffect::TMSGlobalGainEffect(void)
	?SetLevel@TMSGlobalVolEffect@TMS@@QAEHI@Z @ 139 NONAME ; int TMS::TMSGlobalVolEffect::SetLevel(unsigned int)
	?RemoveObserver@TMSStream@TMS@@QAEHAAVTMSStreamObserver@2@@Z @ 140 NONAME ; int TMS::TMSStream::RemoveObserver(class TMS::TMSStreamObserver &)
	?Mute@TMSRingTone@TMS@@QAEHXZ @ 141 NONAME ; int TMS::TMSRingTone::Mute(void)
	?RemoveObserver@TMSGlobalVolEffect@TMS@@QAEHAAVTMSEffectObserver@2@@Z @ 142 NONAME ; int TMS::TMSGlobalVolEffect::RemoveObserver(class TMS::TMSEffectObserver &)
	?GetMode@TMSG711Format@TMS@@QAEHAAH@Z @ 143 NONAME ; int TMS::TMSG711Format::GetMode(int &)
	?SetEnqueueMode@TMSClientSource@TMS@@QAEHH@Z @ 144 NONAME ; int TMS::TMSClientSource::SetEnqueueMode(int)
	?SetVADMode@TMSILBCFormat@TMS@@QAEHH@Z @ 145 NONAME ; int TMS::TMSILBCFormat::SetVADMode(int)
	??1TMSMicSource@TMS@@UAE@XZ @ 146 NONAME ; TMS::TMSMicSource::~TMSMicSource(void)
	?BufferProcessed@TMSClientSink@TMS@@QAEHPAVTMSBuffer@2@@Z @ 147 NONAME ; int TMS::TMSClientSink::BufferProcessed(class TMS::TMSBuffer *)
	?GetSupportedBitRates@TMSFormat@TMS@@QAEHAAV?$vector@IV?$allocator@I@std@@@std@@@Z @ 148 NONAME ; int TMS::TMSFormat::GetSupportedBitRates(class std::vector<unsigned int, class std::allocator<unsigned int> > &)
	?Stop@TMSInbandTone@TMS@@QAEHXZ @ 149 NONAME ; int TMS::TMSInbandTone::Stop(void)
	?AddObserver@TMSInbandTone@TMS@@QAEHAAVTMSInbandToneObserver@2@PAX@Z @ 150 NONAME ; int TMS::TMSInbandTone::AddObserver(class TMS::TMSInbandToneObserver &, void *)

