EXPORTS
	_ZN14RSendAsMessage11SendMessageER14TRequestStatus @ 1 NONAME
	_ZN14RSendAsMessage11SetBioTypeLE4TUid @ 2 NONAME
	_ZN14RSendAsMessage11SetSubjectLERK7TDesC16 @ 3 NONAME
	_ZN14RSendAsMessage12SetBodyTextLERK7TDesC16 @ 4 NONAME
	_ZN14RSendAsMessage12SetBodyTextLERK9CRichText @ 5 NONAME
	_ZN14RSendAsMessage13AddAttachmentER5RFileR14TRequestStatus @ 6 NONAME
	_ZN14RSendAsMessage13AddAttachmentER5RFileRK6TDesC8R14TRequestStatus @ 7 NONAME
	_ZN14RSendAsMessage13AddAttachmentERK7TDesC16R14TRequestStatus @ 8 NONAME
	_ZN14RSendAsMessage13AddAttachmentERK7TDesC16RK6TDesC8R14TRequestStatus @ 9 NONAME
	_ZN14RSendAsMessage13AddRecipientLERK7TDesC16NS_20TSendAsRecipientTypeE @ 10 NONAME
	_ZN14RSendAsMessage13AddRecipientLERK7TDesC16S2_NS_20TSendAsRecipientTypeE @ 11 NONAME
	_ZN14RSendAsMessage17CreateAttachmentLERK7TDesC16R5RFile @ 12 NONAME
	_ZN14RSendAsMessage17CreateAttachmentLERK7TDesC16R5RFileRK6TDesC8 @ 13 NONAME
	_ZN14RSendAsMessage19AddLinkedAttachmentERK7TDesC16R14TRequestStatus @ 14 NONAME
	_ZN14RSendAsMessage19AddLinkedAttachmentERK7TDesC16RK6TDesC8R14TRequestStatus @ 15 NONAME
	_ZN14RSendAsMessage20SaveMessageAndCloseLEv @ 16 NONAME
	_ZN14RSendAsMessage20SendMessageAndCloseLEv @ 17 NONAME
	_ZN14RSendAsMessage20SendMessageConfirmedER14TRequestStatus @ 18 NONAME
	_ZN14RSendAsMessage21LaunchEditorAndCloseLEv @ 19 NONAME
	_ZN14RSendAsMessage29SendMessageConfirmedAndCloseLEv @ 20 NONAME
	_ZN14RSendAsMessage5CloseEv @ 21 NONAME
	_ZN14RSendAsMessage6CancelEv @ 22 NONAME
	_ZN14RSendAsMessage7CreateLER7RSendAs4TUid @ 23 NONAME
	_ZN14RSendAsMessage7CreateLER7RSendAsl @ 24 NONAME
	_ZN14RSendAsMessage9ProgressLERN17CMsvSendOperation22TSendOperationProgressE @ 25 NONAME
	_ZN15CSendAsAccounts12InternalizeLER11RReadStream @ 26 NONAME
	_ZN15CSendAsAccounts13RemoveAccountEi @ 27 NONAME
	_ZN15CSendAsAccounts14AppendAccountLERK7TDesC16l @ 28 NONAME
	_ZN15CSendAsAccounts14SetMessageTypeE4TUid @ 29 NONAME
	_ZN15CSendAsAccounts4NewLEv @ 30 NONAME
	_ZN15CSendAsAccounts5ResetEv @ 31 NONAME
	_ZN15CSendAsAccountsD0Ev @ 32 NONAME
	_ZN15CSendAsAccountsD1Ev @ 33 NONAME
	_ZN15CSendAsAccountsD2Ev @ 34 NONAME
	_ZN19CSendAsMessageTypes12InternalizeLER11RReadStream @ 35 NONAME
	_ZN19CSendAsMessageTypes17RemoveMessageTypeEi @ 36 NONAME
	_ZN19CSendAsMessageTypes18AppendMessageTypeLERK7TDesC164TUid @ 37 NONAME
	_ZN19CSendAsMessageTypes4NewLEv @ 38 NONAME
	_ZN19CSendAsMessageTypes5ResetEv @ 39 NONAME
	_ZN19CSendAsMessageTypesD0Ev @ 40 NONAME
	_ZN19CSendAsMessageTypesD1Ev @ 41 NONAME
	_ZN19CSendAsMessageTypesD2Ev @ 42 NONAME
	_ZN24TSendAsMessageTypeFilter5ResetEv @ 43 NONAME
	_ZN24TSendAsMessageTypeFilterC1E4TUid @ 44 NONAME
	_ZN24TSendAsMessageTypeFilterC1E4TUidiN7RSendAs20TSendAsConditionTypeE @ 45 NONAME
	_ZN24TSendAsMessageTypeFilterC1Ev @ 46 NONAME
	_ZN24TSendAsMessageTypeFilterC2E4TUid @ 47 NONAME
	_ZN24TSendAsMessageTypeFilterC2E4TUidiN7RSendAs20TSendAsConditionTypeE @ 48 NONAME
	_ZN24TSendAsMessageTypeFilterC2Ev @ 49 NONAME
	_ZN7RSendAs18AvailableAccountsLE4TUidR15CSendAsAccounts @ 50 NONAME
	_ZN7RSendAs18ResetMessageFilterEv @ 51 NONAME
	_ZN7RSendAs21FilteredMessageTypesLER19CSendAsMessageTypes @ 52 NONAME
	_ZN7RSendAs23FilterAgainstCapabilityE4TUid @ 53 NONAME
	_ZN7RSendAs23FilterAgainstCapabilityE4TUidiNS_20TSendAsConditionTypeE @ 54 NONAME
	_ZN7RSendAs7ConnectEi @ 55 NONAME
	_ZNK15CSendAsAccounts11MessageTypeEv @ 56 NONAME
	_ZNK15CSendAsAccounts12AccountNamesEv @ 57 NONAME
	_ZNK15CSendAsAccounts12ExternalizeLER12RWriteStream @ 58 NONAME
	_ZNK15CSendAsAccounts16AccountFromNameLERK7TDesC16 @ 59 NONAME
	_ZNK15CSendAsAccounts16NameFromAccountLEl @ 60 NONAME
	_ZNK15CSendAsAccounts4SizeEv @ 61 NONAME
	_ZNK15CSendAsAccounts5CountEv @ 62 NONAME
	_ZNK15CSendAsAccounts7AccountEi @ 63 NONAME
	_ZNK19CSendAsMessageTypes12ExternalizeLER12RWriteStream @ 64 NONAME
	_ZNK19CSendAsMessageTypes12NameFromUidLE4TUid @ 65 NONAME
	_ZNK19CSendAsMessageTypes12UidFromNameLERK7TDesC16 @ 66 NONAME
	_ZNK19CSendAsMessageTypes14MessageTypeUidEi @ 67 NONAME
	_ZNK19CSendAsMessageTypes21AvailableMessageTypesEv @ 68 NONAME
	_ZNK19CSendAsMessageTypes4SizeEv @ 69 NONAME
	_ZNK19CSendAsMessageTypes5CountEv @ 70 NONAME
	_ZTI15CSendAsAccounts @ 71 NONAME ; #<TI>#
	_ZTI19CSendAsMessageTypes @ 72 NONAME ; #<TI>#
	_ZTV15CSendAsAccounts @ 73 NONAME ; #<VT>#
	_ZTV19CSendAsMessageTypes @ 74 NONAME ; #<VT>#
	_ZN14RSendAsMessage13AddAttachmentER5RFileRK6TDesC8jR14TRequestStatus @ 75 NONAME
	_ZN14RSendAsMessage13AddAttachmentERK7TDesC16RK6TDesC8jR14TRequestStatus @ 76 NONAME
	_ZN14RSendAsMessage17CreateAttachmentLERK7TDesC16R5RFileRK6TDesC8j @ 77 NONAME
	_ZN14RSendAsMessage19AddLinkedAttachmentERK7TDesC16RK6TDesC8jR14TRequestStatus @ 78 NONAME
	_ZN7RSendAs7ConnectEv @ 79 NONAME
	_ZN14RSendAsMessage16SetCharacterSetLEj @ 80 NONAME

