EXPORTS
	_ZN10RWSPCLConn12UnitWaitPushER5TDes8S1_R8TPckgBufIhE @ 1 NONAME
	_ZN10RWSPCLConn12UnitWaitPushER5TDes8S1_R8TPckgBufIhER14TRequestStatus @ 2 NONAME
	_ZN10RWSPCLConn15CancelAwaitPushEv @ 3 NONAME
	_ZN10RWSPCLConn18CancelUnitWaitPushEv @ 4 NONAME
	_ZN10RWSPCLConn4OpenER8RWAPServRK6TDesC8ttN3Wap7TBearerEi @ 5 NONAME
	_ZN10RWSPCLConn4OpenER8RWAPServt @ 6 NONAME
	_ZN10RWSPCLConn9AwaitPushER5TDes8S1_RjR14TRequestStatus @ 7 NONAME
	_ZN10RWSPCOConn10DisconnectEv @ 8 NONAME
	_ZN10RWSPCOConn14CancelGetEventEv @ 9 NONAME
	_ZN10RWSPCOConn17CreateTransactionEN8RWAPConn7TMethodERK7TDesC16RK6TDesC8S7_R11RWSPCOTrans @ 10 NONAME
	_ZN10RWSPCOConn4OpenER8RWAPServRK6TDesC8tt7TBeareri @ 11 NONAME
	_ZN10RWSPCOConn5CloseEv @ 12 NONAME
	_ZN10RWSPCOConn6ResumeERS_RK6TDesC8 @ 13 NONAME
	_ZN10RWSPCOConn7ConnectERK6TDesC8P9CCapCodec @ 14 NONAME
	_ZN10RWSPCOConn7SuspendEv @ 15 NONAME
	_ZN11RWSPCOTrans11AcknowledgeERK6TDesC8 @ 16 NONAME
	_ZN11RWSPCOTrans2IdERi @ 17 NONAME
	_ZN11RWSPCOTrans5AbortEh @ 18 NONAME
	_ZN11RWSPCOTrans7ReleaseEv @ 19 NONAME
	_ZN11RWSPCOTransC1Ev @ 20 NONAME
	_ZN11RWSPCOTransC2Ev @ 21 NONAME
	_ZN11RWSPCOTransD1Ev @ 22 NONAME
	_ZN11RWSPCOTransD2Ev @ 23 NONAME
	_ZN12RCertificate4LoadERK6TDesC8 @ 24 NONAME
	_ZN12RCertificate4SaveERK6TDesC8R5TDes8 @ 25 NONAME
	_ZN12RCertificate6DeleteERK6TDesC8 @ 26 NONAME
	_ZN12RCertificate8LoadByIdERKt @ 27 NONAME
	_ZN13TAliasAddress10SetAddressERK6TDesC8 @ 28 NONAME
	_ZN13TAliasAddress5ResetEv @ 29 NONAME
	_ZN13TAliasAddress7SetPortEt @ 30 NONAME
	_ZN13TAliasAddress9SetBearerEh @ 31 NONAME
	_ZN13TAliasAddressC1Ev @ 32 NONAME
	_ZN13TAliasAddressC2Ev @ 33 NONAME
	_ZN13TAliasAddressD1Ev @ 34 NONAME
	_ZN13TAliasAddressD2Ev @ 35 NONAME
	_ZN14CDummyWapStack11NewSessionLEv @ 36 NONAME
	_ZN14CDummyWapStack12CloseSessionEP16CDummyWapSession @ 37 NONAME
	_ZN14CDummyWapStack4NewLER22MDummyWapStackObserver @ 38 NONAME
	_ZN14CDummyWapStack8ObserverEv @ 39 NONAME
	_ZN15CDummyWSPCLConn19HasMsgBeenCompletedEv @ 40 NONAME
	_ZN15CDummyWSPCLConn21CompleteUnitWaitPushLER5TDes8S1_ @ 41 NONAME
	_ZN15CDummyWSPCOConn14CancelGetEventEv @ 42 NONAME
	_ZN15CDummyWSPCOConn17CompleteGetEventLER8TPckgBufIiER16CDummyWSPCOTrans @ 43 NONAME
	_ZN16CDummyWSPCOTrans5SetIdEi @ 44 NONAME
	_ZN16CDummyWSPCOTrans7SetDataERK6TDesC8N11RWSPCOTrans9TDataTypeE @ 45 NONAME
	_ZN16CDummyWSPCOTransC1ER15CDummyWSPCOConn @ 46 NONAME
	_ZN16CDummyWSPCOTransC2ER15CDummyWSPCOConn @ 47 NONAME
	_ZN16CDummyWSPCOTransD0Ev @ 48 NONAME
	_ZN16CDummyWSPCOTransD1Ev @ 49 NONAME
	_ZN16CDummyWSPCOTransD2Ev @ 50 NONAME
	_ZN22CWapBoundCLPushService4NewLEv @ 51 NONAME
	_ZN22CWapBoundCLPushServiceC1Ev @ 52 NONAME
	_ZN22CWapBoundCLPushServiceC2Ev @ 53 NONAME
	_ZN22CWapBoundCLPushServiceD0Ev @ 54 NONAME
	_ZN22CWapBoundCLPushServiceD1Ev @ 55 NONAME
	_ZN22CWapBoundCLPushServiceD2Ev @ 56 NONAME
	_ZN5RWTLS10ServerCertEv @ 57 NONAME
	_ZN5RWTLS13CancelConnectEv @ 58 NONAME
	_ZN5RWTLS15ConnectPhaseTwoER14TRequestStatus @ 59 NONAME
	_ZN5RWTLS15SetCipherSuitesERK13CArrayFixFlatINS_12TCipherSuiteEE @ 60 NONAME
	_ZN5RWTLS15SetSharedSecretERK6TDesC8 @ 61 NONAME
	_ZN5RWTLS17SetKeyRefreshRateEh @ 62 NONAME
	_ZN5RWTLS19SetKeyExchangeSuiteENS_17TKeyExchangeSuiteENS_7TIdTypeERK6TDesC8 @ 63 NONAME
	_ZN5RWTLS20SetRecordLengthUsageEi @ 64 NONAME
	_ZN5RWTLS21CancelConnectPhaseTwoEv @ 65 NONAME
	_ZN5RWTLS21SetSequenceNumberModeENS_19TSequenceNumberModeE @ 66 NONAME
	_ZN5RWTLS7ConnectER14TRequestStatusi @ 67 NONAME
	_ZN8RWAPConn4WtlsEv @ 68 NONAME
	_ZN8RWAPConn5CloseEv @ 69 NONAME
	_ZN8RWAPServ5CloseEv @ 70 NONAME
	_ZN8RWAPServ7ConnectEi @ 71 NONAME
	_ZN8RWAPServC1Ev @ 72 NONAME
	_ZN8RWAPServC2Ev @ 73 NONAME
	_ZN9CCapCodec10ConstructLERK6TDesC8 @ 74 NONAME
	_ZN9CCapCodec10ConstructLEv @ 75 NONAME
	_ZN9CCapCodec10SetPushMOREh @ 76 NONAME
	_ZN9CCapCodec11AddCodePageER5TDes8h @ 77 NONAME
	_ZN9CCapCodec12SetMethodMOREh @ 78 NONAME
	_ZN9CCapCodec13AddUnknownCapER5TDes8RK6TDesC8 @ 79 NONAME
	_ZN9CCapCodec15AddAliasAddressERK13TAliasAddress @ 80 NONAME
	_ZN9CCapCodec16SetClientSDUSizeEm @ 81 NONAME
	_ZN9CCapCodec16SetServerSDUSizeEm @ 82 NONAME
	_ZN9CCapCodec17AddExtendedMethodER5TDes8h @ 83 NONAME
	_ZN9CCapCodec18GetProtocolOptionsERm @ 84 NONAME
	_ZN9CCapCodec18SetProtocolOptionsEm @ 85 NONAME
	_ZN9CCapCodec4NewLERK6TDesC8 @ 86 NONAME
	_ZN9CCapCodec4NewLEv @ 87 NONAME
	_ZN9CCapCodec5ResetEv @ 88 NONAME
	_ZN9CCapCodec6DecodeERK6TDesC8 @ 89 NONAME
	_ZN9CCapCodecD0Ev @ 90 NONAME
	_ZN9CCapCodecD1Ev @ 91 NONAME
	_ZN9CCapCodecD2Ev @ 92 NONAME
	_ZNK10RWSPCOConn13GetNrOfEventsERj @ 93 NONAME
	_ZNK10RWSPCOConn14GetSessionDataER5TDes8NS_16TSessionDataTypeE @ 94 NONAME
	_ZNK10RWSPCOConn15GetSessionStateERNS_13TSessionStateE @ 95 NONAME
	_ZNK10RWSPCOConn8GetEventER8TPckgBufIiER11RWSPCOTrans @ 96 NONAME
	_ZNK10RWSPCOConn8GetEventER8TPckgBufIiER11RWSPCOTransR14TRequestStatus @ 97 NONAME
	_ZNK11RWSPCOTrans7GetDataER5TDes8NS_9TDataTypeEPi @ 98 NONAME
	_ZNK11RWSPCOTrans8GetStateERNS_6TStateE @ 99 NONAME
	_ZNK12RCertificate4InfoERNS_5TInfoE @ 100 NONAME
	_ZNK12RCertificate8FindNextER5TDes8Rt @ 101 NONAME
	_ZNK12RCertificate9FindFirstER5TDes8Rt @ 102 NONAME
	_ZNK13TAliasAddress4PortEv @ 103 NONAME
	_ZNK13TAliasAddress6BearerEv @ 104 NONAME
	_ZNK13TAliasAddress7AddressEv @ 105 NONAME
	_ZNK13TAliasAddress7HasPortEv @ 106 NONAME
	_ZNK13TAliasAddress9HasBearerEv @ 107 NONAME
	_ZNK5RWTLS14GetCipherSuiteERNS_12TCipherSuiteE @ 108 NONAME
	_ZNK5RWTLS17GetKeyRefreshRateERh @ 109 NONAME
	_ZNK5RWTLS21GetSequenceNumberModeERNS_19TSequenceNumberModeE @ 110 NONAME
	_ZNK9CCapCodec10GetPushMORERh @ 111 NONAME
	_ZNK9CCapCodec11GetCodePageEiR5TDes8Rh @ 112 NONAME
	_ZNK9CCapCodec12NumCodePagesERi @ 113 NONAME
	_ZNK9CCapCodec13CapEncodeSizeEv @ 114 NONAME
	_ZNK9CCapCodec13ClientSDUSizeERm @ 115 NONAME
	_ZNK9CCapCodec13GetUnknownCapEiR5TDes8S1_ @ 116 NONAME
	_ZNK9CCapCodec13NumUnknownCapERi @ 117 NONAME
	_ZNK9CCapCodec15GetAliasAddressEiR13TAliasAddress @ 118 NONAME
	_ZNK9CCapCodec15NumAliasAddressERi @ 119 NONAME
	_ZNK9CCapCodec16GetServerSDUSizeERm @ 120 NONAME
	_ZNK9CCapCodec17GetExtendedMethodEiR5TDes8Rh @ 121 NONAME
	_ZNK9CCapCodec18NumExtendedMethodsERi @ 122 NONAME
	_ZNK9CCapCodec6EncodeER5TDes8 @ 123 NONAME
	_ZNK9CCapCodec9MethodMORERh @ 124 NONAME
	_ZTI10RWSPCOConn @ 125 NONAME ; #<TI>#
	_ZTI16CDummyWSPCOTrans @ 126 NONAME ; #<TI>#
	_ZTI22CWapBoundCLPushService @ 127 NONAME ; #<TI>#
	_ZTI8RWAPConn @ 128 NONAME ; #<TI>#
	_ZTV10RWSPCOConn @ 129 NONAME ; #<VT>#
	_ZTV16CDummyWSPCOTrans @ 130 NONAME ; #<VT>#
	_ZTV22CWapBoundCLPushService @ 131 NONAME ; #<VT>#
	_ZTV8RWAPConn @ 132 NONAME ; #<VT>#
	_ZTI10CDummyWTLS @ 133 NONAME ; #<TI>#
	_ZTI13CDummyWSPConn @ 134 NONAME ; #<TI>#
	_ZTI14CDummyWapStack @ 135 NONAME ; #<TI>#
	_ZTI15CDummyWSPCLConn @ 136 NONAME ; #<TI>#
	_ZTI15CDummyWSPCOConn @ 137 NONAME ; #<TI>#
	_ZTI16CDummyWapSession @ 138 NONAME ; #<TI>#
	_ZTI9CCapCodec @ 139 NONAME ; #<TI>#
	_ZTV10CDummyWTLS @ 140 NONAME ; #<VT>#
	_ZTV13CDummyWSPConn @ 141 NONAME ; #<VT>#
	_ZTV14CDummyWapStack @ 142 NONAME ; #<VT>#
	_ZTV15CDummyWSPCLConn @ 143 NONAME ; #<VT>#
	_ZTV15CDummyWSPCOConn @ 144 NONAME ; #<VT>#
	_ZTV16CDummyWapSession @ 145 NONAME ; #<VT>#
	_ZTV9CCapCodec @ 146 NONAME ; #<VT>#
	_ZN15CDummyWSPCLConn17SetServerAddressLERK6TDesC8 @ 147 NONAME

