EXPORTS
	_ZN15CSIPushMsgEntry4NewLERK6TPtrC8 @ 1 NONAME
	_ZN15CSIPushMsgEntry4NewLERi @ 2 NONAME
	_ZN15CSIPushMsgEntry4NewLEv @ 3 NONAME
	_ZN15CSIPushMsgEntry6SetIdLERK7TDesC16 @ 4 NONAME
	_ZN15CSIPushMsgEntry7SetUrlLERK7TDesC16 @ 5 NONAME
	_ZN15CSIPushMsgEntry8SetTextLERK7TDesC16 @ 6 NONAME
	_ZN15CSIPushMsgEntry9SetActionEi @ 7 NONAME
	_ZN15CSIPushMsgEntryD0Ev @ 8 NONAME
	_ZN15CSIPushMsgEntryD1Ev @ 9 NONAME
	_ZN15CSIPushMsgEntryD2Ev @ 10 NONAME
	_ZN15CSLPushMsgEntry4NewLERK6TPtrC8 @ 11 NONAME
	_ZN15CSLPushMsgEntry4NewLERi @ 12 NONAME
	_ZN15CSLPushMsgEntry4NewLEv @ 13 NONAME
	_ZN15CSLPushMsgEntry7SetUrlLERK7TDesC16 @ 14 NONAME
	_ZN15CSLPushMsgEntry9SetActionEi @ 15 NONAME
	_ZN15CSLPushMsgEntryD0Ev @ 16 NONAME
	_ZN15CSLPushMsgEntryD1Ev @ 17 NONAME
	_ZN15CSLPushMsgEntryD2Ev @ 18 NONAME
	_ZN17CSISLPushMsgUtils10FindSiIdLCERK7TDesC16 @ 19 NONAME
	_ZN17CSISLPushMsgUtils10GetActionLEl @ 20 NONAME
	_ZN17CSISLPushMsgUtils10GetExpiryLEl @ 21 NONAME
	_ZN17CSISLPushMsgUtils12DeleteEntryLEl @ 22 NONAME
	_ZN17CSISLPushMsgUtils14GetNextExpiryLEv @ 23 NONAME
	_ZN17CSISLPushMsgUtils17GetHighestActionLE4TUid @ 24 NONAME
	_ZN17CSISLPushMsgUtils19GetPushMsgFolderIdLERl @ 25 NONAME
	_ZN17CSISLPushMsgUtils4NewLEv @ 26 NONAME
	_ZN17CSISLPushMsgUtils8FindUrlLERK7TDesC164TUid @ 27 NONAME
	_ZN17CSISLPushMsgUtilsD0Ev @ 28 NONAME
	_ZN17CSISLPushMsgUtilsD1Ev @ 29 NONAME
	_ZN17CSISLPushMsgUtilsD2Ev @ 30 NONAME
	_ZNK15CSIPushMsgEntry4TextEv @ 31 NONAME
	_ZNK15CSIPushMsgEntry6ActionEv @ 32 NONAME
	_ZNK15CSLPushMsgEntry6ActionEv @ 33 NONAME
	_ZTI17CSISLPushMsgUtils @ 34 NONAME ; #<TI>#
	_ZTV17CSISLPushMsgUtils @ 35 NONAME ; #<VT>#
	_ZTI15CSIPushMsgEntry @ 36 NONAME ; #<TI>#
	_ZTI15CSLPushMsgEntry @ 37 NONAME ; #<TI>#
	_ZTV15CSIPushMsgEntry @ 38 NONAME ; #<VT>#
	_ZTV15CSLPushMsgEntry @ 39 NONAME ; #<VT>#
	_ZN17CSISLPushMsgUtils15DeleteEntryNowLEl @ 40 NONAME
	_ZN15CSIPushMsgEntry10SetTrustedEi @ 41 NONAME
	_ZN15CSIPushMsgEntry16SetMsgOriginUriLERK6TDesC8 @ 42 NONAME
	_ZN15CSLPushMsgEntry10SetTrustedEi @ 43 NONAME
	_ZN15CSLPushMsgEntry16SetMsgOriginUriLERK6TDesC8 @ 44 NONAME
	_ZNK15CSIPushMsgEntry12MsgOriginUriEv @ 45 NONAME
	_ZNK15CSIPushMsgEntry7TrustedEv @ 46 NONAME
	_ZNK15CSLPushMsgEntry12MsgOriginUriEv @ 47 NONAME
	_ZNK15CSLPushMsgEntry7TrustedEv @ 48 NONAME
	_ZNK15CSIPushMsgEntry11PushMsgTypeEv @ 49 NONAME

