EXPORTS
	_Z11DummyExportv @ 1 NONAME
	_Z13NullFunction1v @ 2 NONAME
	_Z13NullFunction2v @ 3 NONAME
	_Z13NullFunction3v @ 4 NONAME
	_Z13NullFunction4v @ 5 NONAME
	_Z13NullFunction5v @ 6 NONAME
	_Z13NullFunction6v @ 7 NONAME
	_Z13NullFunction7v @ 8 NONAME
	_Z13NullFunction8v @ 9 NONAME
	_Z13NullFunction9v @ 10 NONAME
	_Z14NullFunction10v @ 11 NONAME
	_Z14NullFunction11v @ 12 NONAME
	_Z14NullFunction12v @ 13 NONAME
	_Z14NullFunction13v @ 14 NONAME
	_Z14NullFunction14v @ 15 NONAME
	_Z14NullFunction15v @ 16 NONAME
	_Z14NullFunction16v @ 17 NONAME
	_Z14NullFunction17v @ 18 NONAME
	_Z14NullFunction18v @ 19 NONAME
	_Z14NullFunction19v @ 20 NONAME
	_Z14NullFunction20v @ 21 NONAME
	_Z14NullFunction21v @ 22 NONAME
	_Z14NullFunction22v @ 23 NONAME
	_Z14NullFunction23v @ 24 NONAME
	_Z14NullFunction24v @ 25 NONAME
	_Z14NullFunction25v @ 26 NONAME
	_Z14NullFunction26v @ 27 NONAME
	_Z14NullFunction27v @ 28 NONAME
	_Z14NullFunction28v @ 29 NONAME
	_Z14NullFunction29v @ 30 NONAME
	_Z14NullFunction30v @ 31 NONAME
	_Z14NullFunction31v @ 32 NONAME
	_Z14NullFunction32v @ 33 NONAME
	_Z14NullFunction33v @ 34 NONAME
	_Z14NullFunction34v @ 35 NONAME
	_Z14NullFunction35v @ 36 NONAME
	_Z14NullFunction36v @ 37 NONAME
	_Z14NullFunction37v @ 38 NONAME
	_Z14NullFunction38v @ 39 NONAME
	_Z14NullFunction39v @ 40 NONAME
	_Z14NullFunction40v @ 41 NONAME
	_Z14NullFunction41v @ 42 NONAME
	_Z14NullFunction42v @ 43 NONAME
	_Z14NullFunction43v @ 44 NONAME
	_Z14NullFunction44v @ 45 NONAME
	_Z14NullFunction45v @ 46 NONAME
	_Z14NullFunction46v @ 47 NONAME
	_Z14NullFunction47v @ 48 NONAME
	_Z14NullFunction48v @ 49 NONAME
	_Z14NullFunction49v @ 50 NONAME
	_Z14NullFunction50v @ 51 NONAME
	_Z14NullFunction51v @ 52 NONAME
	_Z14NullFunction52v @ 53 NONAME
	_Z14NullFunction53v @ 54 NONAME
	_Z14NullFunction54v @ 55 NONAME
	_Z14NullFunction55v @ 56 NONAME
	_Z14NullFunction56v @ 57 NONAME
	_Z14NullFunction57v @ 58 NONAME
	_Z14NullFunction58v @ 59 NONAME
	_Z14NullFunction59v @ 60 NONAME
	_Z14NullFunction60v @ 61 NONAME
	_Z14NullFunction61v @ 62 NONAME
	_Z14NullFunction62v @ 63 NONAME
	_Z14NullFunction63v @ 64 NONAME
	_ZN12CPushMessage4NewLEP6HBufC8S1_ @ 65 NONAME
	_ZN12CPushMessage4NewLEP6HBufC8S1_hS1_ @ 66 NONAME
	_ZN12CPushMessage8GetAppIDER6TPtrC8RiS2_ @ 67 NONAME
	_ZN12CPushMessage9GetAppIdLER6TPtrC8RiS2_ @ 68 NONAME
	_ZN12CPushMessageD0Ev @ 69 NONAME
	_ZN12CPushMessageD1Ev @ 70 NONAME
	_ZN12CPushMessageD2Ev @ 71 NONAME
	_ZN12TWapBinCodex15ExtractUIntvarLERK6TDesC8iRNS_8TUintvarE @ 72 NONAME
	_ZN12TWapBinCodex22ParseMultiOctetIntegerERK6TDesC8Ri @ 73 NONAME
	_ZN12TWapBinCodex24ExtractMultiOctetIntegerERK6TDesC8Ri @ 74 NONAME
	_ZN13CPluginKiller14KillPushPluginEv @ 75 NONAME
	_ZN17PushAppDispatcher11GetHandlerLERK6TDesC8R11MWapPushLogR16MConnManObserver @ 76 NONAME
	_ZN17PushAppDispatcher11GetHandlerLEiR11MWapPushLogR16MConnManObserver @ 77 NONAME
	_ZN19CWapPushFilterUtils16GetFilterPluginLEv @ 78 NONAME
	_ZN25PushContentTypeDispatcher11GetHandlerLERK7TDesC16R11MWapPushLogR16MConnManObserver @ 79 NONAME
	_ZNK12CPushMessage14GetContentTypeER7TPtrC16 @ 80 NONAME
	_ZNK12CPushMessage14GetHeaderFieldE16THttpHeaderFieldR5TTime @ 81 NONAME
	_ZNK12CPushMessage14GetHeaderFieldE16THttpHeaderFieldR6TPtrC8 @ 82 NONAME
	_ZNK12CPushMessage14GetMessageBodyER6TPtrC8 @ 83 NONAME
	_ZNK12CPushMessage16GetServerAddressER6TPtrC8 @ 84 NONAME
	_ZNK12CPushMessage20GetBinaryHeaderFieldE16THttpHeaderFieldR6TPtrC8 @ 85 NONAME
	_ZNK12CPushMessage9GetHeaderER6TPtrC8 @ 86 NONAME
	_ZNK12CPushMessage9GetPushIdERh @ 87 NONAME
	_ZTI12CPushMessage @ 88 NONAME ; #<TI>#
	_ZTV12CPushMessage @ 89 NONAME ; #<VT>#
	_ZTI13CPluginKiller @ 90 NONAME ; #<TI>#
	_ZTV13CPluginKiller @ 91 NONAME ; #<VT>#
	_ZN12CPushMessage17SetMessageAllowedEi @ 92 NONAME
	_ZNK12CPushMessage14MessageAllowedEv @ 93 NONAME

