EXPORTS
	_ZN13RRadioSession10GetPSByPTYEi @ 1 NONAME
	_ZN13RRadioSession10SetBalanceEii @ 2 NONAME
	_ZN13RRadioSession10SetSquelchEi @ 3 NONAME
	_ZN13RRadioSession11GetFreqByTAEv @ 4 NONAME
	_ZN13RRadioSession11StationSeekEi @ 5 NONAME
	_ZN13RRadioSession12GetClockTimeER9TDateTime @ 6 NONAME
	_ZN13RRadioSession12GetFreqByPTYEi @ 7 NONAME
	_ZN13RRadioSession12GetRadioTextER6TBuf16ILi64EE @ 8 NONAME
	_ZN13RRadioSession12SetFrequencyEi @ 9 NONAME
	_ZN13RRadioSession13SetVolumeRampERK25TTimeIntervalMicroSeconds @ 10 NONAME
	_ZN13RRadioSession14CancelAFSearchEv @ 11 NONAME
	_ZN13RRadioSession15CancelGetPSByTAEv @ 12 NONAME
	_ZN13RRadioSession15StationSeekByTAEi @ 13 NONAME
	_ZN13RRadioSession15StationSeekByTPEi @ 14 NONAME
	_ZN13RRadioSession16CancelGetPSByPTYEv @ 15 NONAME
	_ZN13RRadioSession16GetProgrammeTypeERi @ 16 NONAME
	_ZN13RRadioSession16GetRadioTextPlusE17TRsRdsRTplusClassR6TBuf16ILi64EE @ 17 NONAME
	_ZN13RRadioSession16StationSeekByPTYEii @ 18 NONAME
	_ZN13RRadioSession17CancelGetFreqByTAEv @ 19 NONAME
	_ZN13RRadioSession17CancelStationSeekEv @ 20 NONAME
	_ZN13RRadioSession17CustomCommandSyncERK8TPckgBufI22TMMFMessageDestinationEiRK6TDesC8S7_ @ 21 NONAME
	_ZN13RRadioSession17CustomCommandSyncERK8TPckgBufI22TMMFMessageDestinationEiRK6TDesC8S7_R5TDes8 @ 22 NONAME
	_ZN13RRadioSession17SetFrequencyRangeE17TRsFrequencyRange @ 23 NONAME
	_ZN13RRadioSession18CancelGetFreqByPTYEv @ 24 NONAME
	_ZN13RRadioSession18CancelSetFrequencyEv @ 25 NONAME
	_ZN13RRadioSession18CustomCommandAsyncERK8TPckgBufI22TMMFMessageDestinationEiRK6TDesC8S7_R14TRequestStatus @ 26 NONAME
	_ZN13RRadioSession18CustomCommandAsyncERK8TPckgBufI22TMMFMessageDestinationEiRK6TDesC8S7_R5TDes8R14TRequestStatus @ 27 NONAME
	_ZN13RRadioSession18ForceMonoReceptionEi @ 28 NONAME
	_ZN13RRadioSession19GetProgrammeServiceER6TBuf16ILi8EE @ 29 NONAME
	_ZN13RRadioSession19NotifyRdsDataChangeE10TRsRdsData @ 30 NONAME
	_ZN13RRadioSession19RequestTunerControlE8TRsTuner @ 31 NONAME
	_ZN13RRadioSession20CancelRdsStationSeekEv @ 32 NONAME
	_ZN13RRadioSession21GetAutomaticSwitchingERi @ 33 NONAME
	_ZN13RRadioSession21SetAutomaticSwitchingEi @ 34 NONAME
	_ZN13RRadioSession23CancelSetFrequencyRangeEv @ 35 NONAME
	_ZN13RRadioSession24EnableTunerInOfflineModeEi @ 36 NONAME
	_ZN13RRadioSession25CancelNotifyRdsDataChangeEv @ 37 NONAME
	_ZN13RRadioSession25GetTrafficProgrammeStatusERi @ 38 NONAME
	_ZN13RRadioSession25NotifyRadioTextPlusChangeER6RArrayIiE @ 39 NONAME
	_ZN13RRadioSession26GetProgrammeIdentificationERi @ 40 NONAME
	_ZN13RRadioSession28GetTrafficAnnouncementStatusERi @ 41 NONAME
	_ZN13RRadioSession31CancelNotifyRadioTextPlusChangeEv @ 42 NONAME
	_ZN13RRadioSession31GetAutomaticTrafficAnnouncementERi @ 43 NONAME
	_ZN13RRadioSession31SetAutomaticTrafficAnnouncementEi @ 44 NONAME
	_ZN13RRadioSession4MuteEi @ 45 NONAME
	_ZN13RRadioSession4PlayEv @ 46 NONAME
	_ZN13RRadioSession4StopEi @ 47 NONAME
	_ZN13RRadioSession5CloseEv @ 48 NONAME
	_ZN13RRadioSession7ConnectER14MRadioObserveri @ 49 NONAME
	_ZN13RRadioSession9GetPSByTAEv @ 50 NONAME
	_ZN13RRadioSession9SetVolumeEi @ 51 NONAME
	_ZN13RRadioSessionC1Ev @ 52 NONAME
	_ZN13RRadioSessionC2Ev @ 53 NONAME
	_ZNK13RRadioSession10GetBalanceERiS0_ @ 54 NONAME
	_ZNK13RRadioSession10GetSquelchERi @ 55 NONAME
	_ZNK13RRadioSession11PlayerStateER14TRsPlayerState @ 56 NONAME
	_ZNK13RRadioSession12GetFrequencyERi @ 57 NONAME
	_ZNK13RRadioSession12GetMaxVolumeERi @ 58 NONAME
	_ZNK13RRadioSession13GetMuteStatusERi @ 59 NONAME
	_ZNK13RRadioSession13GetStereoModeERi @ 60 NONAME
	_ZNK13RRadioSession17GetFrequencyRangeER17TRsFrequencyRangeRiS2_ @ 61 NONAME
	_ZNK13RRadioSession17GetSignalStrengthERi @ 62 NONAME
	_ZNK13RRadioSession18GetRdsCapabilitiesER18TRsRdsCapabilities @ 63 NONAME
	_ZNK13RRadioSession18GetRdsSignalStatusERi @ 64 NONAME
	_ZNK13RRadioSession20GetMaxSignalStrengthERi @ 65 NONAME
	_ZNK13RRadioSession20GetTunerCapabilitiesER20TRsTunerCapabilities @ 66 NONAME
	_ZNK13RRadioSession21GetForceMonoReceptionERi @ 67 NONAME
	_ZNK13RRadioSession7VersionEv @ 68 NONAME
	_ZNK13RRadioSession9GetVolumeERi @ 69 NONAME
	_ZTI13CRadioRequest @ 70 NONAME
	_ZTI13RRadioSession @ 71 NONAME
	_ZTI18CRadioEventHandler @ 72 NONAME
	_ZTV13CRadioRequest @ 73 NONAME
	_ZTV13RRadioSession @ 74 NONAME
	_ZTV18CRadioEventHandler @ 75 NONAME
	_ZN13RRadioSession4NewLEv @ 76 NONAME

