EXPORTS
	_ZN10RLbtServer5CloseEv @ 1 NONAME
	_ZN10RLbtServer7ConnectEv @ 2 NONAME
	_ZN10RLbtServerC1Ev @ 3 NONAME
	_ZN10RLbtServerC2Ev @ 4 NONAME
	_ZN11CLbtGeoCell14SetNetworkTypeEN12RMobilePhone23TMobilePhoneNetworkModeE @ 5 NONAME
	_ZN11CLbtGeoCell19SetLocationAreaCodeEj @ 6 NONAME
	_ZN11CLbtGeoCell21SetNetworkCountryCodeE4TBufILi4EE @ 7 NONAME
	_ZN11CLbtGeoCell22SetNetworkIdentityCodeE4TBufILi8EE @ 8 NONAME
	_ZN11CLbtGeoCell4NewLEN12RMobilePhone23TMobilePhoneNetworkModeE4TBufILi4EES2_ILi8EEjj @ 9 NONAME
	_ZN11CLbtGeoCell4NewLEv @ 10 NONAME
	_ZN11CLbtGeoCell5NewLCEN12RMobilePhone23TMobilePhoneNetworkModeE4TBufILi4EES2_ILi8EEjj @ 11 NONAME
	_ZN11CLbtGeoCell5NewLCEv @ 12 NONAME
	_ZN11CLbtGeoCell9SetCellIdEj @ 13 NONAME
	_ZN11CLbtGeoCellD0Ev @ 14 NONAME
	_ZN11CLbtGeoCellD1Ev @ 15 NONAME
	_ZN11CLbtGeoCellD2Ev @ 16 NONAME
	_ZN11CLbtGeoRect14DoInternalizeLER11RReadStream @ 17 NONAME
	_ZN11CLbtGeoRect4NewLEdddd @ 18 NONAME
	_ZN11CLbtGeoRect4NewLEv @ 19 NONAME
	_ZN11CLbtGeoRect5NewLCEdddd @ 20 NONAME
	_ZN11CLbtGeoRect5NewLCEv @ 21 NONAME
	_ZN11CLbtGeoRect9SetBorderEdddd @ 22 NONAME
	_ZN13CLBTOperation32CreateGeoAreaForCurrentLocationLER14TRequestStatusN15CLbtGeoAreaBase12TGeoAreaTypeEPPS2_ @ 23 NONAME
	_ZN13CLbtGeoCircle14DoInternalizeLER11RReadStream @ 24 NONAME
	_ZN13CLbtGeoCircle24GetAdditionalGeoAreaInfoEv @ 25 NONAME
	_ZN13CLbtGeoCircle24SetAdditionalGeoAreaInfoEP15CLbtGeoAreaBase @ 26 NONAME
	_ZN13CLbtGeoCircle4NewLERK11TCoordinated @ 27 NONAME
	_ZN13CLbtGeoCircle4NewLEv @ 28 NONAME
	_ZN13CLbtGeoCircle5NewLCERK11TCoordinated @ 29 NONAME
	_ZN13CLbtGeoCircle5NewLCEv @ 30 NONAME
	_ZN13CLbtGeoCircle9SetCenterERK11TCoordinate @ 31 NONAME
	_ZN13CLbtGeoCircle9SetRadiusEd @ 32 NONAME
	_ZN14CLbtGeoGsmCell4BsicEv @ 33 NONAME
	_ZN14CLbtGeoGsmCell4NewLEN12RMobilePhone23TMobilePhoneNetworkModeE4TBufILi4EES2_ILi8EEjj @ 34 NONAME
	_ZN14CLbtGeoGsmCell4NewLEv @ 35 NONAME
	_ZN14CLbtGeoGsmCell5NewLCEN12RMobilePhone23TMobilePhoneNetworkModeE4TBufILi4EES2_ILi8EEjj @ 36 NONAME
	_ZN14CLbtGeoGsmCell5NewLCEv @ 37 NONAME
	_ZN14CLbtGeoGsmCell7SetBsicER6RArrayIiE @ 38 NONAME
	_ZN14CLbtGeoGsmCellD0Ev @ 39 NONAME
	_ZN14CLbtGeoGsmCellD1Ev @ 40 NONAME
	_ZN14CLbtGeoGsmCellD2Ev @ 41 NONAME
	_ZN15CLbtGeoAreaBase12InternalizeLER11RReadStream @ 42 NONAME
	_ZN15CLbtTriggerInfo10SetDynInfoEP22TLbtTriggerDynamicInfo @ 43 NONAME
	_ZN15CLbtTriggerInfo12InternalizeLER11RReadStream @ 44 NONAME
	_ZN15CLbtTriggerInfo12TriggerEntryEv @ 45 NONAME
	_ZN15CLbtTriggerInfo15SetTriggerEntryEP16CLbtTriggerEntry @ 46 NONAME
	_ZN15CLbtTriggerInfo4NewLEP16CLbtTriggerEntryP22TLbtTriggerDynamicInfo @ 47 NONAME
	_ZN15CLbtTriggerInfo4NewLEv @ 48 NONAME
	_ZN15CLbtTriggerInfo5NewLCEv @ 49 NONAME
	_ZN15CLbtTriggerInfo7DynInfoEv @ 50 NONAME
	_ZN15CLbtTriggerInfoC1Ev @ 51 NONAME
	_ZN15CLbtTriggerInfoC2Ev @ 52 NONAME
	_ZN15CLbtTriggerInfoD0Ev @ 53 NONAME
	_ZN15CLbtTriggerInfoD1Ev @ 54 NONAME
	_ZN15CLbtTriggerInfoD2Ev @ 55 NONAME
	_ZN16CLbtGeoWcdmaCell13WcdmaCellInfoEv @ 56 NONAME
	_ZN16CLbtGeoWcdmaCell16SetWcdmaCellInfoERK17TLbtWcdmaCellInfo @ 57 NONAME
	_ZN16CLbtGeoWcdmaCell4NewLEN12RMobilePhone23TMobilePhoneNetworkModeE4TBufILi4EES2_ILi8EEjj @ 58 NONAME
	_ZN16CLbtGeoWcdmaCell4NewLEv @ 59 NONAME
	_ZN16CLbtGeoWcdmaCell5NewLCEN12RMobilePhone23TMobilePhoneNetworkModeE4TBufILi4EES2_ILi8EEjj @ 60 NONAME
	_ZN16CLbtGeoWcdmaCell5NewLCEv @ 61 NONAME
	_ZN16CLbtGeoWcdmaCellD0Ev @ 62 NONAME
	_ZN16CLbtGeoWcdmaCellD1Ev @ 63 NONAME
	_ZN16CLbtGeoWcdmaCellD2Ev @ 64 NONAME
	_ZN16CLbtTriggerEntry12GetConditionEv @ 65 NONAME
	_ZN16CLbtTriggerEntry12InternalizeLER11RReadStream @ 66 NONAME
	_ZN16CLbtTriggerEntry12SetConditionEP24CLbtTriggerConditionBase @ 67 NONAME
	_ZN16CLbtTriggerEntry12SetManagerUiE4TUid @ 68 NONAME
	_ZN16CLbtTriggerEntry13SetRequestorLEiiRK7TDesC16 @ 69 NONAME
	_ZN16CLbtTriggerEntry14SetRequestorsLERK15RRequestorStack @ 70 NONAME
	_ZN16CLbtTriggerEntry14SetTimeToRearmEi @ 71 NONAME
	_ZN16CLbtTriggerEntry5SetIdEm @ 72 NONAME
	_ZN16CLbtTriggerEntry8SetNameLERK7TDesC16 @ 73 NONAME
	_ZN16CLbtTriggerEntry8SetStateENS_16TLbtTriggerStateE @ 74 NONAME
	_ZN17TLbtWcdmaCellInfoD1Ev @ 75 NONAME
	_ZN17TLbtWcdmaCellInfoD2Ev @ 76 NONAME
	_ZN18CLbtSessionTrigger4NewLERK7TDesC16N16CLbtTriggerEntry16TLbtTriggerStateERK15RRequestorStack4TUidP24CLbtTriggerConditionBase @ 77 NONAME
	_ZN18CLbtSessionTrigger4NewLERK7TDesC16N16CLbtTriggerEntry16TLbtTriggerStateEiiS2_4TUidP24CLbtTriggerConditionBase @ 78 NONAME
	_ZN18CLbtSessionTrigger4NewLEv @ 79 NONAME
	_ZN18CLbtSessionTrigger5NewLCEv @ 80 NONAME
	_ZN18CLbtStartupTrigger12SetProcessIdERK7TDesC16RK9TSecureId @ 81 NONAME
	_ZN18CLbtStartupTrigger15SetCommandLineLERK7TDesC16 @ 82 NONAME
	_ZN18CLbtStartupTrigger4NewLERK7TDesC16N16CLbtTriggerEntry16TLbtTriggerStateERK15RRequestorStack4TUidP24CLbtTriggerConditionBaseS2_RK9TSecureIdS2_ @ 83 NONAME
	_ZN18CLbtStartupTrigger4NewLERK7TDesC16N16CLbtTriggerEntry16TLbtTriggerStateEiiS2_4TUidP24CLbtTriggerConditionBaseS2_RK9TSecureIdS2_ @ 84 NONAME
	_ZN18CLbtStartupTrigger4NewLEv @ 85 NONAME
	_ZN18CLbtStartupTrigger5NewLCEv @ 86 NONAME
	_ZN21CLbtSubSessnPtrHolder10ConstructLEii @ 87 NONAME
	_ZN21CLbtSubSessnPtrHolder3PtrEi @ 88 NONAME
	_ZN21CLbtSubSessnPtrHolder4NewLEii @ 89 NONAME
	_ZN21CLbtSubSessnPtrHolder4PtrCEi @ 90 NONAME
	_ZN21CLbtSubSessnPtrHolderD0Ev @ 91 NONAME
	_ZN21CLbtSubSessnPtrHolderD1Ev @ 92 NONAME
	_ZN21CLbtSubSessnPtrHolderD2Ev @ 93 NONAME
	_ZN21CLbtTriggerFilterBase12InternalizeLER11RReadStream @ 94 NONAME
	_ZN22CLbtListTriggerOptions12InternalizeLER11RReadStream @ 95 NONAME
	_ZN22CLbtListTriggerOptions16SetSortingOptionENS_22TLbtListTriggerSortingE @ 96 NONAME
	_ZN22CLbtListTriggerOptions18SetRetrievedFieldsEmm @ 97 NONAME
	_ZN22CLbtListTriggerOptions4NewLEv @ 98 NONAME
	_ZN22CLbtListTriggerOptions5NewLCEv @ 99 NONAME
	_ZN22CLbtListTriggerOptions6FilterEv @ 100 NONAME
	_ZN22CLbtListTriggerOptions9SetFilterEP21CLbtTriggerFilterBase @ 101 NONAME
	_ZN22CLbtListTriggerOptionsD0Ev @ 102 NONAME
	_ZN22CLbtListTriggerOptionsD1Ev @ 103 NONAME
	_ZN22CLbtListTriggerOptionsD2Ev @ 104 NONAME
	_ZN23CLbtTriggerFilterByArea14DoInternalizeLER11RReadStream @ 105 NONAME
	_ZN23CLbtTriggerFilterByArea4AreaEv @ 106 NONAME
	_ZN23CLbtTriggerFilterByArea4NewLEP15CLbtGeoAreaBase @ 107 NONAME
	_ZN23CLbtTriggerFilterByArea4NewLEv @ 108 NONAME
	_ZN23CLbtTriggerFilterByArea5NewLCEv @ 109 NONAME
	_ZN23CLbtTriggerFilterByArea7SetAreaEP15CLbtGeoAreaBase @ 110 NONAME
	_ZN24CLbtTriggerConditionArea12SetDirectionENS_10TDirectionE @ 111 NONAME
	_ZN24CLbtTriggerConditionArea14SetTriggerAreaEP15CLbtGeoAreaBase @ 112 NONAME
	_ZN24CLbtTriggerConditionArea4NewLEP15CLbtGeoAreaBaseNS_10TDirectionE @ 113 NONAME
	_ZN24CLbtTriggerConditionArea4NewLEv @ 114 NONAME
	_ZN24CLbtTriggerConditionArea5NewLCEv @ 115 NONAME
	_ZN24CLbtTriggerConditionBase12InternalizeLER11RReadStream @ 116 NONAME
	_ZN26CLbtTriggerFilterComposite10AddFilterLEP21CLbtTriggerFilterBase @ 117 NONAME
	_ZN26CLbtTriggerFilterComposite12RemoveFilterEi @ 118 NONAME
	_ZN26CLbtTriggerFilterComposite4NewLENS_14TCompositeTypeE @ 119 NONAME
	_ZN26CLbtTriggerFilterComposite5NewLCENS_14TCompositeTypeE @ 120 NONAME
	_ZN26CLbtTriggerFilterComposite5ResetEv @ 121 NONAME
	_ZN26CLbtTriggerFilterComposite9GetFilterEi @ 122 NONAME
	_ZN28CLbtTriggerFilterByAttribute11ResetFilterEv @ 123 NONAME
	_ZN28CLbtTriggerFilterByAttribute13AddTriggerIdLEm @ 124 NONAME
	_ZN28CLbtTriggerFilterByAttribute14DoInternalizeLER11RReadStream @ 125 NONAME
	_ZN28CLbtTriggerFilterByAttribute15AddTriggerTypeLEN16CLbtTriggerEntry5TTypeE @ 126 NONAME
	_ZN28CLbtTriggerFilterByAttribute16AddTriggerStateLEN16CLbtTriggerEntry16TLbtTriggerStateE @ 127 NONAME
	_ZN28CLbtTriggerFilterByAttribute19AddTriggerValidityLEN22TLbtTriggerDynamicInfo19TLbtTriggerValidityE @ 128 NONAME
	_ZN28CLbtTriggerFilterByAttribute20AddTriggerManagerUiLE4TUid @ 129 NONAME
	_ZN28CLbtTriggerFilterByAttribute4NewLEv @ 130 NONAME
	_ZN28CLbtTriggerFilterByAttribute5NewLCEv @ 131 NONAME
	_ZN28CLbtTriggerFilterByAttributeC1Ev @ 132 NONAME
	_ZN28CLbtTriggerFilterByAttributeC2Ev @ 133 NONAME
	_ZN28CLbtTriggerFilterByAttributeD0Ev @ 134 NONAME
	_ZN28CLbtTriggerFilterByAttributeD1Ev @ 135 NONAME
	_ZN28CLbtTriggerFilterByAttributeD2Ev @ 136 NONAME
	_ZN28TLbtTriggeringSystemSettings25SetMinimumTriggerAreaSizeEd @ 137 NONAME
	_ZN28TLbtTriggeringSystemSettings27SetTriggeringMechanismStateE28TLbtTriggeringMechanismState @ 138 NONAME
	_ZN28TLbtTriggeringSystemSettings4TypeEv @ 139 NONAME
	_ZN28TLbtTriggeringSystemSettingsC1Ev @ 140 NONAME
	_ZN28TLbtTriggeringSystemSettingsC2Ev @ 141 NONAME
	_ZN30CLbtTriggerChangeEventNotifier4NewLER4RLbtR30MLbtTriggerChangeEventObserveri @ 142 NONAME
	_ZN30CLbtTriggerChangeEventNotifier5StartEv @ 143 NONAME
	_ZN30CLbtTriggerChangeEventNotifierD0Ev @ 144 NONAME
	_ZN30CLbtTriggerChangeEventNotifierD1Ev @ 145 NONAME
	_ZN30CLbtTriggerChangeEventNotifierD2Ev @ 146 NONAME
	_ZN30CLbtTriggerFiringEventNotifier4NewLER4RLbtR30MLbtTriggerFiringEventObserveri @ 147 NONAME
	_ZN30CLbtTriggerFiringEventNotifier5StartEv @ 148 NONAME
	_ZN30CLbtTriggerFiringEventNotifierD0Ev @ 149 NONAME
	_ZN30CLbtTriggerFiringEventNotifierD1Ev @ 150 NONAME
	_ZN30CLbtTriggerFiringEventNotifierD2Ev @ 151 NONAME
	_ZN47CLbtTriggeringSystemSettingsChangeEventNotifier4NewLER4RLbtR47MLbtTriggeringSystemSettingsChangeEventObserveri @ 152 NONAME
	_ZN47CLbtTriggeringSystemSettingsChangeEventNotifier5StartEv @ 153 NONAME
	_ZN47CLbtTriggeringSystemSettingsChangeEventNotifierD0Ev @ 154 NONAME
	_ZN47CLbtTriggeringSystemSettingsChangeEventNotifierD1Ev @ 155 NONAME
	_ZN47CLbtTriggeringSystemSettingsChangeEventNotifierD2Ev @ 156 NONAME
	_ZN4RLbt11GetTriggersER14TRequestStatusR13RPointerArrayI15CLbtTriggerInfoEP22CLbtListTriggerOptions @ 157 NONAME
	_ZN4RLbt12GetTriggerLCEmmm @ 158 NONAME
	_ZN4RLbt12GetTriggersLER13RPointerArrayI15CLbtTriggerInfoEP22CLbtListTriggerOptions @ 159 NONAME
	_ZN4RLbt13CreateTriggerERK16CLbtTriggerEntryRmiR14TRequestStatus @ 160 NONAME
	_ZN4RLbt13UpdateTriggerERK16CLbtTriggerEntrym16TLbtFireOnUpdateR14TRequestStatus @ 161 NONAME
	_ZN4RLbt14DeleteTriggerLEm @ 162 NONAME
	_ZN4RLbt14DeleteTriggersER14TRequestStatusP21CLbtTriggerFilterBase @ 163 NONAME
	_ZN4RLbt14DeleteTriggersERK6RArrayImER14TRequestStatus @ 164 NONAME
	_ZN4RLbt14ListTriggerIdsER14TRequestStatusR6RArrayImEP22CLbtListTriggerOptions @ 165 NONAME
	_ZN4RLbt14UpdateTriggerLERK16CLbtTriggerEntrym16TLbtFireOnUpdate @ 166 NONAME
	_ZN4RLbt15DeleteTriggersLEP21CLbtTriggerFilterBase @ 167 NONAME
	_ZN4RLbt15DeleteTriggersLERK6RArrayImE @ 168 NONAME
	_ZN4RLbt15ListTriggerIdsLER6RArrayImEP22CLbtListTriggerOptions @ 169 NONAME
	_ZN4RLbt16GetNextTriggerLCEv @ 170 NONAME
	_ZN4RLbt16SetTriggerStateLEmN16CLbtTriggerEntry16TLbtTriggerStateE16TLbtFireOnUpdate @ 171 NONAME
	_ZN4RLbt16SetTriggersStateER14TRequestStatusN16CLbtTriggerEntry16TLbtTriggerStateE16TLbtFireOnUpdateP21CLbtTriggerFilterBase @ 172 NONAME
	_ZN4RLbt17CancelGetTriggersEv @ 173 NONAME
	_ZN4RLbt17GetFiredTriggersLER6RArrayI19TLbtTriggerFireInfoE @ 174 NONAME
	_ZN4RLbt17SetTriggersStateLEN16CLbtTriggerEntry16TLbtTriggerStateE16TLbtFireOnUpdateP21CLbtTriggerFilterBase @ 175 NONAME
	_ZN4RLbt18NotifyTriggerFiredER19TLbtTriggerFireInfoR14TRequestStatus @ 176 NONAME
	_ZN4RLbt19CancelCreateTriggerEv @ 177 NONAME
	_ZN4RLbt19CancelUpdateTriggerEv @ 178 NONAME
	_ZN4RLbt20CancelDeleteTriggersEv @ 179 NONAME
	_ZN4RLbt20CancelListTriggerIdsEv @ 180 NONAME
	_ZN4RLbt22CancelSetTriggersStateEv @ 181 NONAME
	_ZN4RLbt24CancelNotifyTriggerFiredEv @ 182 NONAME
	_ZN4RLbt24CreateGetTriggerIteratorER14TRequestStatusP22CLbtListTriggerOptions @ 183 NONAME
	_ZN4RLbt24NotifyTriggerChangeEventER22TLbtTriggerChangeEventR14TRequestStatus @ 184 NONAME
	_ZN4RLbt25CreateGetTriggerIteratorLEP22CLbtListTriggerOptions @ 185 NONAME
	_ZN4RLbt27CancelCreateTriggerIteratorEv @ 186 NONAME
	_ZN4RLbt28GetTriggeringSystemSettingsLER28TLbtTriggeringSystemSettings @ 187 NONAME
	_ZN4RLbt30CancelNotifyTriggerChangeEventEv @ 188 NONAME
	_ZN4RLbt35NotifyTriggeringSystemSettingChangeER28TLbtTriggeringSystemSettingsR14TRequestStatus @ 189 NONAME
	_ZN4RLbt41CancelNotifyTriggeringSystemSettingChangeEv @ 190 NONAME
	_ZN4RLbt4OpenER10RLbtServer @ 191 NONAME
	_ZN4RLbt4OpenEv @ 192 NONAME
	_ZN4RLbt5CloseEv @ 193 NONAME
	_ZN4RLbt9CancelAllEv @ 194 NONAME
	_ZN4RLbtC1Ev @ 195 NONAME
	_ZN4RLbtC2Ev @ 196 NONAME
	_ZN4RLbtD1Ev @ 197 NONAME
	_ZN4RLbtD2Ev @ 198 NONAME
	_ZNK10RLbtServer7VersionEv @ 199 NONAME
	_ZNK11CLbtGeoCell11NetworkTypeEv @ 200 NONAME
	_ZNK11CLbtGeoCell16LocationAreaCodeEv @ 201 NONAME
	_ZNK11CLbtGeoCell18NetworkCountryCodeEv @ 202 NONAME
	_ZNK11CLbtGeoCell19NetworkIdentityCodeEv @ 203 NONAME
	_ZNK11CLbtGeoCell6CellIdEv @ 204 NONAME
	_ZNK11CLbtGeoRect14DoExternalizeLER12RWriteStream @ 205 NONAME
	_ZNK11CLbtGeoRect9GetBorderERdS0_S0_S0_ @ 206 NONAME
	_ZNK13CLbtGeoCircle14DoExternalizeLER12RWriteStream @ 207 NONAME
	_ZNK13CLbtGeoCircle6RadiusEv @ 208 NONAME
	_ZNK14CLbtGeoGsmCell26CGISpecifiedDuringCreationEv @ 209 NONAME
	_ZNK15CLbtGeoAreaBase12ExternalizeLER12RWriteStream @ 210 NONAME
	_ZNK15CLbtTriggerInfo12ExternalizeLER12RWriteStream @ 211 NONAME
	_ZNK16CLbtGeoWcdmaCell26CGISpecifiedDuringCreationEv @ 212 NONAME
	_ZNK16CLbtTriggerEntry11TimeToRearmEv @ 213 NONAME
	_ZNK16CLbtTriggerEntry12ExternalizeLER12RWriteStream @ 214 NONAME
	_ZNK16CLbtTriggerEntry12GetConditionEv @ 215 NONAME
	_ZNK16CLbtTriggerEntry14GetRequestorsLER15RRequestorStack @ 216 NONAME
	_ZNK16CLbtTriggerEntry2IdEv @ 217 NONAME
	_ZNK16CLbtTriggerEntry4NameEv @ 218 NONAME
	_ZNK16CLbtTriggerEntry5StateEv @ 219 NONAME
	_ZNK16CLbtTriggerEntry9ManagerUiEv @ 220 NONAME
	_ZNK18CLbtSessionTrigger4TypeEv @ 221 NONAME
	_ZNK18CLbtStartupTrigger11CommandLineEv @ 222 NONAME
	_ZNK18CLbtStartupTrigger12GetProcessIdER6TDes16R9TSecureId @ 223 NONAME
	_ZNK18CLbtStartupTrigger4TypeEv @ 224 NONAME
	_ZNK21CLbtTriggerFilterBase12ExternalizeLER12RWriteStream @ 225 NONAME
	_ZNK22CLbtListTriggerOptions12ExternalizeLER12RWriteStream @ 226 NONAME
	_ZNK22CLbtListTriggerOptions13SortingOptionEv @ 227 NONAME
	_ZNK22CLbtListTriggerOptions18GetRetrievedFieldsERmS0_ @ 228 NONAME
	_ZNK23CLbtTriggerFilterByArea14DoExternalizeLER12RWriteStream @ 229 NONAME
	_ZNK23CLbtTriggerFilterByArea4TypeEv @ 230 NONAME
	_ZNK24CLbtTriggerConditionArea11TriggerAreaEv @ 231 NONAME
	_ZNK24CLbtTriggerConditionArea9DirectionEv @ 232 NONAME
	_ZNK24CLbtTriggerConditionBase12ExternalizeLER12RWriteStream @ 233 NONAME
	_ZNK26CLbtTriggerFilterComposite15NumberOfFiltersEv @ 234 NONAME
	_ZNK26CLbtTriggerFilterComposite4TypeEv @ 235 NONAME
	_ZNK28CLbtTriggerFilterByAttribute13GetTypeArrayLER6RArrayIN16CLbtTriggerEntry5TTypeEE @ 236 NONAME
	_ZNK28CLbtTriggerFilterByAttribute14DoExternalizeLER12RWriteStream @ 237 NONAME
	_ZNK28CLbtTriggerFilterByAttribute14GetStateArrayLER6RArrayIN16CLbtTriggerEntry16TLbtTriggerStateEE @ 238 NONAME
	_ZNK28CLbtTriggerFilterByAttribute17GetValidityArrayLER6RArrayIN22TLbtTriggerDynamicInfo19TLbtTriggerValidityEE @ 239 NONAME
	_ZNK28CLbtTriggerFilterByAttribute18GetManagerUiArrayLER6RArrayI4TUidE @ 240 NONAME
	_ZNK28CLbtTriggerFilterByAttribute18GetTriggerIdArrayLER6RArrayImE @ 241 NONAME
	_ZNK28CLbtTriggerFilterByAttribute19IsTriggerIdInFilterEm @ 242 NONAME
	_ZNK28CLbtTriggerFilterByAttribute21IsTriggerTypeInFilterEN16CLbtTriggerEntry5TTypeE @ 243 NONAME
	_ZNK28CLbtTriggerFilterByAttribute22IsTriggerStateInFilterEN16CLbtTriggerEntry16TLbtTriggerStateE @ 244 NONAME
	_ZNK28CLbtTriggerFilterByAttribute26IsTriggerManagerUiInFilterE4TUid @ 245 NONAME
	_ZNK28CLbtTriggerFilterByAttribute31IsTriggerValidityStatusInFilterEN22TLbtTriggerDynamicInfo19TLbtTriggerValidityE @ 246 NONAME
	_ZNK28CLbtTriggerFilterByAttribute4TypeEv @ 247 NONAME
	_ZNK28TLbtTriggeringSystemSettings22MinimumTriggerAreaSizeEv @ 248 NONAME
	_ZNK28TLbtTriggeringSystemSettings24TriggeringMechanismStateEv @ 249 NONAME
	_ZTI11CLbtGeoCell @ 250 NONAME ; #<TI>#
	_ZTI11CLbtGeoRect @ 251 NONAME ; #<TI>#
	_ZTI13CLBTOperation @ 252 NONAME ; #<TI>#
	_ZTI13CLbtGeoCircle @ 253 NONAME ; #<TI>#
	_ZTI14CLbtGeoGsmCell @ 254 NONAME ; #<TI>#
	_ZTI15CLbtGeoAreaBase @ 255 NONAME ; #<TI>#
	_ZTI15CLbtTriggerInfo @ 256 NONAME ; #<TI>#
	_ZTI16CLbtGeoWcdmaCell @ 257 NONAME ; #<TI>#
	_ZTI16CLbtTriggerEntry @ 258 NONAME ; #<TI>#
	_ZTI17CLbtCellOperation @ 259 NONAME ; #<TI>#
	_ZTI18CLbtSessionTrigger @ 260 NONAME ; #<TI>#
	_ZTI18CLbtStartupTrigger @ 261 NONAME ; #<TI>#
	_ZTI19CLbtClientRequester @ 262 NONAME ; #<TI>#
	_ZTI21CLbtSubSessnPtrHolder @ 263 NONAME ; #<TI>#
	_ZTI21CLbtTriggerFilterBase @ 264 NONAME ; #<TI>#
	_ZTI22CLbtListTriggerOptions @ 265 NONAME ; #<TI>#
	_ZTI23CLbtTriggerFilterByArea @ 266 NONAME ; #<TI>#
	_ZTI24CLbtTriggerConditionArea @ 267 NONAME ; #<TI>#
	_ZTI24CLbtTriggerConditionBase @ 268 NONAME ; #<TI>#
	_ZTI26CLbtTriggerFilterComposite @ 269 NONAME ; #<TI>#
	_ZTI28CLbtTriggerFilterByAttribute @ 270 NONAME ; #<TI>#
	_ZTI28TLbtTriggeringSystemSettings @ 271 NONAME ; #<TI>#
	_ZTI30CLbtTriggerChangeEventNotifier @ 272 NONAME ; #<TI>#
	_ZTI30CLbtTriggerFiringEventNotifier @ 273 NONAME ; #<TI>#
	_ZTI47CLbtTriggeringSystemSettingsChangeEventNotifier @ 274 NONAME ; #<TI>#
	_ZTV11CLbtGeoCell @ 275 NONAME ; #<VT>#
	_ZTV11CLbtGeoRect @ 276 NONAME ; #<VT>#
	_ZTV13CLBTOperation @ 277 NONAME ; #<VT>#
	_ZTV13CLbtGeoCircle @ 278 NONAME ; #<VT>#
	_ZTV14CLbtGeoGsmCell @ 279 NONAME ; #<VT>#
	_ZTV15CLbtGeoAreaBase @ 280 NONAME ; #<VT>#
	_ZTV15CLbtTriggerInfo @ 281 NONAME ; #<VT>#
	_ZTV16CLbtGeoWcdmaCell @ 282 NONAME ; #<VT>#
	_ZTV16CLbtTriggerEntry @ 283 NONAME ; #<VT>#
	_ZTV17CLbtCellOperation @ 284 NONAME ; #<VT>#
	_ZTV18CLbtSessionTrigger @ 285 NONAME ; #<VT>#
	_ZTV18CLbtStartupTrigger @ 286 NONAME ; #<VT>#
	_ZTV19CLbtClientRequester @ 287 NONAME ; #<VT>#
	_ZTV21CLbtSubSessnPtrHolder @ 288 NONAME ; #<VT>#
	_ZTV21CLbtTriggerFilterBase @ 289 NONAME ; #<VT>#
	_ZTV22CLbtListTriggerOptions @ 290 NONAME ; #<VT>#
	_ZTV23CLbtTriggerFilterByArea @ 291 NONAME ; #<VT>#
	_ZTV24CLbtTriggerConditionArea @ 292 NONAME ; #<VT>#
	_ZTV24CLbtTriggerConditionBase @ 293 NONAME ; #<VT>#
	_ZTV26CLbtTriggerFilterComposite @ 294 NONAME ; #<VT>#
	_ZTV28CLbtTriggerFilterByAttribute @ 295 NONAME ; #<VT>#
	_ZTV28TLbtTriggeringSystemSettings @ 296 NONAME ; #<VT>#
	_ZTV30CLbtTriggerChangeEventNotifier @ 297 NONAME ; #<VT>#
	_ZTV30CLbtTriggerFiringEventNotifier @ 298 NONAME ; #<VT>#
	_ZTV47CLbtTriggeringSystemSettingsChangeEventNotifier @ 299 NONAME ; #<VT>#
	_ZN13CLbtGeoHybrid10HybridAreaEv @ 300 NONAME
	_ZN13CLbtGeoHybrid13SetHybridAreaERK13RPointerArrayI15CLbtGeoAreaBaseE @ 301 NONAME
	_ZN13CLbtGeoHybrid4NewLER13RPointerArrayI15CLbtGeoAreaBaseE @ 302 NONAME
	_ZN13CLbtGeoHybrid4NewLEv @ 303 NONAME
	_ZN13CLbtGeoHybrid5NewLCER13RPointerArrayI15CLbtGeoAreaBaseE @ 304 NONAME
	_ZN13CLbtGeoHybrid5NewLCEv @ 305 NONAME
	_ZN13CLbtGeoHybridD0Ev @ 306 NONAME
	_ZN13CLbtGeoHybridD1Ev @ 307 NONAME
	_ZN13CLbtGeoHybridD2Ev @ 308 NONAME
	_ZTI13CLbtGeoHybrid @ 309 NONAME
	_ZTV13CLbtGeoHybrid @ 310 NONAME

