EXPORTS
	?RemoveMsgQueueNotifier@TMSProxy@TMS@@QAEHW4TMSMsgQueueNotifierType@2@PAX@Z @ 1 NONAME ; int TMS::TMSProxy::RemoveMsgQueueNotifier(enum TMS::TMSMsgQueueNotifierType, void *)
	?GetMaxLevel@TMSProxy@TMS@@QAEHAAI@Z @ 2 NONAME ; int TMS::TMSProxy::GetMaxLevel(unsigned int &)
	?GetSupportedDecoders@TMSProxy@TMS@@QAEHAAV?$RArray@K@@AAH@Z @ 3 NONAME ; int TMS::TMSProxy::GetSupportedDecoders(class RArray<unsigned long> &, int &)
	?Connect@TMSProxy@TMS@@QAEHXZ @ 4 NONAME ; int TMS::TMSProxy::Connect(void)
	?SetLevel@TMSProxy@TMS@@QAEHI@Z @ 5 NONAME ; int TMS::TMSProxy::SetLevel(unsigned int)
	?TermSrv@TMSProxy@TMS@@QAEXXZ @ 6 NONAME ; void TMS::TMSProxy::TermSrv(void)
	?InitRT@TMSProxy@TMS@@QAEHHPAU_GString@@0@Z @ 7 NONAME ; int TMS::TMSProxy::InitRT(int, struct _GString *, struct _GString *)
	?GetGain@TMSProxy@TMS@@QAEHAAI@Z @ 8 NONAME ; int TMS::TMSProxy::GetGain(unsigned int &)
	?PlayRT@TMSProxy@TMS@@QAEHXZ @ 9 NONAME ; int TMS::TMSProxy::PlayRT(void)
	?StartInbandTone@TMSProxy@TMS@@QAEHH@Z @ 10 NONAME ; int TMS::TMSProxy::StartInbandTone(int)
	?Version@TMSProxy@TMS@@QBE?AVTVersion@@XZ @ 11 NONAME ; class TVersion TMS::TMSProxy::Version(void) const
	?GetTMSCallSessionHandle@TMSProxy@TMS@@QAEHXZ @ 12 NONAME ; int TMS::TMSProxy::GetTMSCallSessionHandle(void)
	?StopRT@TMSProxy@TMS@@QAEHXZ @ 13 NONAME ; int TMS::TMSProxy::StopRT(void)
	?GetSupportedEncoders@TMSProxy@TMS@@QAEHAAV?$RArray@K@@AAH@Z @ 14 NONAME ; int TMS::TMSProxy::GetSupportedEncoders(class RArray<unsigned long> &, int &)
	?ContinueDTMFStringSending@TMSProxy@TMS@@QAEHH@Z @ 15 NONAME ; int TMS::TMSProxy::ContinueDTMFStringSending(int)
	?StopInbandTone@TMSProxy@TMS@@QAEHXZ @ 16 NONAME ; int TMS::TMSProxy::StopInbandTone(void)
	?GetOutput@TMSProxy@TMS@@QAEHAAH@Z @ 17 NONAME ; int TMS::TMSProxy::GetOutput(int &)
	?MuteRT@TMSProxy@TMS@@QAEHXZ @ 18 NONAME ; int TMS::TMSProxy::MuteRT(void)
	?StopDTMF@TMSProxy@TMS@@QAEHH@Z @ 19 NONAME ; int TMS::TMSProxy::StopDTMF(int)
	??1TMSProxy@TMS@@UAE@XZ @ 20 NONAME ; TMS::TMSProxy::~TMSProxy(void)
	?SetMsgQueueNotifier@TMSProxy@TMS@@QAEHW4TMSMsgQueueNotifierType@2@PAX1H@Z @ 21 NONAME ; int TMS::TMSProxy::SetMsgQueueNotifier(enum TMS::TMSMsgQueueNotifierType, void *, void *, int)
	?GetAvailableOutputs@TMSProxy@TMS@@QAEHAAV?$vector@IV?$allocator@I@std@@@std@@@Z @ 22 NONAME ; int TMS::TMSProxy::GetAvailableOutputs(class std::vector<unsigned int, class std::allocator<unsigned int> > &)
	?PauseRT@TMSProxy@TMS@@QAEHXZ @ 23 NONAME ; int TMS::TMSProxy::PauseRT(void)
	?StartRoutingNotifier@TMSProxy@TMS@@QAEHXZ @ 24 NONAME ; int TMS::TMSProxy::StartRoutingNotifier(void)
	?StartDTMF@TMSProxy@TMS@@QAEHHPAU_GString@@@Z @ 25 NONAME ; int TMS::TMSProxy::StartDTMF(int, struct _GString *)
	?CancelRoutingNotifier@TMSProxy@TMS@@QAEHXZ @ 26 NONAME ; int TMS::TMSProxy::CancelRoutingNotifier(void)
	?SetGain@TMSProxy@TMS@@QAEHI@Z @ 27 NONAME ; int TMS::TMSProxy::SetGain(unsigned int)
	?GetLevel@TMSProxy@TMS@@QAEHAAI@Z @ 28 NONAME ; int TMS::TMSProxy::GetLevel(unsigned int &)
	?GetPreviousOutput@TMSProxy@TMS@@QAEHAAH@Z @ 29 NONAME ; int TMS::TMSProxy::GetPreviousOutput(int &)
	?Close@TMSProxy@TMS@@QAEXXZ @ 30 NONAME ; void TMS::TMSProxy::Close(void)
	??0TMSProxy@TMS@@QAE@XZ @ 31 NONAME ; TMS::TMSProxy::TMSProxy(void)
	?SetOutput@TMSProxy@TMS@@QAEHH@Z @ 32 NONAME ; int TMS::TMSProxy::SetOutput(int)
	?InitDTMFPlayer@TMSProxy@TMS@@QAEHH@Z @ 33 NONAME ; int TMS::TMSProxy::InitDTMFPlayer(int)
	?DeinitRT@TMSProxy@TMS@@QAEHXZ @ 34 NONAME ; int TMS::TMSProxy::DeinitRT(void)
	?CancelGlobalEffectNotifier@TMSProxy@TMS@@QAEHXZ @ 35 NONAME ; int TMS::TMSProxy::CancelGlobalEffectNotifier(void)
	?GetMaxGain@TMSProxy@TMS@@QAEHAAI@Z @ 36 NONAME ; int TMS::TMSProxy::GetMaxGain(unsigned int &)
	?StartGlobalEffectNotifier@TMSProxy@TMS@@QAEHXZ @ 37 NONAME ; int TMS::TMSProxy::StartGlobalEffectNotifier(void)

