EXPORTS
	?RunL@CDeleteObject@@MAEXXZ @ 1 NONAME ; void CDeleteObject::RunL(void)
	?DoHandleResponsePhaseL@CSetObjectPropValue@@MAEHXZ @ 2 NONAME ; int CSetObjectPropValue::DoHandleResponsePhaseL(void)
	?NewL@CDeleteObject@@SAPAVMMmRequestProcessor@@AAVMMTPDataProviderFramework@@AAVMMTPConnection@@AAVMMmMtpDpConfig@@@Z @ 3 NONAME ; class MMmRequestProcessor * CDeleteObject::NewL(class MMTPDataProviderFramework &, class MMTPConnection &, class MMmMtpDpConfig &)
	?StartL@CRenameObject@@QAEXKABVTDesC16@@@Z @ 4 NONAME ; void CRenameObject::StartL(unsigned long, class TDesC16 const &)
	??1CRequestUnknown@@UAE@XZ @ 5 NONAME ; CRequestUnknown::~CRequestUnknown(void)
	?DeleteObjectL@CMmMtpDpMetadataAccessWrapper@@QAEXABVCMTPObjectMetaData@@@Z @ 6 NONAME ; void CMmMtpDpMetadataAccessWrapper::DeleteObjectL(class CMTPObjectMetaData const &)
	?UpdateMusicCollectionL@CMmMtpDpMetadataAccessWrapper@@QAEXABVTDesC16@@@Z @ 7 NONAME ; void CMmMtpDpMetadataAccessWrapper::UpdateMusicCollectionL(class TDesC16 const &)
	?Release@CRequestProcessor@@MAEXXZ @ 8 NONAME ; void CRequestProcessor::Release(void)
	?HandleRequestL@CRequestProcessor@@MAEHABVTMTPTypeRequest@@W4TMTPTransactionPhase@@@Z @ 9 NONAME ; int CRequestProcessor::HandleRequestL(class TMTPTypeRequest const &, enum TMTPTransactionPhase)
	?DoHandleCompletingPhaseL@CDeleteObject@@MAEHXZ @ 10 NONAME ; int CDeleteObject::DoHandleCompletingPhaseL(void)
	??1CGetInterdependentPropDesc@@UAE@XZ @ 11 NONAME ; CGetInterdependentPropDesc::~CGetInterdependentPropDesc(void)
	?OpenSessionL@CMmMtpDpAccessSingleton@@SAXXZ @ 12 NONAME ; void CMmMtpDpAccessSingleton::OpenSessionL(void)
	?ServiceL@CGetPartialObject@@MAEXXZ @ 13 NONAME ; void CGetPartialObject::ServiceL(void)
	?DoHandleResponsePhaseL@CRequestProcessor@@MAEHXZ @ 14 NONAME ; int CRequestProcessor::DoHandleResponsePhaseL(void)
	?NewL@CGetObjectPropDesc@@SAPAVMMmRequestProcessor@@AAVMMTPDataProviderFramework@@AAVMMTPConnection@@AAVMMmMtpDpConfig@@@Z @ 15 NONAME ; class MMmRequestProcessor * CGetObjectPropDesc::NewL(class MMTPDataProviderFramework &, class MMTPConnection &, class MMmMtpDpConfig &)
	??0CGetObjectPropValue@@IAE@AAVMMTPDataProviderFramework@@AAVMMTPConnection@@AAVMMmMtpDpConfig@@@Z @ 16 NONAME ; CGetObjectPropValue::CGetObjectPropValue(class MMTPDataProviderFramework &, class MMTPConnection &, class MMmMtpDpConfig &)
	?CheckRequestL@CSetObjectPropList@@MAE?AW4TMTPResponseCode@@XZ @ 17 NONAME ; enum TMTPResponseCode CSetObjectPropList::CheckRequestL(void)
	?RunL@CRequestProcessor@@MAEXXZ @ 18 NONAME ; void CRequestProcessor::RunL(void)
	?ServiceL@CDeleteObject@@MAEXXZ @ 19 NONAME ; void CDeleteObject::ServiceL(void)
	?DoCancel@CSetObjectPropList@@MAEXXZ @ 20 NONAME ; void CSetObjectPropList::DoCancel(void)
	?CleanupDatabaseL@CMmMtpDpMetadataAccessWrapper@@QAEXXZ @ 21 NONAME ; void CMmMtpDpMetadataAccessWrapper::CleanupDatabaseL(void)
	?ServiceL@CGetObjectPropsSupported@@MAEXXZ @ 22 NONAME ; void CGetObjectPropsSupported::ServiceL(void)
	?NewL@CSetObjectReferences@@SAPAVMMmRequestProcessor@@AAVMMTPDataProviderFramework@@AAVMMTPConnection@@AAVMMmMtpDpConfig@@@Z @ 23 NONAME ; class MMmRequestProcessor * CSetObjectReferences::NewL(class MMTPDataProviderFramework &, class MMTPConnection &, class MMmMtpDpConfig &)
	?Release@CMmMtpDpAccessSingleton@@SAXXZ @ 24 NONAME ; void CMmMtpDpAccessSingleton::Release(void)
	?UsbDisconnect@CSendObject@@MAEXXZ @ 25 NONAME ; void CSendObject::UsbDisconnect(void)
	?ServiceL@CGetFormatCapabilities@@MAEXXZ @ 26 NONAME ; void CGetFormatCapabilities::ServiceL(void)
	??1CSetObjectPropList@@UAE@XZ @ 27 NONAME ; CSetObjectPropList::~CSetObjectPropList(void)
	?ServiceL@CSetObjectPropList@@MAEXXZ @ 28 NONAME ; void CSetObjectPropList::ServiceL(void)
	??0CMoveObject@@IAE@AAVMMTPDataProviderFramework@@AAVMMTPConnection@@AAVMMmMtpDpConfig@@@Z @ 29 NONAME ; CMoveObject::CMoveObject(class MMTPDataProviderFramework &, class MMTPConnection &, class MMmMtpDpConfig &)
	?ConstructL@CGetObjectPropList@@IAEXXZ @ 30 NONAME ; void CGetObjectPropList::ConstructL(void)
	??1CSendObject@@UAE@XZ @ 31 NONAME ; CSendObject::~CSendObject(void)
	?ServiceMetaDataFromWrapperL@CGetObjectPropValue@@IAEXGAAVMMTPType@@ABVCMTPObjectMetaData@@@Z @ 32 NONAME ; void CGetObjectPropValue::ServiceMetaDataFromWrapperL(unsigned short, class MMTPType &, class CMTPObjectMetaData const &)
	?NewL@CGetObject@@SAPAVMMmRequestProcessor@@AAVMMTPDataProviderFramework@@AAVMMTPConnection@@AAVMMmMtpDpConfig@@@Z @ 33 NONAME ; class MMmRequestProcessor * CGetObject::NewL(class MMTPDataProviderFramework &, class MMTPConnection &, class MMmMtpDpConfig &)
	??1CGetObjectPropValue@@UAE@XZ @ 34 NONAME ; CGetObjectPropValue::~CGetObjectPropValue(void)
	?ActiveToIdleStatusChange@CMmMtpDpAccessSingleton@@SAXXZ @ 35 NONAME ; void CMmMtpDpAccessSingleton::ActiveToIdleStatusChange(void)
	?CreateL@CMmMtpDpAccessSingleton@@SAXAAVMMTPDataProviderFramework@@@Z @ 36 NONAME ; void CMmMtpDpAccessSingleton::CreateL(class MMTPDataProviderFramework &)
	??1CGetFormatCapabilities@@UAE@XZ @ 37 NONAME ; CGetFormatCapabilities::~CGetFormatCapabilities(void)
	?ServiceL@CSetObjectReferences@@EAEXXZ @ 38 NONAME ; void CSetObjectReferences::ServiceL(void)
	?DoHandleDataIToRPhaseL@CRequestProcessor@@MAEHXZ @ 39 NONAME ; int CRequestProcessor::DoHandleDataIToRPhaseL(void)
	??0CGetObjectPropList@@IAE@AAVMMTPDataProviderFramework@@AAVMMTPConnection@@AAVMMmMtpDpConfig@@@Z @ 40 NONAME ; CGetObjectPropList::CGetObjectPropList(class MMTPDataProviderFramework &, class MMTPConnection &, class MMmMtpDpConfig &)
	?ConstructL@CCopyObject@@IAEXXZ @ 41 NONAME ; void CCopyObject::ConstructL(void)
	?SetMetaDataToWrapper@CPropertySettingUtility@@QAE?AW4TMTPResponseCode@@AAVMMmMtpDpConfig@@GAAVMMTPType@@ABVCMTPObjectMetaData@@@Z @ 42 NONAME ; enum TMTPResponseCode CPropertySettingUtility::SetMetaDataToWrapper(class MMmMtpDpConfig &, unsigned short, class MMTPType &, class CMTPObjectMetaData const &)
	?ServiceL@CGetObjectPropValue@@MAEXXZ @ 43 NONAME ; void CGetObjectPropValue::ServiceL(void)
	??1CRenameObject@@UAE@XZ @ 44 NONAME ; CRenameObject::~CRenameObject(void)
	?Match@CRequestProcessor@@MBEHABVTMTPTypeEvent@@AAVMMTPConnection@@@Z @ 45 NONAME ; int CRequestProcessor::Match(class TMTPTypeEvent const &, class MMTPConnection &) const
	?DoHandleCompletingPhaseL@CSendObject@@MAEHXZ @ 46 NONAME ; int CSendObject::DoHandleCompletingPhaseL(void)
	?GetDrmStatus@MmMtpDpUtility@@SAHABVTDesC16@@@Z @ 47 NONAME ; int MmMtpDpUtility::GetDrmStatus(class TDesC16 const &)
	?RunL@CRenameObject@@MAEXXZ @ 48 NONAME ; void CRenameObject::RunL(void)
	?SetPSStatus@MmMtpDpUtility@@SAXW4TMtpPSStatus@@@Z @ 49 NONAME ; void MmMtpDpUtility::SetPSStatus(enum TMtpPSStatus)
	??0CRequestProcessor@@IAE@AAVMMTPDataProviderFramework@@AAVMMTPConnection@@HPBUTMTPRequestElementInfo@@@Z @ 50 NONAME ; CRequestProcessor::CRequestProcessor(class MMTPDataProviderFramework &, class MMTPConnection &, int, struct TMTPRequestElementInfo const *)
	?ServiceL@CSendObject@@MAEXXZ @ 51 NONAME ; void CSendObject::ServiceL(void)
	?Request@CRequestProcessor@@MBEABVTMTPTypeRequest@@XZ @ 52 NONAME ; class TMTPTypeRequest const & CRequestProcessor::Request(void) const
	?CheckRequestL@CGetPartialObject@@MAE?AW4TMTPResponseCode@@XZ @ 53 NONAME ; enum TMTPResponseCode CGetPartialObject::CheckRequestL(void)
	?DoCancel@CRequestProcessor@@MAEXXZ @ 54 NONAME ; void CRequestProcessor::DoCancel(void)
	?NewL@CRequestUnknown@@SAPAVMMmRequestProcessor@@AAVMMTPDataProviderFramework@@AAVMMTPConnection@@@Z @ 55 NONAME ; class MMmRequestProcessor * CRequestUnknown::NewL(class MMTPDataProviderFramework &, class MMTPConnection &)
	?ConstructL@CGetObjectInfo@@AAEXXZ @ 56 NONAME ; void CGetObjectInfo::ConstructL(void)
	?UsbDisconnect@CRequestProcessor@@MAEXXZ @ 57 NONAME ; void CRequestProcessor::UsbDisconnect(void)
	??1CMoveObject@@UAE@XZ @ 58 NONAME ; CMoveObject::~CMoveObject(void)
	?CheckRequestL@CSendObject@@MAE?AW4TMTPResponseCode@@XZ @ 59 NONAME ; enum TMTPResponseCode CSendObject::CheckRequestL(void)
	??1CRequestProcessor@@MAE@XZ @ 60 NONAME ; CRequestProcessor::~CRequestProcessor(void)
	?DoCancel@CDeleteObject@@MAEXXZ @ 61 NONAME ; void CDeleteObject::DoCancel(void)
	??1CGetObject@@UAE@XZ @ 62 NONAME ; CGetObject::~CGetObject(void)
	?NewL@CGetInterdependentPropDesc@@SAPAVMMmRequestProcessor@@AAVMMTPDataProviderFramework@@AAVMMTPConnection@@AAVMMmMtpDpConfig@@@Z @ 63 NONAME ; class MMmRequestProcessor * CGetInterdependentPropDesc::NewL(class MMTPDataProviderFramework &, class MMTPConnection &, class MMmMtpDpConfig &)
	?AddObjectL@CMmMtpDpMetadataAccessWrapper@@QAEXABVCMTPObjectMetaData@@@Z @ 64 NONAME ; void CMmMtpDpMetadataAccessWrapper::AddObjectL(class CMTPObjectMetaData const &)
	?DoHandleResponsePhaseL@CSetObjectReferences@@EAEHXZ @ 65 NONAME ; int CSetObjectReferences::DoHandleResponsePhaseL(void)
	?GetAccessWrapperL@CMmMtpDpAccessSingleton@@SAAAVCMmMtpDpMetadataAccessWrapper@@XZ @ 66 NONAME ; class CMmMtpDpMetadataAccessWrapper & CMmMtpDpAccessSingleton::GetAccessWrapperL(void)
	??1CGetObjectPropsSupported@@UAE@XZ @ 67 NONAME ; CGetObjectPropsSupported::~CGetObjectPropsSupported(void)
	?CheckRequestL@CGetObjectPropList@@MAE?AW4TMTPResponseCode@@XZ @ 68 NONAME ; enum TMTPResponseCode CGetObjectPropList::CheckRequestL(void)
	?HasDataphase@CRequestProcessor@@MBEHXZ @ 69 NONAME ; int CRequestProcessor::HasDataphase(void) const
	?NewL@CGetObjectPropsSupported@@SAPAVMMmRequestProcessor@@AAVMMTPDataProviderFramework@@AAVMMTPConnection@@AAVMMmMtpDpConfig@@@Z @ 70 NONAME ; class MMmRequestProcessor * CGetObjectPropsSupported::NewL(class MMTPDataProviderFramework &, class MMTPConnection &, class MMmMtpDpConfig &)
	?Connection@CRequestProcessor@@MBEAAVMMTPConnection@@XZ @ 71 NONAME ; class MMTPConnection & CRequestProcessor::Connection(void) const
	??1CPropertySettingUtility@@UAE@XZ @ 72 NONAME ; CPropertySettingUtility::~CPropertySettingUtility(void)
	??1CGetPartialObject@@UAE@XZ @ 73 NONAME ; CGetPartialObject::~CGetPartialObject(void)
	?NewL@CGetObjectInfo@@SAPAVMMmRequestProcessor@@AAVMMTPDataProviderFramework@@AAVMMTPConnection@@AAVMMmMtpDpConfig@@@Z @ 74 NONAME ; class MMmRequestProcessor * CGetObjectInfo::NewL(class MMTPDataProviderFramework &, class MMTPConnection &, class MMmMtpDpConfig &)
	?RunError@CSetObjectPropList@@MAEHH@Z @ 75 NONAME ; int CSetObjectPropList::RunError(int)
	?CheckRequestL@CGetInterdependentPropDesc@@MAE?AW4TMTPResponseCode@@XZ @ 76 NONAME ; enum TMTPResponseCode CGetInterdependentPropDesc::CheckRequestL(void)
	?Match@CRequestUnknown@@MBEHABVTMTPTypeRequest@@AAVMMTPConnection@@@Z @ 77 NONAME ; int CRequestUnknown::Match(class TMTPTypeRequest const &, class MMTPConnection &) const
	?ServiceL@CMoveObject@@MAEXXZ @ 78 NONAME ; void CMoveObject::ServiceL(void)
	?CreateDummyFile@CMmMtpDpMetadataAccessWrapper@@QAEXABVTDesC16@@@Z @ 79 NONAME ; void CMmMtpDpMetadataAccessWrapper::CreateDummyFile(class TDesC16 const &)
	?CheckRequestL@CGetObjectPropDesc@@MAE?AW4TMTPResponseCode@@XZ @ 80 NONAME ; enum TMTPResponseCode CGetObjectPropDesc::CheckRequestL(void)
	?DoHandleRToIPhaseL@CRequestProcessor@@MAEHXZ @ 81 NONAME ; int CRequestProcessor::DoHandleRToIPhaseL(void)
	?ServiceMetaDataToWrapperL@CSetObjectPropValue@@IAE?AW4TMTPResponseCode@@GAAVMMTPType@@ABVCMTPObjectMetaData@@@Z @ 82 NONAME ; enum TMTPResponseCode CSetObjectPropValue::ServiceMetaDataToWrapperL(unsigned short, class MMTPType &, class CMTPObjectMetaData const &)
	?FormatFromFilename@MmMtpDpUtility@@SA?AW4TMTPFormatCode@@ABVTDesC16@@@Z @ 83 NONAME ; enum TMTPFormatCode MmMtpDpUtility::FormatFromFilename(class TDesC16 const &)
	?GetAllReferenceL@CMmMtpDpMetadataAccessWrapper@@QAEXABVCMTPObjectMetaData@@AAVCDesC16Array@@@Z @ 84 NONAME ; void CMmMtpDpMetadataAccessWrapper::GetAllReferenceL(class CMTPObjectMetaData const &, class CDesC16Array &)
	?CheckRequestL@CSetObjectPropValue@@MAE?AW4TMTPResponseCode@@XZ @ 85 NONAME ; enum TMTPResponseCode CSetObjectPropValue::CheckRequestL(void)
	??0CPropertySettingUtility@@IAE@XZ @ 86 NONAME ; CPropertySettingUtility::CPropertySettingUtility(void)
	?Match@CRequestProcessor@@MBEHABVTMTPTypeRequest@@AAVMMTPConnection@@@Z @ 87 NONAME ; int CRequestProcessor::Match(class TMTPTypeRequest const &, class MMTPConnection &) const
	??0CCopyObject@@IAE@AAVMMTPDataProviderFramework@@AAVMMTPConnection@@AAVMMmMtpDpConfig@@@Z @ 88 NONAME ; CCopyObject::CCopyObject(class MMTPDataProviderFramework &, class MMTPConnection &, class MMmMtpDpConfig &)
	?CheckRequestL@CRequestProcessor@@MAE?AW4TMTPResponseCode@@XZ @ 89 NONAME ; enum TMTPResponseCode CRequestProcessor::CheckRequestL(void)
	?SendResponseL@CRequestProcessor@@IAEXW4TMTPResponseCode@@HPAK@Z @ 90 NONAME ; void CRequestProcessor::SendResponseL(enum TMTPResponseCode, int, unsigned long *)
	?CancelActiveToIdleStatusChange@CMmMtpDpAccessSingleton@@SAXXZ @ 91 NONAME ; void CMmMtpDpAccessSingleton::CancelActiveToIdleStatusChange(void)
	?DoHandleCompletingPhaseL@CRequestProcessor@@MAEHXZ @ 92 NONAME ; int CRequestProcessor::DoHandleCompletingPhaseL(void)
	?DeleteDummyFile@CMmMtpDpMetadataAccessWrapper@@QAEXABVTDesC16@@@Z @ 93 NONAME ; void CMmMtpDpMetadataAccessWrapper::DeleteDummyFile(class TDesC16 const &)
	??1CGetObjectInfo@@UAE@XZ @ 94 NONAME ; CGetObjectInfo::~CGetObjectInfo(void)
	?ServiceL@CRequestUnknown@@MAEXXZ @ 95 NONAME ; void CRequestUnknown::ServiceL(void)
	?HasDataphase@CSetObjectPropList@@MBEHXZ @ 96 NONAME ; int CSetObjectPropList::HasDataphase(void) const
	?NewL@CGetObjectReferences@@SAPAVMMmRequestProcessor@@AAVMMTPDataProviderFramework@@AAVMMTPConnection@@AAVMMmMtpDpConfig@@@Z @ 97 NONAME ; class MMmRequestProcessor * CGetObjectReferences::NewL(class MMTPDataProviderFramework &, class MMTPConnection &, class MMmMtpDpConfig &)
	?DoCancel@CRenameObject@@MAEXXZ @ 98 NONAME ; void CRenameObject::DoCancel(void)
	??1CSetObjectReferences@@UAE@XZ @ 99 NONAME ; CSetObjectReferences::~CSetObjectReferences(void)
	?Match@CSendObject@@MBEHABVTMTPTypeRequest@@AAVMMTPConnection@@@Z @ 100 NONAME ; int CSendObject::Match(class TMTPTypeRequest const &, class MMTPConnection &) const
	?NewL@CSetObjectPropList@@SAPAVMMmRequestProcessor@@AAVMMTPDataProviderFramework@@AAVMMTPConnection@@AAVMMmMtpDpConfig@@@Z @ 101 NONAME ; class MMmRequestProcessor * CSetObjectPropList::NewL(class MMTPDataProviderFramework &, class MMTPConnection &, class MMmMtpDpConfig &)
	??1CCopyObject@@UAE@XZ @ 102 NONAME ; CCopyObject::~CCopyObject(void)
	?GetModifiedContentL@CMmMtpDpMetadataAccessWrapper@@QAEXABVTDesC16@@AAHAAVCDesC16Array@@@Z @ 103 NONAME ; void CMmMtpDpMetadataAccessWrapper::GetModifiedContentL(class TDesC16 const &, int &, class CDesC16Array &)
	?RunL@CGetObjectPropList@@MAEXXZ @ 104 NONAME ; void CGetObjectPropList::RunL(void)
	?NewRangeFormDescriptionL@CDescriptionUtility@@QAEPAVCMTPTypeObjectPropDesc@@GKKKH@Z @ 105 NONAME ; class CMTPTypeObjectPropDesc * CDescriptionUtility::NewRangeFormDescriptionL(unsigned short, unsigned long, unsigned long, unsigned long, int)
	?RunError@CRequestProcessor@@MAEHH@Z @ 106 NONAME ; int CRequestProcessor::RunError(int)
	?SessionId@CRequestProcessor@@MAEKXZ @ 107 NONAME ; unsigned long CRequestProcessor::SessionId(void)
	??0CDescriptionUtility@@IAE@XZ @ 108 NONAME ; CDescriptionUtility::CDescriptionUtility(void)
	?HandleEventL@CRequestProcessor@@MAEXABVTMTPTypeEvent@@@Z @ 109 NONAME ; void CRequestProcessor::HandleEventL(class TMTPTypeEvent const &)
	?NewL@CGetPartialObject@@SAPAVMMmRequestProcessor@@AAVMMTPDataProviderFramework@@AAVMMTPConnection@@AAVMMmMtpDpConfig@@@Z @ 110 NONAME ; class MMmRequestProcessor * CGetPartialObject::NewL(class MMTPDataProviderFramework &, class MMTPConnection &, class MMmMtpDpConfig &)
	?HasDataphase@CSetObjectReferences@@EBEHXZ @ 111 NONAME ; int CSetObjectReferences::HasDataphase(void) const
	?RunError@CGetObjectPropList@@MAEHH@Z @ 112 NONAME ; int CGetObjectPropList::RunError(int)
	?DoHandleResponsePhaseL@CSetObjectPropList@@MAEHXZ @ 113 NONAME ; int CSetObjectPropList::DoHandleResponsePhaseL(void)
	?NewL@CRenameObject@@SAPAV1@AAVMMTPDataProviderFramework@@AAVCMmMtpDpMetadataAccessWrapper@@@Z @ 114 NONAME ; class CRenameObject * CRenameObject::NewL(class MMTPDataProviderFramework &, class CMmMtpDpMetadataAccessWrapper &)
	?RenameObjectL@CMmMtpDpMetadataAccessWrapper@@QAEXABVCMTPObjectMetaData@@ABVTDesC16@@@Z @ 115 NONAME ; void CMmMtpDpMetadataAccessWrapper::RenameObjectL(class CMTPObjectMetaData const &, class TDesC16 const &)
	?GetObjectMetadataValueL@CMmMtpDpMetadataAccessWrapper@@QAEXGAAVMMTPType@@ABVCMTPObjectMetaData@@@Z @ 116 NONAME ; void CMmMtpDpMetadataAccessWrapper::GetObjectMetadataValueL(unsigned short, class MMTPType &, class CMTPObjectMetaData const &)
	?GetAllAbstractMediaL@CMmMtpDpMetadataAccessWrapper@@QAEXABVTDesC16@@AAVCDesC16Array@@W4TMPXGeneralCategory@@@Z @ 117 NONAME ; void CMmMtpDpMetadataAccessWrapper::GetAllAbstractMediaL(class TDesC16 const &, class CDesC16Array &, enum TMPXGeneralCategory)
	?AddDummyFileL@CMmMtpDpMetadataAccessWrapper@@QAEXABVTDesC16@@@Z @ 118 NONAME ; void CMmMtpDpMetadataAccessWrapper::AddDummyFileL(class TDesC16 const &)
	??1CGetObjectPropDesc@@UAE@XZ @ 119 NONAME ; CGetObjectPropDesc::~CGetObjectPropDesc(void)
	?ServiceL@CGetObjectPropDesc@@MAEXXZ @ 120 NONAME ; void CGetObjectPropDesc::ServiceL(void)
	?HasDataphase@CSetObjectPropValue@@MBEHXZ @ 121 NONAME ; int CSetObjectPropValue::HasDataphase(void) const
	?ServiceL@CCopyObject@@MAEXXZ @ 122 NONAME ; void CCopyObject::ServiceL(void)
	?CheckRequestL@CGetObjectPropValue@@MAE?AW4TMTPResponseCode@@XZ @ 123 NONAME ; enum TMTPResponseCode CGetObjectPropValue::CheckRequestL(void)
	?CloseSessionL@CMmMtpDpAccessSingleton@@SAXXZ @ 124 NONAME ; void CMmMtpDpAccessSingleton::CloseSessionL(void)
	?NewL@CGetFormatCapabilities@@SAPAVMMmRequestProcessor@@AAVMMTPDataProviderFramework@@AAVMMTPConnection@@AAVMMmMtpDpConfig@@@Z @ 125 NONAME ; class MMmRequestProcessor * CGetFormatCapabilities::NewL(class MMTPDataProviderFramework &, class MMTPConnection &, class MMmMtpDpConfig &)
	?ReceiveDataL@CRequestProcessor@@IAEXAAVMMTPType@@@Z @ 126 NONAME ; void CRequestProcessor::ReceiveDataL(class MMTPType &)
	??1CDescriptionUtility@@UAE@XZ @ 127 NONAME ; CDescriptionUtility::~CDescriptionUtility(void)
	?ConstructL@CMoveObject@@IAEXXZ @ 128 NONAME ; void CMoveObject::ConstructL(void)
	?NewL@CSendObject@@SAPAVMMmRequestProcessor@@AAVMMTPDataProviderFramework@@AAVMMTPConnection@@AAVMMmMtpDpConfig@@@Z @ 129 NONAME ; class MMmRequestProcessor * CSendObject::NewL(class MMTPDataProviderFramework &, class MMTPConnection &, class MMmMtpDpConfig &)
	?RunL@CSetObjectPropList@@MAEXXZ @ 130 NONAME ; void CSetObjectPropList::RunL(void)
	??1CGetObjectReferences@@UAE@XZ @ 131 NONAME ; CGetObjectReferences::~CGetObjectReferences(void)
	?HasDataphase@CSendObject@@MBEHXZ @ 132 NONAME ; int CSendObject::HasDataphase(void) const
	??1CSetObjectPropValue@@UAE@XZ @ 133 NONAME ; CSetObjectPropValue::~CSetObjectPropValue(void)
	?ConstructL@CRenameObject@@IAEXXZ @ 134 NONAME ; void CRenameObject::ConstructL(void)
	?DoHandleResponsePhaseL@CSendObject@@MAEHXZ @ 135 NONAME ; int CSendObject::DoHandleResponsePhaseL(void)
	?SendDataL@CRequestProcessor@@IAEXABVMMTPType@@@Z @ 136 NONAME ; void CRequestProcessor::SendDataL(class MMTPType const &)
	?SetReferenceL@CMmMtpDpMetadataAccessWrapper@@QAEXABVCMTPObjectMetaData@@AAVCDesC16Array@@@Z @ 137 NONAME ; void CMmMtpDpMetadataAccessWrapper::SetReferenceL(class CMTPObjectMetaData const &, class CDesC16Array &)
	?DoCancel@CGetObjectPropList@@MAEXXZ @ 138 NONAME ; void CGetObjectPropList::DoCancel(void)
	?ServiceL@CGetInterdependentPropDesc@@MAEXXZ @ 139 NONAME ; void CGetInterdependentPropDesc::ServiceL(void)
	?DoHandleRequestPhaseL@CRequestProcessor@@MAEHXZ @ 140 NONAME ; int CRequestProcessor::DoHandleRequestPhaseL(void)
	?ServiceL@CSetObjectPropValue@@MAEXXZ @ 141 NONAME ; void CSetObjectPropValue::ServiceL(void)
	?RunError@CRenameObject@@MAEHH@Z @ 142 NONAME ; int CRenameObject::RunError(int)
	??1CDeleteObject@@UAE@XZ @ 143 NONAME ; CDeleteObject::~CDeleteObject(void)
	?DoHandleResponsePhaseL@CGetPartialObject@@MAEHXZ @ 144 NONAME ; int CGetPartialObject::DoHandleResponsePhaseL(void)
	??0CSetObjectPropValue@@IAE@AAVMMTPDataProviderFramework@@AAVMMTPConnection@@AAVMMmMtpDpConfig@@@Z @ 145 NONAME ; CSetObjectPropValue::CSetObjectPropValue(class MMTPDataProviderFramework &, class MMTPConnection &, class MMmMtpDpConfig &)
	??1CGetObjectPropList@@UAE@XZ @ 146 NONAME ; CGetObjectPropList::~CGetObjectPropList(void)
	?CheckRequestL@CGetFormatCapabilities@@MAE?AW4TMTPResponseCode@@XZ @ 147 NONAME ; enum TMTPResponseCode CGetFormatCapabilities::CheckRequestL(void)
	?ServiceL@CGetObjectPropList@@MAEXXZ @ 148 NONAME ; void CGetObjectPropList::ServiceL(void)
	??0CRenameObject@@IAE@AAVMMTPDataProviderFramework@@AAVCMmMtpDpMetadataAccessWrapper@@@Z @ 149 NONAME ; CRenameObject::CRenameObject(class MMTPDataProviderFramework &, class CMmMtpDpMetadataAccessWrapper &)

