EXPORTS
	_ZN17CCbsMessageClient4NewLEv @ 1 NONAME
	_ZN4RCbs10GetMessageEtiR13TCbsDbMessage @ 2 NONAME
	_ZN4RCbs11DeleteTopicEt @ 3 NONAME
	_ZN4RCbs11LockMessageERKm @ 4 NONAME
	_ZN4RCbs11ReadMessageERKm @ 5 NONAME
	_ZN4RCbs11SaveMessageERKm @ 6 NONAME
	_ZN4RCbs12GetLanguagesER15TCbsDbLanguages @ 7 NONAME
	_ZN4RCbs12SetLanguagesERK15TCbsDbLanguages @ 8 NONAME
	_ZN4RCbs13DeleteMessageERKm @ 9 NONAME
	_ZN4RCbs13GetTopicCountERi @ 10 NONAME
	_ZN4RCbs15DeleteAllTopicsEv @ 11 NONAME
	_ZN4RCbs15GetMessageCountEtRi @ 12 NONAME
	_ZN4RCbs17FindTopicByNumberEtR11TCbsDbTopic @ 13 NONAME
	_ZN4RCbs17GetNewTopicsCountERi @ 14 NONAME
	_ZN4RCbs18GetMessageContentsERKmR6TDes16 @ 15 NONAME
	_ZN4RCbs18GetReceptionStatusERi @ 16 NONAME
	_ZN4RCbs18SetReceptionStatusEi @ 17 NONAME
	_ZN4RCbs19FindMessageByHandleERKmR13TCbsDbMessage @ 18 NONAME
	_ZN4RCbs19NextCollectionTopicER19TCbsDbTopicIdentity @ 19 NONAME
	_ZN4RCbs20GetLatestTopicNumberERt @ 20 NONAME
	_ZN4RCbs21GetUnreadMessageCountERi @ 21 NONAME
	_ZN4RCbs21NotifySettingsChangedER14TRequestStatusR17TCbsSettingsEvent @ 22 NONAME
	_ZN4RCbs22HasNextCollectionTopicEv @ 23 NONAME
	_ZN4RCbs22NotifyOnTopicListEventER14TRequestStatusiR18TCbsTopicListEventRt @ 24 NONAME
	_ZN4RCbs23GetMessageIndexByHandleERKmRi @ 25 NONAME
	_ZN4RCbs23GetTopicDetectionStatusERi @ 26 NONAME
	_ZN4RCbs23SetTopicDetectionStatusEi @ 27 NONAME
	_ZN4RCbs23StartCollectionBrowsingEv @ 28 NONAME
	_ZN4RCbs24ChangeTopicHotmarkStatusEti @ 29 NONAME
	_ZN4RCbs24ChangeTopicNameAndNumberEttRK4TBufILi80EE @ 30 NONAME
	_ZN4RCbs25GetHotmarkedMessageHandleERm @ 31 NONAME
	_ZN4RCbs25GetNextAndPrevTopicNumberERKtRtS2_Ri @ 32 NONAME
	_ZN4RCbs27GetNextAndPrevMessageHandleERKmRmS2_Ri @ 33 NONAME
	_ZN4RCbs27NotifySettingsChangedCancelEv @ 34 NONAME
	_ZN4RCbs28NotifyOnTopicListEventCancelEv @ 35 NONAME
	_ZN4RCbs29ChangeTopicSubscriptionStatusEti @ 36 NONAME
	_ZN4RCbs31NumberOfUnreadHotmarkedMessagesEv @ 37 NONAME
	_ZN4RCbs5CloseEv @ 38 NONAME
	_ZN4RCbs7ConnectEv @ 39 NONAME
	_ZN4RCbs8AddTopicER11TCbsDbTopic @ 40 NONAME
	_ZN4RCbs8GetTopicEiR11TCbsDbTopic @ 41 NONAME
	_ZN4RCbsC1Ev @ 42 NONAME
	_ZN4RCbsC2Ev @ 43 NONAME
	_ZN4RCbsD1Ev @ 44 NONAME
	_ZN4RCbsD2Ev @ 45 NONAME
	_ZNK4RCbs7VersionEv @ 46 NONAME
	_ZNK4RCbs8ShutdownEv @ 47 NONAME
	_ZNK4RCbs9ConnectedEv @ 48 NONAME

