EXPORTS
	_ZTI10CCbsObject @ 1 NONAME ; #<TI>#
	_ZTI10CCbsServer @ 2 NONAME ; #<TI>#
	_ZTI11CCbsMessage @ 3 NONAME ; #<TI>#
	_ZTI11CCbsRecEtel @ 4 NONAME ; #<TI>#
	_ZTI11CCbsSession @ 5 NONAME ; #<TI>#
	_ZTI12CCbsSettings @ 6 NONAME ; #<TI>#
	_ZTI13CCbsScheduler @ 7 NONAME ; #<TI>#
	_ZTI13CCbsTopicList @ 8 NONAME ; #<TI>#
	_ZTI14CCbsMcnSession @ 9 NONAME ; #<TI>#
	_ZTI14CCbsRecDecoder @ 10 NONAME ; #<TI>#
	_ZTI14CCbsRecMessage @ 11 NONAME ; #<TI>#
	_ZTI14CCbsSatRefresh @ 12 NONAME ; #<TI>#
	_ZTI16CCbsRecCollector @ 13 NONAME ; #<TI>#
	_ZTI17CCbsBackupMonitor @ 14 NONAME ; #<TI>#
	_ZTI17CCbsDbImpSettings @ 15 NONAME ; #<TI>#
	_ZTI17CCbsEtelMessaging @ 16 NONAME ; #<TI>#
	_ZTI17CCbsTopicMessages @ 17 NONAME ; #<TI>#
	_ZTI18CCbsDbImpTopicList @ 18 NONAME ; #<TI>#
	_ZTI18CCbsMessageFactory @ 19 NONAME ; #<TI>#
	_ZTI18CCbsRecEtelMonitor @ 20 NONAME ; #<TI>#
	_ZTI18CCbsReceiverHelper @ 21 NONAME ; #<TI>#
	_ZTI19CCbsLivecastHandler @ 22 NONAME ; #<TI>#
	_ZTI19CCbsRecWcdmaMessage @ 23 NONAME ; #<TI>#
	_ZTI19CCbsShutdownMonitor @ 24 NONAME ; #<TI>#
	_ZTI19CCbsTopicCollection @ 25 NONAME ; #<TI>#
	_ZTI20CCbsDiskSpaceMonitor @ 26 NONAME ; #<TI>#
	_ZTI22CCbsDbImpTopicMessages @ 27 NONAME ; #<TI>#
	_ZTI22CCbsRecNetworkListener @ 28 NONAME ; #<TI>#
	_ZTI23CCbsMessageCleanupTimer @ 29 NONAME ; #<TI>#
	_ZTI24CCbsDbImpTopicCollection @ 30 NONAME ; #<TI>#
	_ZTI27CCbsSetFilterSettingHandler @ 31 NONAME ; #<TI>#
	_ZTI9CCbsDbImp @ 32 NONAME ; #<TI>#
	_ZTV10CCbsObject @ 33 NONAME ; #<VT>#
	_ZTV10CCbsServer @ 34 NONAME ; #<VT>#
	_ZTV11CCbsMessage @ 35 NONAME ; #<VT>#
	_ZTV11CCbsRecEtel @ 36 NONAME ; #<VT>#
	_ZTV11CCbsSession @ 37 NONAME ; #<VT>#
	_ZTV12CCbsSettings @ 38 NONAME ; #<VT>#
	_ZTV13CCbsScheduler @ 39 NONAME ; #<VT>#
	_ZTV13CCbsTopicList @ 40 NONAME ; #<VT>#
	_ZTV14CCbsMcnSession @ 41 NONAME ; #<VT>#
	_ZTV14CCbsRecDecoder @ 42 NONAME ; #<VT>#
	_ZTV14CCbsRecMessage @ 43 NONAME ; #<VT>#
	_ZTV14CCbsSatRefresh @ 44 NONAME ; #<VT>#
	_ZTV16CCbsRecCollector @ 45 NONAME ; #<VT>#
	_ZTV17CCbsBackupMonitor @ 46 NONAME ; #<VT>#
	_ZTV17CCbsDbImpSettings @ 47 NONAME ; #<VT>#
	_ZTV17CCbsEtelMessaging @ 48 NONAME ; #<VT>#
	_ZTV17CCbsTopicMessages @ 49 NONAME ; #<VT>#
	_ZTV18CCbsDbImpTopicList @ 50 NONAME ; #<VT>#
	_ZTV18CCbsMessageFactory @ 51 NONAME ; #<VT>#
	_ZTV18CCbsRecEtelMonitor @ 52 NONAME ; #<VT>#
	_ZTV18CCbsReceiverHelper @ 53 NONAME ; #<VT>#
	_ZTV19CCbsLivecastHandler @ 54 NONAME ; #<VT>#
	_ZTV19CCbsRecWcdmaMessage @ 55 NONAME ; #<VT>#
	_ZTV19CCbsShutdownMonitor @ 56 NONAME ; #<VT>#
	_ZTV19CCbsTopicCollection @ 57 NONAME ; #<VT>#
	_ZTV20CCbsDiskSpaceMonitor @ 58 NONAME ; #<VT>#
	_ZTV22CCbsDbImpTopicMessages @ 59 NONAME ; #<VT>#
	_ZTV22CCbsRecNetworkListener @ 60 NONAME ; #<VT>#
	_ZTV23CCbsMessageCleanupTimer @ 61 NONAME ; #<VT>#
	_ZTV24CCbsDbImpTopicCollection @ 62 NONAME ; #<VT>#
	_ZTV27CCbsSetFilterSettingHandler @ 63 NONAME ; #<VT>#
	_ZTV9CCbsDbImp @ 64 NONAME ; #<VT>#

