EXPORTS
	??1CMediaRecognizer@@UAE@XZ @ 1 NONAME ; CMediaRecognizer::~CMediaRecognizer(void)
	??1CStreamingLinkModel@@UAE@XZ @ 2 NONAME ; CStreamingLinkModel::~CStreamingLinkModel(void)
	?CreateNewLinkFileL@CStreamingLinkModel@@QAEHABVTDesC16@@PAVMDesC16Array@@H@Z @ 3 NONAME ; int CStreamingLinkModel::CreateNewLinkFileL(class TDesC16 const &, class MDesC16Array *, int)
	?FreeFilehandle@CMediaRecognizer@@QAEXXZ @ 4 NONAME ; void CMediaRecognizer::FreeFilehandle(void)
	?FreeFilehandle@CStreamingLinkModel@@QAEXXZ @ 5 NONAME ; void CStreamingLinkModel::FreeFilehandle(void)
	?GetNextLinkL@CStreamingLinkModel@@QAEHAAVTDes16@@AAHH@Z @ 6 NONAME ; int CStreamingLinkModel::GetNextLinkL(class TDes16 &, int &, int)
	?IdentifyMediaTypeL@CMediaRecognizer@@QAE?AW4TMediaType@1@ABVTDesC16@@AAVRFile@@H@Z @ 7 NONAME ; enum CMediaRecognizer::TMediaType CMediaRecognizer::IdentifyMediaTypeL(class TDesC16 const &, class RFile &, int)
	?IdentifyMediaTypeL@CMediaRecognizer@@QAE?AW4TMediaType@1@ABVTDesC16@@H@Z @ 8 NONAME ; enum CMediaRecognizer::TMediaType CMediaRecognizer::IdentifyMediaTypeL(class TDesC16 const &, int)
	?IsValidStreamingPrefix@CMediaRecognizer@@QAEHABVTDesC16@@@Z @ 9 NONAME ; int CMediaRecognizer::IsValidStreamingPrefix(class TDesC16 const &)
	?IsValidUrlPrefix@CMediaRecognizer@@QAEHABVTDesC16@@@Z @ 10 NONAME ; int CMediaRecognizer::IsValidUrlPrefix(class TDesC16 const &)
	?IsValidUrlPrefix@CMediaRecognizer@@QAEHABVTDesC8@@@Z @ 11 NONAME ; int CMediaRecognizer::IsValidUrlPrefix(class TDesC8 const &)
	?MaxLinkLength@CStreamingLinkModel@@QAEHXZ @ 12 NONAME ; int CStreamingLinkModel::MaxLinkLength(void)
	?MimeTypeL@CMediaRecognizer@@QAE?AV?$TBuf@$0BAA@@@AAVRFile@@@Z @ 13 NONAME ; class TBuf<256> CMediaRecognizer::MimeTypeL(class RFile &)
	?MimeTypeL@CMediaRecognizer@@QAE?AV?$TBuf@$0BAA@@@ABVTDesC16@@@Z @ 14 NONAME ; class TBuf<256> CMediaRecognizer::MimeTypeL(class TDesC16 const &)
	?MultiLinksCount@CStreamingLinkModel@@QAEHXZ @ 15 NONAME ; int CStreamingLinkModel::MultiLinksCount(void)
	?NewL@CMediaRecognizer@@SAPAV1@XZ @ 16 NONAME ; class CMediaRecognizer * CMediaRecognizer::NewL(void)
	?NewL@CStreamingLinkModel@@SAPAV1@XZ @ 17 NONAME ; class CStreamingLinkModel * CStreamingLinkModel::NewL(void)
	?OpenLinkFileL@CStreamingLinkModel@@QAEHAAVRFile@@H@Z @ 18 NONAME ; int CStreamingLinkModel::OpenLinkFileL(class RFile &, int)
	?OpenLinkFileL@CStreamingLinkModel@@QAEHABVTDesC16@@H@Z @ 19 NONAME ; int CStreamingLinkModel::OpenLinkFileL(class TDesC16 const &, int)
	?ResetLinkCount@CStreamingLinkModel@@QAEXXZ @ 20 NONAME ; void CStreamingLinkModel::ResetLinkCount(void)
	?OpenAsxFileL@CStreamingLinkModel@@QAEHAAVRFile@@H@Z @ 21 NONAME ; int CStreamingLinkModel::OpenAsxFileL(class RFile &, int)
	?OpenAsxFileL@CStreamingLinkModel@@QAEHABVTDesC16@@H@Z @ 22 NONAME ; int CStreamingLinkModel::OpenAsxFileL(class TDesC16 const &, int)
	?AreAllLinksLocal@CStreamingLinkModel@@QAEHXZ @ 23 NONAME ; int CStreamingLinkModel::AreAllLinksLocal(void)
	??1CDevSoundIf@@UAE@XZ @ 24 NONAME ; CDevSoundIf::~CDevSoundIf(void)
	?GetNumberOfVolumeSteps@CDevSoundIf@@QAEHXZ @ 25 NONAME ; int CDevSoundIf::GetNumberOfVolumeSteps(void)
	?NewL@CDevSoundIf@@SAPAV1@XZ @ 26 NONAME ; class CDevSoundIf * CDevSoundIf::NewL(void)
        ?IsSeekable@CStreamingLinkModel@@QAEHXZ @ 27 NONAME ; int CStreamingLinkModel::IsSeekable(void)
	?IdentifyMediaTypeL@CMediaRecognizer@@QAE?AW4TMediaType@1@ABVTDesC16@@AAVRFile64@@H@Z @ 28 NONAME ; enum CMediaRecognizer::TMediaType CMediaRecognizer::IdentifyMediaTypeL(class TDesC16 const &, class RFile64 &, int)
	?MimeTypeL@CMediaRecognizer@@QAE?AV?$TBuf@$0BAA@@@AAVRFile64@@@Z @ 29 NONAME ; class TBuf<256> CMediaRecognizer::MimeTypeL(class RFile64 &)

