EXPORTS
	??1CHarvesterBlacklist@@UAE@XZ @ 1 NONAME ; CHarvesterBlacklist::~CHarvesterBlacklist(void)
	??1CHarvesterCenRepUtil@@UAE@XZ @ 2 NONAME ; CHarvesterCenRepUtil::~CHarvesterCenRepUtil(void)
	??1CHarvesterExifUtil@@UAE@XZ @ 3 NONAME ; CHarvesterExifUtil::~CHarvesterExifUtil(void)
	?AddFile@CHarvesterBlacklist@@QAEHABVTDesC16@@KVTTime@@@Z @ 4 NONAME ; int CHarvesterBlacklist::AddFile(class TDesC16 const &, unsigned long, class TTime)
	?AddIgnorePathsToFspL@CHarvesterCenRepUtil@@QAEXABVTDesC16@@0@Z @ 5 NONAME ; void CHarvesterCenRepUtil::AddIgnorePathsToFspL(class TDesC16 const &, class TDesC16 const &)
	?AddIgnorePathsToFspL@CHarvesterCenRepUtil@@QAEXABVTDesC16@@@Z @ 6 NONAME ; void CHarvesterCenRepUtil::AddIgnorePathsToFspL(class TDesC16 const &)
	?CloseDatabase@CHarvesterBlacklist@@QAEXXZ @ 7 NONAME ; void CHarvesterBlacklist::CloseDatabase(void)
	?ComposeExifDataL@CHarvesterExifUtil@@QAEHAAVCMdEObject@@VTPtr8@@AAPAVHBufC8@@@Z @ 8 NONAME ; int CHarvesterExifUtil::ComposeExifDataL(class CMdEObject &, class TPtr8, class HBufC8 * &)
	?ComposeLocationL@CHarvesterExifUtil@@QAEXPAVCMdEObject@@VTPtr8@@AAPAVHBufC8@@@Z @ 9 NONAME ; void CHarvesterExifUtil::ComposeLocationL(class CMdEObject *, class TPtr8, class HBufC8 * &)
	?ConvertExifDateTimeToSymbianTimeL@CHarvesterExifUtil@@SA?AVTTime@@ABVTDesC8@@@Z @ 10 NONAME ; class TTime CHarvesterExifUtil::ConvertExifDateTimeToSymbianTimeL(class TDesC8 const &)
	?CurrentState@CHarvesterEventManager@@QAE?AW4HarvesterEventState@@W4HarvesterEventObserverType@@@Z @ 11 NONAME ; enum HarvesterEventState CHarvesterEventManager::CurrentState(enum HarvesterEventObserverType)
	?DecreaseItemCountL@CHarvesterEventManager@@QAEHW4HarvesterEventObserverType@@I@Z @ 12 NONAME ; int CHarvesterEventManager::DecreaseItemCountL(enum HarvesterEventObserverType, unsigned int)
	?Delete@CPropertyWatcher@@QAEXXZ @ 13 NONAME ; void CPropertyWatcher::Delete(void)
	?FspEngine@CHarvesterCenRepUtil@@QAEAAVRMdsFSPEngine@@XZ @ 14 NONAME ; class RMdsFSPEngine & CHarvesterCenRepUtil::FspEngine(void)
	?GetIgnorePathL@CHarvesterCenRepUtil@@SAXAAV?$RPointerArray@VHBufC16@@@@@Z @ 15 NONAME ; void CHarvesterCenRepUtil::GetIgnorePathL(class RPointerArray<class HBufC16> &)
	?GetIgnoredPartialRestorePathsL@CHarvesterCenRepUtil@@SAXAAV?$RPointerArray@VHBufC16@@@@@Z @ 16 NONAME ; void CHarvesterCenRepUtil::GetIgnoredPartialRestorePathsL(class RPointerArray<class HBufC16> &)
	?GetIgnoredScanPathsL@CHarvesterCenRepUtil@@SAXAAV?$RPointerArray@VHBufC16@@@@@Z @ 17 NONAME ; void CHarvesterCenRepUtil::GetIgnoredScanPathsL(class RPointerArray<class HBufC16> &)
	?GetInstanceL@CHarvesterEventManager@@SAPAV1@XZ @ 18 NONAME ; class CHarvesterEventManager * CHarvesterEventManager::GetInstanceL(void)
	?GetInstanceL@CPropertyWatcher@@SAPAV1@XZ @ 19 NONAME ; class CPropertyWatcher * CPropertyWatcher::GetInstanceL(void)
	?GetLastClientId@CHarvesterEventManager@@QAEIXZ @ 20 NONAME ; unsigned int CHarvesterEventManager::GetLastClientId(void)
	?GetMimeType@CHarvesterPluginFactory@@QAEXABVTDesC16@@AAVTDes16@@@Z @ 21 NONAME ; void CHarvesterPluginFactory::GetMimeType(class TDesC16 const &, class TDes16 &)
	?GetObjectDefL@CHarvesterPluginFactory@@QAEXAAVCHarvesterData@@AAVTDes16@@@Z @ 22 NONAME ; void CHarvesterPluginFactory::GetObjectDefL(class CHarvesterData &, class TDes16 &)
	?GetPartialRestorePathsL@CHarvesterCenRepUtil@@SAXAAV?$RPointerArray@UTScanItem@@@@@Z @ 23 NONAME ; void CHarvesterCenRepUtil::GetPartialRestorePathsL(class RPointerArray<struct TScanItem> &)
	?GetPluginInfos@CHarvesterPluginFactory@@QAEAAV?$RPointerArray@VCHarvesterPluginInfo@@@@XZ @ 24 NONAME ; class RPointerArray<class CHarvesterPluginInfo> & CHarvesterPluginFactory::GetPluginInfos(void)
	?GetScanItemsL@CHarvesterCenRepUtil@@SAXAAV?$RPointerArray@UTScanItem@@@@@Z @ 25 NONAME ; void CHarvesterCenRepUtil::GetScanItemsL(class RPointerArray<struct TScanItem> &)
	?HandleObjectPropertyL@CMdeObjectWrapper@@QAEXAAVCMdEObject@@ABVTDesC16@@PAXH@Z @ 26 NONAME ; void CMdeObjectWrapper::HandleObjectPropertyL(class CMdEObject &, class TDesC16 const &, void *, int)
	?HarvestL@CHarvesterPluginFactory@@QAEHPAVCHarvesterData@@@Z @ 27 NONAME ; int CHarvesterPluginFactory::HarvestL(class CHarvesterData *)
	?IncreaseItemCount@CHarvesterEventManager@@QAEXW4HarvesterEventObserverType@@I@Z @ 28 NONAME ; void CHarvesterEventManager::IncreaseItemCount(enum HarvesterEventObserverType, unsigned int)
	?IsBlacklisted@CHarvesterBlacklist@@QAEHABVTDesC16@@KVTTime@@@Z @ 29 NONAME ; int CHarvesterBlacklist::IsBlacklisted(class TDesC16 const &, unsigned long, class TTime)
	?IsContainerFileL@CHarvesterPluginFactory@@QAEHABVTDesC16@@@Z @ 30 NONAME ; int CHarvesterPluginFactory::IsContainerFileL(class TDesC16 const &)
	?IsSupportedFileExtension@CHarvesterPluginFactory@@QAEHABVTDesC16@@@Z @ 31 NONAME ; int CHarvesterPluginFactory::IsSupportedFileExtension(class TDesC16 const &)
	?IsValidExifData@CHarvesterExifUtil@@SAHVTPtr8@@@Z @ 32 NONAME ; int CHarvesterExifUtil::IsValidExifData(class TPtr8)
	?ItemCount@CHarvesterEventManager@@QAEIW4HarvesterEventObserverType@@@Z @ 33 NONAME ; unsigned int CHarvesterEventManager::ItemCount(enum HarvesterEventObserverType)
	?ListenKeyAndStatusChangesL@CPropertyWatcher@@QAEXVTUid@@IPBVMKeyAndStatusObserver@@@Z @ 34 NONAME ; void CPropertyWatcher::ListenKeyAndStatusChangesL(class TUid, unsigned int, class MKeyAndStatusObserver const *)
	?ListenKeyChangesL@CPropertyWatcher@@QAEXVTUid@@IPBVMKeyObserver@@@Z @ 35 NONAME ; void CPropertyWatcher::ListenKeyChangesL(class TUid, unsigned int, class MKeyObserver const *)
	?NewL@CHarvesterBlacklist@@SAPAV1@XZ @ 36 NONAME ; class CHarvesterBlacklist * CHarvesterBlacklist::NewL(void)
	?NewL@CHarvesterCenRepUtil@@SAPAV1@XZ @ 37 NONAME ; class CHarvesterCenRepUtil * CHarvesterCenRepUtil::NewL(void)
	?NewL@CHarvesterExifUtil@@SAPAV1@XZ @ 38 NONAME ; class CHarvesterExifUtil * CHarvesterExifUtil::NewL(void)
	?NewL@CHarvesterPluginFactory@@SAPAV1@XZ @ 39 NONAME ; class CHarvesterPluginFactory * CHarvesterPluginFactory::NewL(void)
	?NewL@CMdeObjectWrapper@@SAPAV1@XZ @ 40 NONAME ; class CMdeObjectWrapper * CMdeObjectWrapper::NewL(void)
	?NewLC@CHarvesterCenRepUtil@@SAPAV1@XZ @ 41 NONAME ; class CHarvesterCenRepUtil * CHarvesterCenRepUtil::NewLC(void)
	?NewLC@CHarvesterExifUtil@@SAPAV1@XZ @ 42 NONAME ; class CHarvesterExifUtil * CHarvesterExifUtil::NewLC(void)
	?NewLC@CMdeObjectWrapper@@SAPAV1@XZ @ 43 NONAME ; class CMdeObjectWrapper * CMdeObjectWrapper::NewLC(void)
	?OpenDatabase@CHarvesterBlacklist@@QAEXXZ @ 44 NONAME ; void CHarvesterBlacklist::OpenDatabase(void)
	?ReadExifDataL@CHarvesterExifUtil@@SAHAAVCHarvestData@@AAVCFileData@@@Z @ 45 NONAME ; int CHarvesterExifUtil::ReadExifDataL(class CHarvestData &, class CFileData &)
	?RegisterHEClientInfo@CHarvesterEventManager@@QAEHABVRMessage2@@@Z @ 46 NONAME ABSENT ; int CHarvesterEventManager::RegisterHEClientInfo(class RMessage2 const &)
	?ReleaseInstance@CHarvesterEventManager@@QAEXXZ @ 47 NONAME ; void CHarvesterEventManager::ReleaseInstance(void)
	?RemoveFile@CHarvesterBlacklist@@QAEHABVTDesC16@@K@Z @ 48 NONAME ; int CHarvesterBlacklist::RemoveFile(class TDesC16 const &, unsigned long)
	?RemoveIgnorePathsFromFspL@CHarvesterCenRepUtil@@QAEXABVTDesC16@@@Z @ 49 NONAME ; void CHarvesterCenRepUtil::RemoveIgnorePathsFromFspL(class TDesC16 const &)
	?SendEventL@CHarvesterEventManager@@QAEHW4HarvesterEventObserverType@@W4HarvesterEventState@@I@Z @ 50 NONAME ; int CHarvesterEventManager::SendEventL(enum HarvesterEventObserverType, enum HarvesterEventState, unsigned int)
	?SetBlacklist@CHarvesterPluginFactory@@QAEXAAVCHarvesterBlacklist@@@Z @ 51 NONAME ; void CHarvesterPluginFactory::SetBlacklist(class CHarvesterBlacklist &)
	?SetSession@CHarvesterExifUtil@@QAEXPAVCMdESession@@@Z @ 52 NONAME ; void CHarvesterExifUtil::SetSession(class CMdESession *)
	?StopListeningKeyAndStatusChanges@CPropertyWatcher@@QAEXVTUid@@IPAVMKeyAndStatusObserver@@@Z @ 53 NONAME ; void CPropertyWatcher::StopListeningKeyAndStatusChanges(class TUid, unsigned int, class MKeyAndStatusObserver *)
	?StopListeningKeyChanges@CPropertyWatcher@@QAEXVTUid@@IPBVMKeyObserver@@@Z @ 54 NONAME ; void CPropertyWatcher::StopListeningKeyChanges(class TUid, unsigned int, class MKeyObserver const *)
	?UnregisterHEClientInfo@CHarvesterEventManager@@QAEHH@Z @ 55 NONAME ABSENT ; int CHarvesterEventManager::UnregisterHEClientInfo(int)
	?GetDriveLetter@CHarvesterMediaIdUtil@@QAEHKAAVTChar@@@Z @ 56 NONAME ; int CHarvesterMediaIdUtil::GetDriveLetter(unsigned long, class TChar &)
	?GetMediaId@CHarvesterMediaIdUtil@@QAEHABVTDesC16@@AAK@Z @ 57 NONAME ; int CHarvesterMediaIdUtil::GetMediaId(class TDesC16 const &, unsigned long &)
	?RemoveMediaId@CHarvesterMediaIdUtil@@QAEXK@Z @ 58 NONAME ; void CHarvesterMediaIdUtil::RemoveMediaId(unsigned long)
	?GetInstanceL@RMediaIdUtil@@SAAAVCHarvesterMediaIdUtil@@XZ @ 59 NONAME ; class CHarvesterMediaIdUtil & RMediaIdUtil::GetInstanceL(void)
	?ReleaseInstance@RMediaIdUtil@@SAXXZ @ 60 NONAME ; void RMediaIdUtil::ReleaseInstance(void)
	?IsRomScanEnabledL@CHarvesterCenRepUtil@@SAXAAH@Z @ 61 NONAME ; void CHarvesterCenRepUtil::IsRomScanEnabledL(int &)
	?IsThumbnailDaemonEnabledL@CHarvesterCenRepUtil@@SAXAAH@Z @ 62 NONAME ; void CHarvesterCenRepUtil::IsThumbnailDaemonEnabledL(int &)
	?RegisterEventObserverL@CHarvesterEventManager@@QAEXABVRMessage2@@@Z @ 63 NONAME ; void CHarvesterEventManager::RegisterEventObserverL(class RMessage2 const &)
	?UnregisterEventObserver@CHarvesterEventManager@@QAEHABVRMessage2@@@Z @ 64 NONAME ; int CHarvesterEventManager::UnregisterEventObserver(class RMessage2 const &)
	?HandleObjectPropertyL@CMdeObjectWrapper@@SAXAAVCMdEObject@@AAVCMdEPropertyDef@@PAXH@Z @ 65 NONAME ; void CMdeObjectWrapper::HandleObjectPropertyL(class CMdEObject &, class CMdEPropertyDef &, void *, int)
	?SendHarvestingStatusEventL@CHarvesterPluginFactory@@QAEXH@Z @ 66 NONAME ; void CHarvesterPluginFactory::SendHarvestingStatusEventL(int)
	?PauseHarvester@CHarvesterPluginFactory@@QAEXH@Z @ 67 NONAME ; void CHarvesterPluginFactory::PauseHarvester(int)
	?GetObjectDefL@CHarvesterPluginFactory@@QAEXPAVCHarvesterData@@AAVTDes16@@@Z @ 68 NONAME ; void CHarvesterPluginFactory::GetObjectDefL(class CHarvesterData *, class TDes16 &)
	?GetAlwaysScanOnBootPathsL@CHarvesterCenRepUtil@@SAXAAV?$RPointerArray@UTScanItem@@@@@Z @ 69 NONAME ; void CHarvesterCenRepUtil::GetAlwaysScanOnBootPathsL(class RPointerArray<struct TScanItem> &)

