EXPORTS
	?AddLocation@CHarvesterData@@QAEHXZ @ 1 NONAME ; int CHarvesterData::AddLocation(void)
	?ClientData@CHarvesterData@@QAEPAVCBase@@XZ @ 2 NONAME ; class CBase * CHarvesterData::ClientData(void)
	?ClientId@CHarvesterData@@QAE?AVTUid@@XZ @ 3 NONAME ; class TUid CHarvesterData::ClientId(void)
	?ErrorCode@CHarvesterData@@QAEHXZ @ 4 NONAME ; int CHarvesterData::ErrorCode(void)
	?EventType@CHarvesterData@@QAE?AW4THarvesterEventType@@XZ @ 5 NONAME ; enum THarvesterEventType CHarvesterData::EventType(void)
	?FileSize@CPlaceholderData@@QAEKXZ @ 6 NONAME ; unsigned long CPlaceholderData::FileSize(void)
	?HarvesterPluginInfo@CHarvesterData@@QAEPAVCHarvesterPluginInfo@@XZ @ 7 NONAME ; class CHarvesterPluginInfo * CHarvesterData::HarvesterPluginInfo(void)
	?LocationData@CHarvesterData@@QAEPAUTLocationData@@XZ @ 8 NONAME ; struct TLocationData * CHarvesterData::LocationData(void)
	?MdeObject@CHarvesterData@@QAEAAVCMdEObject@@XZ @ 9 NONAME ; class CMdEObject & CHarvesterData::MdeObject(void)
	?MediaId@CPlaceholderData@@QAEIXZ @ 10 NONAME ; unsigned int CPlaceholderData::MediaId(void)
	?Modified@CPlaceholderData@@QAE?AVTTime@@XZ @ 11 NONAME ; class TTime CPlaceholderData::Modified(void)
	?New@CHarvestClientData@@SAPAV1@XZ @ 12 NONAME ; class CHarvestClientData * CHarvestClientData::New(void)
	?NewL@CHarvestClientData@@SAPAV1@XZ @ 13 NONAME ; class CHarvestClientData * CHarvestClientData::NewL(void)
	?NewL@CHarvesterData@@SAPAV1@PBVHBufC16@@@Z @ 14 NONAME ; class CHarvesterData * CHarvesterData::NewL(class HBufC16 const *)
	?NewL@CPlaceholderData@@SAPAV1@XZ @ 15 NONAME ; class CPlaceholderData * CPlaceholderData::NewL(void)
	?NewLC@CHarvesterData@@SAPAV1@PBVHBufC16@@@Z @ 16 NONAME ; class CHarvesterData * CHarvesterData::NewLC(class HBufC16 const *)
	?ObjectType@CHarvesterData@@QAE?AW4THarvesterObjectType@@XZ @ 17 NONAME ; enum THarvesterObjectType CHarvesterData::ObjectType(void)
	?Origin@CHarvesterData@@QAE?AW4TOrigin@Object@MdeConstants@@XZ @ 18 NONAME ; enum MdeConstants::Object::TOrigin CHarvesterData::Origin(void)
	?PluginObserver@CHarvesterData@@QAEPAVMHarvesterPluginObserver@@XZ @ 19 NONAME ; class MHarvesterPluginObserver * CHarvesterData::PluginObserver(void)
	?PresentState@CPlaceholderData@@QAEHXZ @ 20 NONAME ; int CPlaceholderData::PresentState(void)
	?SetAddLocation@CHarvesterData@@QAEXH@Z @ 21 NONAME ; void CHarvesterData::SetAddLocation(int)
	?SetAlbumIds@CHarvestClientData@@QAEXABV?$RArray@K@@@Z @ 22 NONAME ; void CHarvestClientData::SetAlbumIds(class RArray<unsigned long> const &)
	?SetClientData@CHarvesterData@@QAEXPAVCBase@@@Z @ 23 NONAME ; void CHarvesterData::SetClientData(class CBase *)
	?SetClientId@CHarvesterData@@QAEXVTUid@@@Z @ 24 NONAME ; void CHarvesterData::SetClientId(class TUid)
	?SetErrorCode@CHarvesterData@@QAEXH@Z @ 25 NONAME ; void CHarvesterData::SetErrorCode(int)
	?SetEventType@CHarvesterData@@QAEXW4THarvesterEventType@@@Z @ 26 NONAME ; void CHarvesterData::SetEventType(enum THarvesterEventType)
	?SetFileSize@CPlaceholderData@@QAEXK@Z @ 27 NONAME ; void CPlaceholderData::SetFileSize(unsigned long)
	?SetHarvesterPluginInfo@CHarvesterData@@QAEXPAVCHarvesterPluginInfo@@@Z @ 28 NONAME ; void CHarvesterData::SetHarvesterPluginInfo(class CHarvesterPluginInfo *)
	?SetLocationData@CHarvesterData@@QAEXPAUTLocationData@@@Z @ 29 NONAME ; void CHarvesterData::SetLocationData(struct TLocationData *)
	?SetMdeObject@CHarvesterData@@QAEXPAVCMdEObject@@@Z @ 30 NONAME ; void CHarvesterData::SetMdeObject(class CMdEObject *)
	?SetMediaId@CPlaceholderData@@QAEXI@Z @ 31 NONAME ; void CPlaceholderData::SetMediaId(unsigned int)
	?SetModified@CPlaceholderData@@QAEXVTTime@@@Z @ 32 NONAME ; void CPlaceholderData::SetModified(class TTime)
	?SetObjectType@CHarvesterData@@QAEXW4THarvesterObjectType@@@Z @ 33 NONAME ; void CHarvesterData::SetObjectType(enum THarvesterObjectType)
	?SetOrigin@CHarvesterData@@QAEXW4TOrigin@Object@MdeConstants@@@Z @ 34 NONAME ; void CHarvesterData::SetOrigin(enum MdeConstants::Object::TOrigin)
	?SetPluginObserver@CHarvesterData@@QAEXAAVMHarvesterPluginObserver@@@Z @ 35 NONAME ; void CHarvesterData::SetPluginObserver(class MHarvesterPluginObserver &)
	?SetPresentState@CPlaceholderData@@QAEXH@Z @ 36 NONAME ; void CPlaceholderData::SetPresentState(int)
	?SetTakeSnapshot@CHarvesterData@@QAEXH@Z @ 37 NONAME ; void CHarvesterData::SetTakeSnapshot(int)
	?SetUri@CPlaceholderData@@QAEXABVTDesC16@@@Z @ 38 NONAME ; void CPlaceholderData::SetUri(class TDesC16 const &)
	?TakeSnapshot@CHarvesterData@@QAEHXZ @ 39 NONAME ; int CHarvesterData::TakeSnapshot(void)
	?Uri@CHarvesterData@@QAEABVTDesC16@@XZ @ 40 NONAME ; class TDesC16 const & CHarvesterData::Uri(void)
	?Uri@CPlaceholderData@@QAE?AVTPtr16@@XZ @ 41 NONAME ; class TPtr16 CPlaceholderData::Uri(void)
	?Preinstalled@CPlaceholderData@@QAEHXZ @ 42 NONAME ; int CPlaceholderData::Preinstalled(void)
	?SetPreinstalled@CPlaceholderData@@QAEXH@Z @ 43 NONAME ; void CPlaceholderData::SetPreinstalled(int)
	?IsBinary@CHarvesterData@@QAEHXZ @ 44 NONAME ; int CHarvesterData::IsBinary(void)
	?SetBinary@CHarvesterData@@QAEXH@Z @ 45 NONAME ; void CHarvesterData::SetBinary(int)

