EXPORTS
	??0RLocationManager@@QAE@XZ @ 1 NONAME ; RLocationManager::RLocationManager(void)
	?AddObserver@RTrackLog@@QAEHPAVMTrackLogObserver@@@Z @ 2 NONAME ; int RTrackLog::AddObserver(class MTrackLogObserver *)
	?CancelLocationRequest@RLocationTrail@@QAEXXZ @ 3 NONAME ; void RLocationTrail::CancelLocationRequest(void)
	?CancelNotificationRequest@RLocationTrail@@QAEXXZ @ 4 NONAME ; void RLocationTrail::CancelNotificationRequest(void)
	?Close@RLocationManager@@QAEXXZ @ 5 NONAME ; void RLocationManager::Close(void)
	?Close@RTrackLog@@QAEXXZ @ 6 NONAME ; void RTrackLog::Close(void)
	?Connect@RLocationManager@@QAEHXZ @ 7 NONAME ; int RLocationManager::Connect(void)
	?CopyLocationData@RLocationObject@@QAEHAAIAAV?$RArray@I@@@Z @ 8 NONAME ; int RLocationObject::CopyLocationData(unsigned int &, class RArray<unsigned int> &)
	?CopyLocationData@RLocationObject@@QAEHAAVTDesC16@@AAV?$RPointerArray@VTDesC16@@@@@Z @ 9 NONAME ; int RLocationObject::CopyLocationData(class TDesC16 &, class RPointerArray<class TDesC16> &)
	?CreateLocationObject@RLocationObject@@QAEHAAUTLocationData@RLocationManager@@AAV?$RArray@I@@@Z @ 10 NONAME ; int RLocationObject::CreateLocationObject(struct RLocationManager::TLocationData &, class RArray<unsigned int> &)
	?CurrentLocation@RLocationTrail@@QAEXAAVTRequestStatus@@AAVTDes8@@1@Z @ 11 NONAME ; void RLocationTrail::CurrentLocation(class TRequestStatus &, class TDes8 &, class TDes8 &)
	?DeleteTrackLog@RTrackLog@@QAEHAAVTDesC16@@@Z @ 12 NONAME ; int RTrackLog::DeleteTrackLog(class TDesC16 &)
	?EditLocationObject@RLocationObject@@QAEHAAIAAUTLocationData@RLocationManager@@@Z @ 13 NONAME ; int RLocationObject::EditLocationObject(unsigned int &, struct RLocationManager::TLocationData &)
	?GetLocationTrailState@RLocationTrail@@QAEHAAW4TTrailState@1@@Z @ 14 NONAME ; int RLocationTrail::GetLocationTrailState(enum RLocationTrail::TTrailState &)
	?GetStatus@RTrackLog@@QAEHAAHAAVTPositionSatelliteInfo@@@Z @ 15 NONAME ; int RTrackLog::GetStatus(int &, class TPositionSatelliteInfo &)
	?IsRecording@RTrackLog@@QAEHXZ @ 16 NONAME ; int RTrackLog::IsRecording(void)
	?MapLocationToLandmarksL@RLandmarkMapping@@QAEXABVTLocality@@AAV?$RPointerArray@VCPosLandmark@@@@@Z @ 17 NONAME ; void RLandmarkMapping::MapLocationToLandmarksL(class TLocality const &, class RPointerArray<class CPosLandmark> &)
	?NotifyLocationTrailStateChange@RLocationTrail@@QAEXAAVTRequestStatus@@@Z @ 18 NONAME ; void RLocationTrail::NotifyLocationTrailStateChange(class TRequestStatus &)
	?RemoveLocationObject@RLocationObject@@QAEHAAI@Z @ 19 NONAME ; int RLocationObject::RemoveLocationObject(unsigned int &)
	?RemoveObserver@RTrackLog@@QAEHPAVMTrackLogObserver@@@Z @ 20 NONAME ; int RTrackLog::RemoveObserver(class MTrackLogObserver *)
	?RetrieveLocation@RLocationTrail@@QAEHABVTTime@@AAUTLocationData@RLocationManager@@AAW4TTrailState@1@@Z @ 21 NONAME ; int RLocationTrail::RetrieveLocation(class TTime const &, struct RLocationManager::TLocationData &, enum RLocationTrail::TTrailState &)
	?StartLocationTrail@RLocationTrail@@QAEHW4TTrailCaptureSetting@1@@Z @ 22 NONAME ; int RLocationTrail::StartLocationTrail(enum RLocationTrail::TTrailCaptureSetting)
	?StartTrackLog@RTrackLog@@QAEHXZ @ 23 NONAME ; int RTrackLog::StartTrackLog(void)
	?StopLocationTrail@RLocationTrail@@QAEHXZ @ 24 NONAME ; int RLocationTrail::StopLocationTrail(void)
	?StopTrackLog@RTrackLog@@QAEXXZ @ 25 NONAME ; void RTrackLog::StopTrackLog(void)
	?TrackLogName@RTrackLog@@QAEHAAVTDes16@@@Z @ 26 NONAME ; int RTrackLog::TrackLogName(class TDes16 &)

