EXPORTS
	?qt_metacast@QTMSSpeakerSink@QTMS@@UAEPAXPBD@Z @ 1 NONAME ; void * QTMS::QTMSSpeakerSink::qt_metacast(char const *)
	?getStaticMetaObject@QTMSGainEffect@QTMS@@SAABUQMetaObject@@XZ @ 2 NONAME ; struct QMetaObject const & QTMS::QTMSGainEffect::getStaticMetaObject(void)
	??0QTMSStream@QTMS@@IAE@XZ @ 3 NONAME ; QTMS::QTMSStream::QTMSStream(void)
	??0QTMSAMRFormat@QTMS@@IAE@XZ @ 4 NONAME ; QTMS::QTMSAMRFormat::QTMSAMRFormat(void)
	?tr@QTMSG729Format@QTMS@@SA?AVQString@@PBD0H@Z @ 5 NONAME ; class QString QTMS::QTMSG729Format::tr(char const *, char const *, int)
	?tr@QTMSModemSource@QTMS@@SA?AVQString@@PBD0@Z @ 6 NONAME ; class QString QTMS::QTMSModemSource::tr(char const *, char const *)
	?CreateRingTonePlayer@QTMSFactory@QTMS@@QAEHAAPAVQTMSRingTone@2@@Z @ 7 NONAME ; int QTMS::QTMSFactory::CreateRingTonePlayer(class QTMS::QTMSRingTone * &)
	?qt_metacall@QTMSClientSource@QTMS@@UAEHW4Call@QMetaObject@@HPAPAX@Z @ 8 NONAME ; int QTMS::QTMSClientSource::qt_metacall(enum QMetaObject::Call, int, void * *)
	?trUtf8@QTMSVolumeEffect@QTMS@@SA?AVQString@@PBD0H@Z @ 9 NONAME ; class QString QTMS::QTMSVolumeEffect::trUtf8(char const *, char const *, int)
	?trUtf8@QTMSG711Format@QTMS@@SA?AVQString@@PBD0H@Z @ 10 NONAME ; class QString QTMS::QTMSG711Format::trUtf8(char const *, char const *, int)
	??_EQTMSGlobalRouting@QTMS@@UAE@I@Z @ 11 NONAME ; QTMS::QTMSGlobalRouting::~QTMSGlobalRouting(unsigned int)
	?metaObject@QTMSGlobalRouting@QTMS@@UBEPBUQMetaObject@@XZ @ 12 NONAME ; struct QMetaObject const * QTMS::QTMSGlobalRouting::metaObject(void) const
	?SetPlc@QTMSG711Format@QTMS@@QAEHH@Z @ 13 NONAME ; int QTMS::QTMSG711Format::SetPlc(int)
	?AddSink@QTMSStream@QTMS@@QAEHPAVQTMSSink@2@@Z @ 14 NONAME ; int QTMS::QTMSStream::AddSink(class QTMS::QTMSSink *)
	?tr@QTMSPCMFormat@QTMS@@SA?AVQString@@PBD0H@Z @ 15 NONAME ; class QString QTMS::QTMSPCMFormat::tr(char const *, char const *, int)
	??_EQTMSG729Format@QTMS@@UAE@I@Z @ 16 NONAME ; QTMS::QTMSG729Format::~QTMSG729Format(unsigned int)
	?Deinit@QTMSRingTone@QTMS@@QAEHXZ @ 17 NONAME ; int QTMS::QTMSRingTone::Deinit(void)
	?qt_metacast@QTMSClientSink@QTMS@@UAEPAXPBD@Z @ 18 NONAME ; void * QTMS::QTMSClientSink::qt_metacast(char const *)
	?tr@QTMSG729Format@QTMS@@SA?AVQString@@PBD0@Z @ 19 NONAME ; class QString QTMS::QTMSG729Format::tr(char const *, char const *)
	??_EQTMSSpeakerSink@QTMS@@UAE@I@Z @ 20 NONAME ; QTMS::QTMSSpeakerSink::~QTMSSpeakerSink(unsigned int)
	?getStaticMetaObject@QTMSInbandTone@QTMS@@SAABUQMetaObject@@XZ @ 21 NONAME ; struct QMetaObject const & QTMS::QTMSInbandTone::getStaticMetaObject(void)
	??0QTMSGainEffect@QTMS@@IAE@XZ @ 22 NONAME ; QTMS::QTMSGainEffect::QTMSGainEffect(void)
	?tr@QTMSRingTone@QTMS@@SA?AVQString@@PBD0@Z @ 23 NONAME ; class QString QTMS::QTMSRingTone::tr(char const *, char const *)
	?tr@QTMSClientSink@QTMS@@SA?AVQString@@PBD0H@Z @ 24 NONAME ; class QString QTMS::QTMSClientSink::tr(char const *, char const *, int)
	?GetType@QTMSGlobalGainEffect@QTMS@@UAEHAAH@Z @ 25 NONAME ; int QTMS::QTMSGlobalGainEffect::GetType(int &)
	??1QTMSInbandTone@QTMS@@UAE@XZ @ 26 NONAME ; QTMS::QTMSInbandTone::~QTMSInbandTone(void)
	?trUtf8@QTMSInbandTone@QTMS@@SA?AVQString@@PBD0H@Z @ 27 NONAME ; class QString QTMS::QTMSInbandTone::trUtf8(char const *, char const *, int)
	?GetType@QTMSModemSink@QTMS@@UAEHAAH@Z @ 28 NONAME ; int QTMS::QTMSModemSink::GetType(int &)
	?trUtf8@QTMSSpeakerSink@QTMS@@SA?AVQString@@PBD0H@Z @ 29 NONAME ; class QString QTMS::QTMSSpeakerSink::trUtf8(char const *, char const *, int)
	?Stop@QTMSDTMF@QTMS@@QAEHXZ @ 30 NONAME ; int QTMS::QTMSDTMF::Stop(void)
	?DeleteRingTonePlayer@QTMSFactory@QTMS@@QAEHAAPAVQTMSRingTone@2@@Z @ 31 NONAME ; int QTMS::QTMSFactory::DeleteRingTonePlayer(class QTMS::QTMSRingTone * &)
	?tr@QTMSVolumeEffect@QTMS@@SA?AVQString@@PBD0H@Z @ 32 NONAME ; class QString QTMS::QTMSVolumeEffect::tr(char const *, char const *, int)
	?AddSource@QTMSStream@QTMS@@QAEHPAVQTMSSource@2@@Z @ 33 NONAME ; int QTMS::QTMSStream::AddSource(class QTMS::QTMSSource *)
	??1QTMSGlobalVolEffect@QTMS@@UAE@XZ @ 34 NONAME ; QTMS::QTMSGlobalVolEffect::~QTMSGlobalVolEffect(void)
	?GetType@QTMSSpeakerSink@QTMS@@UAEHAAH@Z @ 35 NONAME ; int QTMS::QTMSSpeakerSink::GetType(int &)
	?getStaticMetaObject@QTMSGlobalVolEffect@QTMS@@SAABUQMetaObject@@XZ @ 36 NONAME ; struct QMetaObject const & QTMS::QTMSGlobalVolEffect::getStaticMetaObject(void)
	??0QTMSModemSource@QTMS@@IAE@XZ @ 37 NONAME ; QTMS::QTMSModemSource::QTMSModemSource(void)
	?trUtf8@QTMSMicSource@QTMS@@SA?AVQString@@PBD0@Z @ 38 NONAME ; class QString QTMS::QTMSMicSource::trUtf8(char const *, char const *)
	?Pause@QTMSRingTone@QTMS@@QAEHXZ @ 39 NONAME ; int QTMS::QTMSRingTone::Pause(void)
	?GetVADMode@QTMSILBCFormat@QTMS@@QAEHAAH@Z @ 40 NONAME ; int QTMS::QTMSILBCFormat::GetVADMode(int &)
	?qt_metacast@QTMSDTMF@QTMS@@UAEPAXPBD@Z @ 41 NONAME ; void * QTMS::QTMSDTMF::qt_metacast(char const *)
	?RingtoneEvent@QTMSRingTone@QTMS@@IAEXABV12@UQTMSSignalEvent@2@@Z @ 42 NONAME ; void QTMS::QTMSRingTone::RingtoneEvent(class QTMS::QTMSRingTone const &, struct QTMS::QTMSSignalEvent)
	??_EQTMSCall@QTMS@@UAE@I@Z @ 43 NONAME ; QTMS::QTMSCall::~QTMSCall(unsigned int)
	?trUtf8@QTMSILBCFormat@QTMS@@SA?AVQString@@PBD0@Z @ 44 NONAME ; class QString QTMS::QTMSILBCFormat::trUtf8(char const *, char const *)
	?staticMetaObject@QTMSRingTone@QTMS@@2UQMetaObject@@B @ 45 NONAME ; struct QMetaObject const QTMS::QTMSRingTone::staticMetaObject
	?SetMode@QTMSILBCFormat@QTMS@@QAEHH@Z @ 46 NONAME ; int QTMS::QTMSILBCFormat::SetMode(int)
	?trUtf8@QTMSModemSink@QTMS@@SA?AVQString@@PBD0H@Z @ 47 NONAME ; class QString QTMS::QTMSModemSink::trUtf8(char const *, char const *, int)
	?GetVADMode@QTMSG711Format@QTMS@@QAEHAAH@Z @ 48 NONAME ; int QTMS::QTMSG711Format::GetVADMode(int &)
	?staticMetaObject@QTMSDTMF@QTMS@@2UQMetaObject@@B @ 49 NONAME ; struct QMetaObject const QTMS::QTMSDTMF::staticMetaObject
	??0QTMSMicSource@QTMS@@IAE@XZ @ 50 NONAME ; QTMS::QTMSMicSource::QTMSMicSource(void)
	?GetPreviousOutput@QTMSGlobalRouting@QTMS@@QAEHAAH@Z @ 51 NONAME ; int QTMS::QTMSGlobalRouting::GetPreviousOutput(int &)
	??1QTMSGainEffect@QTMS@@UAE@XZ @ 52 NONAME ; QTMS::QTMSGainEffect::~QTMSGainEffect(void)
	?trUtf8@QTMSClientSink@QTMS@@SA?AVQString@@PBD0@Z @ 53 NONAME ; class QString QTMS::QTMSClientSink::trUtf8(char const *, char const *)
	?EffectsEvent@QTMSGainEffect@QTMS@@IAEXABVQTMSEffect@2@UQTMSSignalEvent@2@@Z @ 54 NONAME ; void QTMS::QTMSGainEffect::EffectsEvent(class QTMS::QTMSEffect const &, struct QTMS::QTMSSignalEvent)
	?qt_metacast@QTMSILBCFormat@QTMS@@UAEPAXPBD@Z @ 55 NONAME ; void * QTMS::QTMSILBCFormat::qt_metacast(char const *)
	?TMSStreamEvent@QTMSStream@QTMS@@IAEXABV12@UQTMSSignalEvent@2@@Z @ 56 NONAME ; void QTMS::QTMSStream::TMSStreamEvent(class QTMS::QTMSStream const &, struct QTMS::QTMSSignalEvent)
	?trUtf8@QTMSRingTone@QTMS@@SA?AVQString@@PBD0@Z @ 57 NONAME ; class QString QTMS::QTMSRingTone::trUtf8(char const *, char const *)
	??1QTMSModemSink@QTMS@@UAE@XZ @ 58 NONAME ; QTMS::QTMSModemSink::~QTMSModemSink(void)
	?metaObject@QTMSVolumeEffect@QTMS@@UBEPBUQMetaObject@@XZ @ 59 NONAME ; struct QMetaObject const * QTMS::QTMSVolumeEffect::metaObject(void) const
	??_EQTMSClientSink@QTMS@@UAE@I@Z @ 60 NONAME ; QTMS::QTMSClientSink::~QTMSClientSink(unsigned int)
	?qt_metacast@QTMSModemSink@QTMS@@UAEPAXPBD@Z @ 61 NONAME ; void * QTMS::QTMSModemSink::qt_metacast(char const *)
	??1QTMSClientSource@QTMS@@UAE@XZ @ 62 NONAME ; QTMS::QTMSClientSource::~QTMSClientSource(void)
	?qt_metacall@QTMSGainEffect@QTMS@@UAEHW4Call@QMetaObject@@HPAPAX@Z @ 63 NONAME ; int QTMS::QTMSGainEffect::qt_metacall(enum QMetaObject::Call, int, void * *)
	?CreateSource@QTMSFactory@QTMS@@QAEHHAAPAVQTMSSource@2@@Z @ 64 NONAME ; int QTMS::QTMSFactory::CreateSource(int, class QTMS::QTMSSource * &)
	?trUtf8@QTMSFactory@QTMS@@SA?AVQString@@PBD0@Z @ 65 NONAME ; class QString QTMS::QTMSFactory::trUtf8(char const *, char const *)
	?FillBuffer@QTMSClientSource@QTMS@@IAEXAAVQTMSBuffer@2@@Z @ 66 NONAME ; void QTMS::QTMSClientSource::FillBuffer(class QTMS::QTMSBuffer &)
	?qt_metacall@QTMSGlobalVolEffect@QTMS@@UAEHW4Call@QMetaObject@@HPAPAX@Z @ 67 NONAME ; int QTMS::QTMSGlobalVolEffect::qt_metacall(enum QMetaObject::Call, int, void * *)
	?GetLevel@QTMSGlobalGainEffect@QTMS@@QAEHAAI@Z @ 68 NONAME ; int QTMS::QTMSGlobalGainEffect::GetLevel(unsigned int &)
	?trUtf8@QTMSGlobalVolEffect@QTMS@@SA?AVQString@@PBD0H@Z @ 69 NONAME ; class QString QTMS::QTMSGlobalVolEffect::trUtf8(char const *, char const *, int)
	?trUtf8@QTMSCall@QTMS@@SA?AVQString@@PBD0@Z @ 70 NONAME ; class QString QTMS::QTMSCall::trUtf8(char const *, char const *)
	?GetMaxLevel@QTMSGlobalGainEffect@QTMS@@QAEHAAI@Z @ 71 NONAME ; int QTMS::QTMSGlobalGainEffect::GetMaxLevel(unsigned int &)
	?RemoveSource@QTMSStream@QTMS@@QAEHPAVQTMSSource@2@@Z @ 72 NONAME ; int QTMS::QTMSStream::RemoveSource(class QTMS::QTMSSource *)
	?DTMFEvent@QTMSDTMF@QTMS@@IAEXABV12@UQTMSSignalEvent@2@@Z @ 73 NONAME ; void QTMS::QTMSDTMF::DTMFEvent(class QTMS::QTMSDTMF const &, struct QTMS::QTMSSignalEvent)
	?GetCNG@QTMSILBCFormat@QTMS@@QAEHAAH@Z @ 74 NONAME ; int QTMS::QTMSILBCFormat::GetCNG(int &)
	?qt_metacast@QTMSG729Format@QTMS@@UAEPAXPBD@Z @ 75 NONAME ; void * QTMS::QTMSG729Format::qt_metacast(char const *)
	?tr@QTMSILBCFormat@QTMS@@SA?AVQString@@PBD0@Z @ 76 NONAME ; class QString QTMS::QTMSILBCFormat::tr(char const *, char const *)
	?GetType@QTMSClientSink@QTMS@@UAEHAAH@Z @ 77 NONAME ; int QTMS::QTMSClientSink::GetType(int &)
	?tr@QTMSModemSink@QTMS@@SA?AVQString@@PBD0H@Z @ 78 NONAME ; class QString QTMS::QTMSModemSink::tr(char const *, char const *, int)
	?staticMetaObject@QTMSMicSource@QTMS@@2UQMetaObject@@B @ 79 NONAME ; struct QMetaObject const QTMS::QTMSMicSource::staticMetaObject
	?metaObject@QTMSModemSource@QTMS@@UBEPBUQMetaObject@@XZ @ 80 NONAME ; struct QMetaObject const * QTMS::QTMSModemSource::metaObject(void) const
	?ContinueDTMFStringSending@QTMSDTMF@QTMS@@QAEHH@Z @ 81 NONAME ; int QTMS::QTMSDTMF::ContinueDTMFStringSending(int)
	?GetCNG@QTMSG711Format@QTMS@@QAEHAAH@Z @ 82 NONAME ; int QTMS::QTMSG711Format::GetCNG(int &)
	?CreateGlobalRouting@QTMSFactory@QTMS@@QAEHAAPAVQTMSGlobalRouting@2@@Z @ 83 NONAME ; int QTMS::QTMSFactory::CreateGlobalRouting(class QTMS::QTMSGlobalRouting * &)
	?tr@QTMSRingTone@QTMS@@SA?AVQString@@PBD0H@Z @ 84 NONAME ; class QString QTMS::QTMSRingTone::tr(char const *, char const *, int)
	?trUtf8@QTMSGlobalRouting@QTMS@@SA?AVQString@@PBD0H@Z @ 85 NONAME ; class QString QTMS::QTMSGlobalRouting::trUtf8(char const *, char const *, int)
	?tr@QTMSClientSink@QTMS@@SA?AVQString@@PBD0@Z @ 86 NONAME ; class QString QTMS::QTMSClientSink::tr(char const *, char const *)
	?trUtf8@QTMSModemSink@QTMS@@SA?AVQString@@PBD0@Z @ 87 NONAME ; class QString QTMS::QTMSModemSink::trUtf8(char const *, char const *)
	?qt_metacall@QTMSInbandTone@QTMS@@UAEHW4Call@QMetaObject@@HPAPAX@Z @ 88 NONAME ; int QTMS::QTMSInbandTone::qt_metacall(enum QMetaObject::Call, int, void * *)
	?staticMetaObject@QTMSSpeakerSink@QTMS@@2UQMetaObject@@B @ 89 NONAME ; struct QMetaObject const QTMS::QTMSSpeakerSink::staticMetaObject
	?staticMetaObject@QTMSGainEffect@QTMS@@2UQMetaObject@@B @ 90 NONAME ; struct QMetaObject const QTMS::QTMSGainEffect::staticMetaObject
	?staticMetaObject@QTMSModemSink@QTMS@@2UQMetaObject@@B @ 91 NONAME ; struct QMetaObject const QTMS::QTMSModemSink::staticMetaObject
	?tr@QTMSModemSource@QTMS@@SA?AVQString@@PBD0H@Z @ 92 NONAME ; class QString QTMS::QTMSModemSource::tr(char const *, char const *, int)
	?tr@QTMSDTMF@QTMS@@SA?AVQString@@PBD0@Z @ 93 NONAME ; class QString QTMS::QTMSDTMF::tr(char const *, char const *)
	?tr@QTMSGlobalVolEffect@QTMS@@SA?AVQString@@PBD0H@Z @ 94 NONAME ; class QString QTMS::QTMSGlobalVolEffect::tr(char const *, char const *, int)
	?GetType@QTMSGainEffect@QTMS@@UAEHAAH@Z @ 95 NONAME ; int QTMS::QTMSGainEffect::GetType(int &)
	?trUtf8@QTMSSpeakerSink@QTMS@@SA?AVQString@@PBD0@Z @ 96 NONAME ; class QString QTMS::QTMSSpeakerSink::trUtf8(char const *, char const *)
	??_EQTMSG711Format@QTMS@@UAE@I@Z @ 97 NONAME ; QTMS::QTMSG711Format::~QTMSG711Format(unsigned int)
	?qt_metacast@QTMSAMRFormat@QTMS@@UAEPAXPBD@Z @ 98 NONAME ; void * QTMS::QTMSAMRFormat::qt_metacast(char const *)
	?GlobalRoutingEvent@QTMSGlobalRouting@QTMS@@IAEXABV12@UQTMSSignalEvent@2@H@Z @ 99 NONAME ; void QTMS::QTMSGlobalRouting::GlobalRoutingEvent(class QTMS::QTMSGlobalRouting const &, struct QTMS::QTMSSignalEvent, int)
	?trUtf8@QTMSAMRFormat@QTMS@@SA?AVQString@@PBD0H@Z @ 100 NONAME ; class QString QTMS::QTMSAMRFormat::trUtf8(char const *, char const *, int)
	?getStaticMetaObject@QTMSRingTone@QTMS@@SAABUQMetaObject@@XZ @ 101 NONAME ; struct QMetaObject const & QTMS::QTMSRingTone::getStaticMetaObject(void)
	?metaObject@QTMSMicSource@QTMS@@UBEPBUQMetaObject@@XZ @ 102 NONAME ; struct QMetaObject const * QTMS::QTMSMicSource::metaObject(void) const
	??1QTMSSpeakerSink@QTMS@@UAE@XZ @ 103 NONAME ; QTMS::QTMSSpeakerSink::~QTMSSpeakerSink(void)
	??0QTMSVolumeEffect@QTMS@@IAE@XZ @ 104 NONAME ; QTMS::QTMSVolumeEffect::QTMSVolumeEffect(void)
	?staticMetaObject@QTMSAMRFormat@QTMS@@2UQMetaObject@@B @ 105 NONAME ; struct QMetaObject const QTMS::QTMSAMRFormat::staticMetaObject
	?GetVADMode@QTMSG729Format@QTMS@@QAEHAAH@Z @ 106 NONAME ; int QTMS::QTMSG729Format::GetVADMode(int &)
	??1QTMSGlobalGainEffect@QTMS@@UAE@XZ @ 107 NONAME ; QTMS::QTMSGlobalGainEffect::~QTMSGlobalGainEffect(void)
	??_EQTMSInbandTone@QTMS@@UAE@I@Z @ 108 NONAME ; QTMS::QTMSInbandTone::~QTMSInbandTone(unsigned int)
	?trUtf8@QTMSAMRFormat@QTMS@@SA?AVQString@@PBD0@Z @ 109 NONAME ; class QString QTMS::QTMSAMRFormat::trUtf8(char const *, char const *)
	?qt_metacast@QTMSRingTone@QTMS@@UAEPAXPBD@Z @ 110 NONAME ; void * QTMS::QTMSRingTone::qt_metacast(char const *)
	?GetType@QTMSClientSource@QTMS@@UAEHAAH@Z @ 111 NONAME ; int QTMS::QTMSClientSource::GetType(int &)
	?metaObject@QTMSPCMFormat@QTMS@@UBEPBUQMetaObject@@XZ @ 112 NONAME ; struct QMetaObject const * QTMS::QTMSPCMFormat::metaObject(void) const
	?tr@QTMSMicSource@QTMS@@SA?AVQString@@PBD0@Z @ 113 NONAME ; class QString QTMS::QTMSMicSource::tr(char const *, char const *)
	??1QTMSGlobalRouting@QTMS@@UAE@XZ @ 114 NONAME ; QTMS::QTMSGlobalRouting::~QTMSGlobalRouting(void)
	??0QTMSFactory@QTMS@@AAE@AAVQTMSVer@1@@Z @ 115 NONAME ; QTMS::QTMSFactory::QTMSFactory(class QTMS::QTMSVer &)
	?getStaticMetaObject@QTMSStream@QTMS@@SAABUQMetaObject@@XZ @ 116 NONAME ; struct QMetaObject const & QTMS::QTMSStream::getStaticMetaObject(void)
	?trUtf8@QTMSClientSource@QTMS@@SA?AVQString@@PBD0@Z @ 117 NONAME ; class QString QTMS::QTMSClientSource::trUtf8(char const *, char const *)
	?tr@QTMSAMRFormat@QTMS@@SA?AVQString@@PBD0H@Z @ 118 NONAME ; class QString QTMS::QTMSAMRFormat::tr(char const *, char const *, int)
	?qt_metacast@QTMSModemSource@QTMS@@UAEPAXPBD@Z @ 119 NONAME ; void * QTMS::QTMSModemSource::qt_metacast(char const *)
	?getStaticMetaObject@QTMSG711Format@QTMS@@SAABUQMetaObject@@XZ @ 120 NONAME ; struct QMetaObject const & QTMS::QTMSG711Format::getStaticMetaObject(void)
	??_EQTMSClientSource@QTMS@@UAE@I@Z @ 121 NONAME ; QTMS::QTMSClientSource::~QTMSClientSource(unsigned int)
	?GetLevel@QTMSGainEffect@QTMS@@QAEHAAI@Z @ 122 NONAME ; int QTMS::QTMSGainEffect::GetLevel(unsigned int &)
	?tr@QTMSFactory@QTMS@@SA?AVQString@@PBD0@Z @ 123 NONAME ; class QString QTMS::QTMSFactory::tr(char const *, char const *)
	?qt_metacast@QTMSGlobalRouting@QTMS@@UAEPAXPBD@Z @ 124 NONAME ; void * QTMS::QTMSGlobalRouting::qt_metacast(char const *)
	?getStaticMetaObject@QTMSFactory@QTMS@@SAABUQMetaObject@@XZ @ 125 NONAME ; struct QMetaObject const & QTMS::QTMSFactory::getStaticMetaObject(void)
	??_EQTMSAMRFormat@QTMS@@UAE@I@Z @ 126 NONAME ; QTMS::QTMSAMRFormat::~QTMSAMRFormat(unsigned int)
	?getStaticMetaObject@QTMSPCMFormat@QTMS@@SAABUQMetaObject@@XZ @ 127 NONAME ; struct QMetaObject const & QTMS::QTMSPCMFormat::getStaticMetaObject(void)
	?Flush@QTMSClientSource@QTMS@@QAEHXZ @ 128 NONAME ; int QTMS::QTMSClientSource::Flush(void)
	?Stop@QTMSRingTone@QTMS@@QAEHXZ @ 129 NONAME ; int QTMS::QTMSRingTone::Stop(void)
	?DeleteGlobalRouting@QTMSFactory@QTMS@@QAEHAAPAVQTMSGlobalRouting@2@@Z @ 130 NONAME ; int QTMS::QTMSFactory::DeleteGlobalRouting(class QTMS::QTMSGlobalRouting * &)
	?tr@QTMSGlobalRouting@QTMS@@SA?AVQString@@PBD0H@Z @ 131 NONAME ; class QString QTMS::QTMSGlobalRouting::tr(char const *, char const *, int)
	?SetMode@QTMSG711Format@QTMS@@QAEHH@Z @ 132 NONAME ; int QTMS::QTMSG711Format::SetMode(int)
	?GetMode@QTMSILBCFormat@QTMS@@QAEHAAH@Z @ 133 NONAME ; int QTMS::QTMSILBCFormat::GetMode(int &)
	?GetMode@QTMSG711Format@QTMS@@QAEHAAH@Z @ 134 NONAME ; int QTMS::QTMSG711Format::GetMode(int &)
	?GetAvailableOutputs@QTMSGlobalRouting@QTMS@@QAEHAAV?$vector@IV?$allocator@I@std@@@std@@@Z @ 135 NONAME ; int QTMS::QTMSGlobalRouting::GetAvailableOutputs(class std::vector<unsigned int, class std::allocator<unsigned int> > &)
	?staticMetaObject@QTMSFactory@QTMS@@2UQMetaObject@@B @ 136 NONAME ; struct QMetaObject const QTMS::QTMSFactory::staticMetaObject
	?DeleteFormat@QTMSFactory@QTMS@@QAEHAAPAVQTMSFormat@2@@Z @ 137 NONAME ; int QTMS::QTMSFactory::DeleteFormat(class QTMS::QTMSFormat * &)
	?tr@QTMSILBCFormat@QTMS@@SA?AVQString@@PBD0H@Z @ 138 NONAME ; class QString QTMS::QTMSILBCFormat::tr(char const *, char const *, int)
	??1QTMSPCMFormat@QTMS@@UAE@XZ @ 139 NONAME ; QTMS::QTMSPCMFormat::~QTMSPCMFormat(void)
	?trUtf8@QTMSGainEffect@QTMS@@SA?AVQString@@PBD0@Z @ 140 NONAME ; class QString QTMS::QTMSGainEffect::trUtf8(char const *, char const *)
	??0QTMSG711Format@QTMS@@IAE@XZ @ 141 NONAME ; QTMS::QTMSG711Format::QTMSG711Format(void)
	?staticMetaObject@QTMSILBCFormat@QTMS@@2UQMetaObject@@B @ 142 NONAME ; struct QMetaObject const QTMS::QTMSILBCFormat::staticMetaObject
	?metaObject@QTMSG729Format@QTMS@@UBEPBUQMetaObject@@XZ @ 143 NONAME ; struct QMetaObject const * QTMS::QTMSG729Format::metaObject(void) const
	?tr@QTMSFactory@QTMS@@SA?AVQString@@PBD0H@Z @ 144 NONAME ; class QString QTMS::QTMSFactory::tr(char const *, char const *, int)
	?tr@QTMSCall@QTMS@@SA?AVQString@@PBD0H@Z @ 145 NONAME ; class QString QTMS::QTMSCall::tr(char const *, char const *, int)
	?staticMetaObject@QTMSClientSink@QTMS@@2UQMetaObject@@B @ 146 NONAME ; struct QMetaObject const QTMS::QTMSClientSink::staticMetaObject
	?ProcessBuffer@QTMSClientSource@QTMS@@QAEHPAVQTMSBuffer@2@@Z @ 147 NONAME ; int QTMS::QTMSClientSource::ProcessBuffer(class QTMS::QTMSBuffer *)
	?EffectsEvent@QTMSGlobalVolEffect@QTMS@@IAEXABVQTMSEffect@2@UQTMSSignalEvent@2@@Z @ 148 NONAME ; void QTMS::QTMSGlobalVolEffect::EffectsEvent(class QTMS::QTMSEffect const &, struct QTMS::QTMSSignalEvent)
	?CreateFormat@QTMSFactory@QTMS@@QAEHHAAPAVQTMSFormat@2@@Z @ 149 NONAME ; int QTMS::QTMSFactory::CreateFormat(int, class QTMS::QTMSFormat * &)
	?SetCNG@QTMSILBCFormat@QTMS@@QAEHH@Z @ 150 NONAME ; int QTMS::QTMSILBCFormat::SetCNG(int)
	??1QTMSAMRFormat@QTMS@@UAE@XZ @ 151 NONAME ; QTMS::QTMSAMRFormat::~QTMSAMRFormat(void)
	?metaObject@QTMSClientSink@QTMS@@UBEPBUQMetaObject@@XZ @ 152 NONAME ; struct QMetaObject const * QTMS::QTMSClientSink::metaObject(void) const
	?trUtf8@QTMSInbandTone@QTMS@@SA?AVQString@@PBD0@Z @ 153 NONAME ; class QString QTMS::QTMSInbandTone::trUtf8(char const *, char const *)
	?staticMetaObject@QTMSG711Format@QTMS@@2UQMetaObject@@B @ 154 NONAME ; struct QMetaObject const QTMS::QTMSG711Format::staticMetaObject
	?trUtf8@QTMSDTMF@QTMS@@SA?AVQString@@PBD0H@Z @ 155 NONAME ; class QString QTMS::QTMSDTMF::trUtf8(char const *, char const *, int)
	?InbandToneEvent@QTMSInbandTone@QTMS@@IAEXABV12@UQTMSSignalEvent@2@@Z @ 156 NONAME ; void QTMS::QTMSInbandTone::InbandToneEvent(class QTMS::QTMSInbandTone const &, struct QTMS::QTMSSignalEvent)
	?tr@QTMSModemSink@QTMS@@SA?AVQString@@PBD0@Z @ 157 NONAME ; class QString QTMS::QTMSModemSink::tr(char const *, char const *)
	?tr@QTMSGainEffect@QTMS@@SA?AVQString@@PBD0H@Z @ 158 NONAME ; class QString QTMS::QTMSGainEffect::tr(char const *, char const *, int)
	?qt_metacast@QTMSG711Format@QTMS@@UAEPAXPBD@Z @ 159 NONAME ; void * QTMS::QTMSG711Format::qt_metacast(char const *)
	?GetMaxLevel@QTMSVolumeEffect@QTMS@@QAEHAAI@Z @ 160 NONAME ; int QTMS::QTMSVolumeEffect::GetMaxLevel(unsigned int &)
	??0QTMSSpeakerSink@QTMS@@IAE@XZ @ 161 NONAME ; QTMS::QTMSSpeakerSink::QTMSSpeakerSink(void)
	??_EQTMSMicSource@QTMS@@UAE@I@Z @ 162 NONAME ; QTMS::QTMSMicSource::~QTMSMicSource(unsigned int)
	?metaObject@QTMSModemSink@QTMS@@UBEPBUQMetaObject@@XZ @ 163 NONAME ; struct QMetaObject const * QTMS::QTMSModemSink::metaObject(void) const
	?DeleteCall@QTMSFactory@QTMS@@QAEHAAPAVQTMSCall@2@@Z @ 164 NONAME ; int QTMS::QTMSFactory::DeleteCall(class QTMS::QTMSCall * &)
	?tr@QTMSGlobalGainEffect@QTMS@@SA?AVQString@@PBD0H@Z @ 165 NONAME ; class QString QTMS::QTMSGlobalGainEffect::tr(char const *, char const *, int)
	?qt_metacall@QTMSMicSource@QTMS@@UAEHW4Call@QMetaObject@@HPAPAX@Z @ 166 NONAME ; int QTMS::QTMSMicSource::qt_metacall(enum QMetaObject::Call, int, void * *)
	?GetType@QTMSFormat@QTMS@@UAEHAAH@Z @ 167 NONAME ; int QTMS::QTMSFormat::GetType(int &)
	?DeleteStream@QTMSCall@QTMS@@QAEHAAPAVQTMSStream@2@@Z @ 168 NONAME ; int QTMS::QTMSCall::DeleteStream(class QTMS::QTMSStream * &)
	?trUtf8@QTMSVolumeEffect@QTMS@@SA?AVQString@@PBD0@Z @ 169 NONAME ; class QString QTMS::QTMSVolumeEffect::trUtf8(char const *, char const *)
	?CreateInbandTonePlayer@QTMSFactory@QTMS@@QAEHAAPAVQTMSInbandTone@2@@Z @ 170 NONAME ; int QTMS::QTMSFactory::CreateInbandTonePlayer(class QTMS::QTMSInbandTone * &)
	?trUtf8@QTMSGlobalRouting@QTMS@@SA?AVQString@@PBD0@Z @ 171 NONAME ; class QString QTMS::QTMSGlobalRouting::trUtf8(char const *, char const *)
	??1QTMSG711Format@QTMS@@UAE@XZ @ 172 NONAME ; QTMS::QTMSG711Format::~QTMSG711Format(void)
	?BufferProcessed@QTMSClientSink@QTMS@@QAEHPAVQTMSBuffer@2@@Z @ 173 NONAME ; int QTMS::QTMSClientSink::BufferProcessed(class QTMS::QTMSBuffer *)
	?tr@QTMSGainEffect@QTMS@@SA?AVQString@@PBD0@Z @ 174 NONAME ; class QString QTMS::QTMSGainEffect::tr(char const *, char const *)
	??_EQTMSModemSource@QTMS@@UAE@I@Z @ 175 NONAME ; QTMS::QTMSModemSource::~QTMSModemSource(unsigned int)
	?qt_metacall@QTMSPCMFormat@QTMS@@UAEHW4Call@QMetaObject@@HPAPAX@Z @ 176 NONAME ; int QTMS::QTMSPCMFormat::qt_metacall(enum QMetaObject::Call, int, void * *)
	??0QTMSILBCFormat@QTMS@@IAE@XZ @ 177 NONAME ; QTMS::QTMSILBCFormat::QTMSILBCFormat(void)
	?trUtf8@QTMSStream@QTMS@@SA?AVQString@@PBD0H@Z @ 178 NONAME ; class QString QTMS::QTMSStream::trUtf8(char const *, char const *, int)
	?qt_metacast@QTMSPCMFormat@QTMS@@UAEPAXPBD@Z @ 179 NONAME ; void * QTMS::QTMSPCMFormat::qt_metacast(char const *)
	?qt_metacall@QTMSSpeakerSink@QTMS@@UAEHW4Call@QMetaObject@@HPAPAX@Z @ 180 NONAME ; int QTMS::QTMSSpeakerSink::qt_metacall(enum QMetaObject::Call, int, void * *)
	?GetLevel@QTMSVolumeEffect@QTMS@@QAEHAAI@Z @ 181 NONAME ; int QTMS::QTMSVolumeEffect::GetLevel(unsigned int &)
	?trUtf8@QTMSFactory@QTMS@@SA?AVQString@@PBD0H@Z @ 182 NONAME ; class QString QTMS::QTMSFactory::trUtf8(char const *, char const *, int)
	??_EQTMSGainEffect@QTMS@@UAE@I@Z @ 183 NONAME ; QTMS::QTMSGainEffect::~QTMSGainEffect(unsigned int)
	?tr@QTMSGlobalRouting@QTMS@@SA?AVQString@@PBD0@Z @ 184 NONAME ; class QString QTMS::QTMSGlobalRouting::tr(char const *, char const *)
	?tr@QTMSAMRFormat@QTMS@@SA?AVQString@@PBD0@Z @ 185 NONAME ; class QString QTMS::QTMSAMRFormat::tr(char const *, char const *)
	?getStaticMetaObject@QTMSSpeakerSink@QTMS@@SAABUQMetaObject@@XZ @ 186 NONAME ; struct QMetaObject const & QTMS::QTMSSpeakerSink::getStaticMetaObject(void)
	?CreateDTMF@QTMSFactory@QTMS@@QAEHHAAPAVQTMSDTMF@2@@Z @ 187 NONAME ; int QTMS::QTMSFactory::CreateDTMF(int, class QTMS::QTMSDTMF * &)
	?trUtf8@QTMSStream@QTMS@@SA?AVQString@@PBD0@Z @ 188 NONAME ; class QString QTMS::QTMSStream::trUtf8(char const *, char const *)
	?Init@QTMSStream@QTMS@@QAEHH@Z @ 189 NONAME ; int QTMS::QTMSStream::Init(int)
	?tr@QTMSInbandTone@QTMS@@SA?AVQString@@PBD0@Z @ 190 NONAME ; class QString QTMS::QTMSInbandTone::tr(char const *, char const *)
	?tr@QTMSStream@QTMS@@SA?AVQString@@PBD0@Z @ 191 NONAME ; class QString QTMS::QTMSStream::tr(char const *, char const *)
	??1QTMSMicSource@QTMS@@UAE@XZ @ 192 NONAME ; QTMS::QTMSMicSource::~QTMSMicSource(void)
	?BufferFilled@QTMSClientSource@QTMS@@QAEHAAVQTMSBuffer@2@@Z @ 193 NONAME ; int QTMS::QTMSClientSource::BufferFilled(class QTMS::QTMSBuffer &)
	??_EQTMSFactory@QTMS@@UAE@I@Z @ 194 NONAME ; QTMS::QTMSFactory::~QTMSFactory(unsigned int)
	??1QTMSCall@QTMS@@UAE@XZ @ 195 NONAME ; QTMS::QTMSCall::~QTMSCall(void)
	?staticMetaObject@QTMSG729Format@QTMS@@2UQMetaObject@@B @ 196 NONAME ; struct QMetaObject const QTMS::QTMSG729Format::staticMetaObject
	??0QTMSClientSource@QTMS@@IAE@XZ @ 197 NONAME ; QTMS::QTMSClientSource::QTMSClientSource(void)
	?Stop@QTMSInbandTone@QTMS@@QAEHXZ @ 198 NONAME ; int QTMS::QTMSInbandTone::Stop(void)
	?tr@QTMSCall@QTMS@@SA?AVQString@@PBD0@Z @ 199 NONAME ; class QString QTMS::QTMSCall::tr(char const *, char const *)
	?qt_metacall@QTMSCall@QTMS@@UAEHW4Call@QMetaObject@@HPAPAX@Z @ 200 NONAME ; int QTMS::QTMSCall::qt_metacall(enum QMetaObject::Call, int, void * *)
	?metaObject@QTMSSpeakerSink@QTMS@@UBEPBUQMetaObject@@XZ @ 201 NONAME ; struct QMetaObject const * QTMS::QTMSSpeakerSink::metaObject(void) const
	?SetTone@QTMSDTMF@QTMS@@QAEHPAU_GString@@@Z @ 202 NONAME ; int QTMS::QTMSDTMF::SetTone(struct _GString *)
	?SetEnqueueMode@QTMSClientSource@QTMS@@QAEHH@Z @ 203 NONAME ; int QTMS::QTMSClientSource::SetEnqueueMode(int)
	?staticMetaObject@QTMSClientSource@QTMS@@2UQMetaObject@@B @ 204 NONAME ; struct QMetaObject const QTMS::QTMSClientSource::staticMetaObject
	?trUtf8@QTMSModemSource@QTMS@@SA?AVQString@@PBD0@Z @ 205 NONAME ; class QString QTMS::QTMSModemSource::trUtf8(char const *, char const *)
	?trUtf8@QTMSG729Format@QTMS@@SA?AVQString@@PBD0H@Z @ 206 NONAME ; class QString QTMS::QTMSG729Format::trUtf8(char const *, char const *, int)
	?GetType@QTMSVolumeEffect@QTMS@@UAEHAAH@Z @ 207 NONAME ; int QTMS::QTMSVolumeEffect::GetType(int &)
	?qt_metacall@QTMSVolumeEffect@QTMS@@UAEHW4Call@QMetaObject@@HPAPAX@Z @ 208 NONAME ; int QTMS::QTMSVolumeEffect::qt_metacall(enum QMetaObject::Call, int, void * *)
	?tr@QTMSG711Format@QTMS@@SA?AVQString@@PBD0H@Z @ 209 NONAME ; class QString QTMS::QTMSG711Format::tr(char const *, char const *, int)
	??1QTMSILBCFormat@QTMS@@UAE@XZ @ 210 NONAME ; QTMS::QTMSILBCFormat::~QTMSILBCFormat(void)
	?Play@QTMSRingTone@QTMS@@QAEHXZ @ 211 NONAME ; int QTMS::QTMSRingTone::Play(void)
	?qt_metacall@QTMSILBCFormat@QTMS@@UAEHW4Call@QMetaObject@@HPAPAX@Z @ 212 NONAME ; int QTMS::QTMSILBCFormat::qt_metacall(enum QMetaObject::Call, int, void * *)
	?tr@QTMSSpeakerSink@QTMS@@SA?AVQString@@PBD0H@Z @ 213 NONAME ; class QString QTMS::QTMSSpeakerSink::tr(char const *, char const *, int)
	?GetBitRate@QTMSFormat@QTMS@@QAEHAAI@Z @ 214 NONAME ; int QTMS::QTMSFormat::GetBitRate(unsigned int &)
	?GetType@QTMSModemSource@QTMS@@UAEHAAH@Z @ 215 NONAME ; int QTMS::QTMSModemSource::GetType(int &)
	?staticMetaObject@QTMSGlobalVolEffect@QTMS@@2UQMetaObject@@B @ 216 NONAME ; struct QMetaObject const QTMS::QTMSGlobalVolEffect::staticMetaObject
	??1QTMSFormat@QTMS@@UAE@XZ @ 217 NONAME ; QTMS::QTMSFormat::~QTMSFormat(void)
	?GetPlc@QTMSG711Format@QTMS@@QAEHAAH@Z @ 218 NONAME ; int QTMS::QTMSG711Format::GetPlc(int &)
	?Start@QTMSInbandTone@QTMS@@QAEHH@Z @ 219 NONAME ; int QTMS::QTMSInbandTone::Start(int)
	?trUtf8@QTMSClientSink@QTMS@@SA?AVQString@@PBD0H@Z @ 220 NONAME ; class QString QTMS::QTMSClientSink::trUtf8(char const *, char const *, int)
	?tr@QTMSInbandTone@QTMS@@SA?AVQString@@PBD0H@Z @ 221 NONAME ; class QString QTMS::QTMSInbandTone::tr(char const *, char const *, int)
	??_EQTMSPCMFormat@QTMS@@UAE@I@Z @ 222 NONAME ; QTMS::QTMSPCMFormat::~QTMSPCMFormat(unsigned int)
	?metaObject@QTMSAMRFormat@QTMS@@UBEPBUQMetaObject@@XZ @ 223 NONAME ; struct QMetaObject const * QTMS::QTMSAMRFormat::metaObject(void) const
	?metaObject@QTMSStream@QTMS@@UBEPBUQMetaObject@@XZ @ 224 NONAME ; struct QMetaObject const * QTMS::QTMSStream::metaObject(void) const
	?getStaticMetaObject@QTMSGlobalGainEffect@QTMS@@SAABUQMetaObject@@XZ @ 225 NONAME ; struct QMetaObject const & QTMS::QTMSGlobalGainEffect::getStaticMetaObject(void)
	?tr@QTMSGlobalVolEffect@QTMS@@SA?AVQString@@PBD0@Z @ 226 NONAME ; class QString QTMS::QTMSGlobalVolEffect::tr(char const *, char const *)
	?staticMetaObject@QTMSInbandTone@QTMS@@2UQMetaObject@@B @ 227 NONAME ; struct QMetaObject const QTMS::QTMSInbandTone::staticMetaObject
	?trUtf8@QTMSGlobalGainEffect@QTMS@@SA?AVQString@@PBD0H@Z @ 228 NONAME ; class QString QTMS::QTMSGlobalGainEffect::trUtf8(char const *, char const *, int)
	?qt_metacast@QTMSClientSource@QTMS@@UAEPAXPBD@Z @ 229 NONAME ; void * QTMS::QTMSClientSource::qt_metacast(char const *)
	?metaObject@QTMSCall@QTMS@@UBEPBUQMetaObject@@XZ @ 230 NONAME ; struct QMetaObject const * QTMS::QTMSCall::metaObject(void) const
	?qt_metacall@QTMSClientSink@QTMS@@UAEHW4Call@QMetaObject@@HPAPAX@Z @ 231 NONAME ; int QTMS::QTMSClientSink::qt_metacall(enum QMetaObject::Call, int, void * *)
	?BufferProcessed@QTMSClientSource@QTMS@@IAEXPBVQTMSBuffer@2@H@Z @ 232 NONAME ; void QTMS::QTMSClientSource::BufferProcessed(class QTMS::QTMSBuffer const *, int)
	?CreateStream@QTMSCall@QTMS@@QAEHHAAPAVQTMSStream@2@@Z @ 233 NONAME ; int QTMS::QTMSCall::CreateStream(int, class QTMS::QTMSStream * &)
	?DeleteInbandTonePlayer@QTMSFactory@QTMS@@QAEHAAPAVQTMSInbandTone@2@@Z @ 234 NONAME ; int QTMS::QTMSFactory::DeleteInbandTonePlayer(class QTMS::QTMSInbandTone * &)
	?SetLevel@QTMSGlobalGainEffect@QTMS@@QAEHI@Z @ 235 NONAME ; int QTMS::QTMSGlobalGainEffect::SetLevel(unsigned int)
	?GetStreamType@QTMSStream@QTMS@@QAEHXZ @ 236 NONAME ; int QTMS::QTMSStream::GetStreamType(void)
	?getStaticMetaObject@QTMSGlobalRouting@QTMS@@SAABUQMetaObject@@XZ @ 237 NONAME ; struct QMetaObject const & QTMS::QTMSGlobalRouting::getStaticMetaObject(void)
	??0QTMSGlobalVolEffect@QTMS@@IAE@XZ @ 238 NONAME ; QTMS::QTMSGlobalVolEffect::QTMSGlobalVolEffect(void)
	?CreateSink@QTMSFactory@QTMS@@QAEHHAAPAVQTMSSink@2@@Z @ 239 NONAME ; int QTMS::QTMSFactory::CreateSink(int, class QTMS::QTMSSink * &)
	?EffectsEvent@QTMSVolumeEffect@QTMS@@IAEXABVQTMSEffect@2@UQTMSSignalEvent@2@@Z @ 240 NONAME ; void QTMS::QTMSVolumeEffect::EffectsEvent(class QTMS::QTMSEffect const &, struct QTMS::QTMSSignalEvent)
	?getStaticMetaObject@QTMSG729Format@QTMS@@SAABUQMetaObject@@XZ @ 241 NONAME ; struct QMetaObject const & QTMS::QTMSG729Format::getStaticMetaObject(void)
	??1QTMSDTMF@QTMS@@UAE@XZ @ 242 NONAME ; QTMS::QTMSDTMF::~QTMSDTMF(void)
	?DeleteDTMF@QTMSFactory@QTMS@@QAEHAAPAVQTMSDTMF@2@@Z @ 243 NONAME ; int QTMS::QTMSFactory::DeleteDTMF(class QTMS::QTMSDTMF * &)
	??_EQTMSFormat@QTMS@@UAE@I@Z @ 244 NONAME ; QTMS::QTMSFormat::~QTMSFormat(unsigned int)
	?staticMetaObject@QTMSGlobalGainEffect@QTMS@@2UQMetaObject@@B @ 245 NONAME ; struct QMetaObject const QTMS::QTMSGlobalGainEffect::staticMetaObject
	?SetVADMode@QTMSILBCFormat@QTMS@@QAEHH@Z @ 246 NONAME ; int QTMS::QTMSILBCFormat::SetVADMode(int)
	??0QTMSCall@QTMS@@IAE@XZ @ 247 NONAME ; QTMS::QTMSCall::QTMSCall(void)
	?GetEnqueueMode@QTMSClientSource@QTMS@@QAEHAAH@Z @ 248 NONAME ; int QTMS::QTMSClientSource::GetEnqueueMode(int &)
	?metaObject@QTMSGlobalVolEffect@QTMS@@UBEPBUQMetaObject@@XZ @ 249 NONAME ; struct QMetaObject const * QTMS::QTMSGlobalVolEffect::metaObject(void) const
	?staticMetaObject@QTMSGlobalRouting@QTMS@@2UQMetaObject@@B @ 250 NONAME ; struct QMetaObject const QTMS::QTMSGlobalRouting::staticMetaObject
	?qt_metacast@QTMSFactory@QTMS@@UAEPAXPBD@Z @ 251 NONAME ; void * QTMS::QTMSFactory::qt_metacast(char const *)
	?SetCNG@QTMSG711Format@QTMS@@QAEHH@Z @ 252 NONAME ; int QTMS::QTMSG711Format::SetCNG(int)
	?qt_metacall@QTMSG729Format@QTMS@@UAEHW4Call@QMetaObject@@HPAPAX@Z @ 253 NONAME ; int QTMS::QTMSG729Format::qt_metacall(enum QMetaObject::Call, int, void * *)
	?tr@QTMSStream@QTMS@@SA?AVQString@@PBD0H@Z @ 254 NONAME ; class QString QTMS::QTMSStream::tr(char const *, char const *, int)
	?SetLevel@QTMSVolumeEffect@QTMS@@QAEHI@Z @ 255 NONAME ; int QTMS::QTMSVolumeEffect::SetLevel(unsigned int)
	?DeleteEffect@QTMSFactory@QTMS@@QAEHAAPAVQTMSEffect@2@@Z @ 256 NONAME ; int QTMS::QTMSFactory::DeleteEffect(class QTMS::QTMSEffect * &)
	?qt_metacast@QTMSCall@QTMS@@UAEPAXPBD@Z @ 257 NONAME ; void * QTMS::QTMSCall::qt_metacast(char const *)
	?SetFormat@QTMSStream@QTMS@@QAEHPAVQTMSFormat@2@@Z @ 258 NONAME ; int QTMS::QTMSStream::SetFormat(class QTMS::QTMSFormat *)
	?getStaticMetaObject@QTMSDTMF@QTMS@@SAABUQMetaObject@@XZ @ 259 NONAME ; struct QMetaObject const & QTMS::QTMSDTMF::getStaticMetaObject(void)
	?getStaticMetaObject@QTMSMicSource@QTMS@@SAABUQMetaObject@@XZ @ 260 NONAME ; struct QMetaObject const & QTMS::QTMSMicSource::getStaticMetaObject(void)
	?qt_metacall@QTMSRingTone@QTMS@@UAEHW4Call@QMetaObject@@HPAPAX@Z @ 261 NONAME ; int QTMS::QTMSRingTone::qt_metacall(enum QMetaObject::Call, int, void * *)
	?trUtf8@QTMSClientSource@QTMS@@SA?AVQString@@PBD0H@Z @ 262 NONAME ; class QString QTMS::QTMSClientSource::trUtf8(char const *, char const *, int)
	?qt_metacall@QTMSGlobalGainEffect@QTMS@@UAEHW4Call@QMetaObject@@HPAPAX@Z @ 263 NONAME ; int QTMS::QTMSGlobalGainEffect::qt_metacall(enum QMetaObject::Call, int, void * *)
	?CreateCall@QTMSFactory@QTMS@@QAEHHAAPAVQTMSCall@2@I@Z @ 264 NONAME ; int QTMS::QTMSFactory::CreateCall(int, class QTMS::QTMSCall * &, unsigned int)
	?SetVADMode@QTMSG729Format@QTMS@@QAEHH@Z @ 265 NONAME ; int QTMS::QTMSG729Format::SetVADMode(int)
	?DeleteBuffer@QTMSFactory@QTMS@@QAEHAAPAVQTMSBuffer@2@@Z @ 266 NONAME ; int QTMS::QTMSFactory::DeleteBuffer(class QTMS::QTMSBuffer * &)
	?trUtf8@QTMSG711Format@QTMS@@SA?AVQString@@PBD0@Z @ 267 NONAME ; class QString QTMS::QTMSG711Format::trUtf8(char const *, char const *)
	?qt_metacall@QTMSDTMF@QTMS@@UAEHW4Call@QMetaObject@@HPAPAX@Z @ 268 NONAME ; int QTMS::QTMSDTMF::qt_metacall(enum QMetaObject::Call, int, void * *)
	?qt_metacall@QTMSModemSource@QTMS@@UAEHW4Call@QMetaObject@@HPAPAX@Z @ 269 NONAME ; int QTMS::QTMSModemSource::qt_metacall(enum QMetaObject::Call, int, void * *)
	?CreateFactory@QTMSFactory@QTMS@@SAHAAPAV12@AAVQTMSVer@2@@Z @ 270 NONAME ; int QTMS::QTMSFactory::CreateFactory(class QTMS::QTMSFactory * &, class QTMS::QTMSVer &)
	?tr@QTMSClientSource@QTMS@@SA?AVQString@@PBD0H@Z @ 271 NONAME ; class QString QTMS::QTMSClientSource::tr(char const *, char const *, int)
	??1QTMSStream@QTMS@@UAE@XZ @ 272 NONAME ; QTMS::QTMSStream::~QTMSStream(void)
	?Init@QTMSRingTone@QTMS@@QAEHHPAU_GString@@0@Z @ 273 NONAME ; int QTMS::QTMSRingTone::Init(int, struct _GString *, struct _GString *)
	?qt_metacast@QTMSVolumeEffect@QTMS@@UAEPAXPBD@Z @ 274 NONAME ; void * QTMS::QTMSVolumeEffect::qt_metacast(char const *)
	??1QTMSRingTone@QTMS@@UAE@XZ @ 275 NONAME ; QTMS::QTMSRingTone::~QTMSRingTone(void)
	??_EQTMSStream@QTMS@@UAE@I@Z @ 276 NONAME ; QTMS::QTMSStream::~QTMSStream(unsigned int)
	?tr@QTMSSpeakerSink@QTMS@@SA?AVQString@@PBD0@Z @ 277 NONAME ; class QString QTMS::QTMSSpeakerSink::tr(char const *, char const *)
	?RemoveSink@QTMSStream@QTMS@@QAEHPAVQTMSSink@2@@Z @ 278 NONAME ; int QTMS::QTMSStream::RemoveSink(class QTMS::QTMSSink *)
	?trUtf8@QTMSModemSource@QTMS@@SA?AVQString@@PBD0H@Z @ 279 NONAME ; class QString QTMS::QTMSModemSource::trUtf8(char const *, char const *, int)
	?metaObject@QTMSILBCFormat@QTMS@@UBEPBUQMetaObject@@XZ @ 280 NONAME ; struct QMetaObject const * QTMS::QTMSILBCFormat::metaObject(void) const
	?staticMetaObject@QTMSPCMFormat@QTMS@@2UQMetaObject@@B @ 281 NONAME ; struct QMetaObject const QTMS::QTMSPCMFormat::staticMetaObject
	?getStaticMetaObject@QTMSClientSource@QTMS@@SAABUQMetaObject@@XZ @ 282 NONAME ; struct QMetaObject const & QTMS::QTMSClientSource::getStaticMetaObject(void)
	??1QTMSFactory@QTMS@@UAE@XZ @ 283 NONAME ; QTMS::QTMSFactory::~QTMSFactory(void)
	?DeleteSource@QTMSFactory@QTMS@@QAEHAAPAVQTMSSource@2@@Z @ 284 NONAME ; int QTMS::QTMSFactory::DeleteSource(class QTMS::QTMSSource * &)
	?qt_metacall@QTMSGlobalRouting@QTMS@@UAEHW4Call@QMetaObject@@HPAPAX@Z @ 285 NONAME ; int QTMS::QTMSGlobalRouting::qt_metacall(enum QMetaObject::Call, int, void * *)
	??0QTMSGlobalGainEffect@QTMS@@IAE@XZ @ 286 NONAME ; QTMS::QTMSGlobalGainEffect::QTMSGlobalGainEffect(void)
	?trUtf8@QTMSPCMFormat@QTMS@@SA?AVQString@@PBD0@Z @ 287 NONAME ; class QString QTMS::QTMSPCMFormat::trUtf8(char const *, char const *)
	??0QTMSDTMF@QTMS@@IAE@XZ @ 288 NONAME ; QTMS::QTMSDTMF::QTMSDTMF(void)
	?GetLevel@QTMSGlobalVolEffect@QTMS@@QAEHAAI@Z @ 289 NONAME ; int QTMS::QTMSGlobalVolEffect::GetLevel(unsigned int &)
	?GetType@QTMSGlobalVolEffect@QTMS@@UAEHAAH@Z @ 290 NONAME ; int QTMS::QTMSGlobalVolEffect::GetType(int &)
	?getStaticMetaObject@QTMSILBCFormat@QTMS@@SAABUQMetaObject@@XZ @ 291 NONAME ; struct QMetaObject const & QTMS::QTMSILBCFormat::getStaticMetaObject(void)
	??_EQTMSGlobalGainEffect@QTMS@@UAE@I@Z @ 292 NONAME ; QTMS::QTMSGlobalGainEffect::~QTMSGlobalGainEffect(unsigned int)
	?trUtf8@QTMSGlobalVolEffect@QTMS@@SA?AVQString@@PBD0@Z @ 293 NONAME ; class QString QTMS::QTMSGlobalVolEffect::trUtf8(char const *, char const *)
	?qt_metacast@QTMSGlobalGainEffect@QTMS@@UAEPAXPBD@Z @ 294 NONAME ; void * QTMS::QTMSGlobalGainEffect::qt_metacast(char const *)
	??_EQTMSModemSink@QTMS@@UAE@I@Z @ 295 NONAME ; QTMS::QTMSModemSink::~QTMSModemSink(unsigned int)
	??0QTMSModemSink@QTMS@@IAE@XZ @ 296 NONAME ; QTMS::QTMSModemSink::QTMSModemSink(void)
	?tr@QTMSG711Format@QTMS@@SA?AVQString@@PBD0@Z @ 297 NONAME ; class QString QTMS::QTMSG711Format::tr(char const *, char const *)
	?GetState@QTMSStream@QTMS@@QAEHXZ @ 298 NONAME ; int QTMS::QTMSStream::GetState(void)
	?qt_metacall@QTMSG711Format@QTMS@@UAEHW4Call@QMetaObject@@HPAPAX@Z @ 299 NONAME ; int QTMS::QTMSG711Format::qt_metacall(enum QMetaObject::Call, int, void * *)
	?getStaticMetaObject@QTMSClientSink@QTMS@@SAABUQMetaObject@@XZ @ 300 NONAME ; struct QMetaObject const & QTMS::QTMSClientSink::getStaticMetaObject(void)
	?qt_metacast@QTMSInbandTone@QTMS@@UAEPAXPBD@Z @ 301 NONAME ; void * QTMS::QTMSInbandTone::qt_metacast(char const *)
	?getStaticMetaObject@QTMSModemSource@QTMS@@SAABUQMetaObject@@XZ @ 302 NONAME ; struct QMetaObject const & QTMS::QTMSModemSource::getStaticMetaObject(void)
	?metaObject@QTMSGainEffect@QTMS@@UBEPBUQMetaObject@@XZ @ 303 NONAME ; struct QMetaObject const * QTMS::QTMSGainEffect::metaObject(void) const
	??0QTMSGlobalRouting@QTMS@@IAE@XZ @ 304 NONAME ; QTMS::QTMSGlobalRouting::QTMSGlobalRouting(void)
	?metaObject@QTMSClientSource@QTMS@@UBEPBUQMetaObject@@XZ @ 305 NONAME ; struct QMetaObject const * QTMS::QTMSClientSource::metaObject(void) const
	?qt_metacast@QTMSStream@QTMS@@UAEPAXPBD@Z @ 306 NONAME ; void * QTMS::QTMSStream::qt_metacast(char const *)
	?DeleteSink@QTMSFactory@QTMS@@QAEHAAPAVQTMSSink@2@@Z @ 307 NONAME ; int QTMS::QTMSFactory::DeleteSink(class QTMS::QTMSSink * &)
	?getStaticMetaObject@QTMSModemSink@QTMS@@SAABUQMetaObject@@XZ @ 308 NONAME ; struct QMetaObject const & QTMS::QTMSModemSink::getStaticMetaObject(void)
	?tr@QTMSClientSource@QTMS@@SA?AVQString@@PBD0@Z @ 309 NONAME ; class QString QTMS::QTMSClientSource::tr(char const *, char const *)
	?Mute@QTMSRingTone@QTMS@@QAEHXZ @ 310 NONAME ; int QTMS::QTMSRingTone::Mute(void)
	??_EQTMSDTMF@QTMS@@UAE@I@Z @ 311 NONAME ; QTMS::QTMSDTMF::~QTMSDTMF(unsigned int)
	?Start@QTMSStream@QTMS@@QAEHH@Z @ 312 NONAME ; int QTMS::QTMSStream::Start(int)
	?qt_metacall@QTMSStream@QTMS@@UAEHW4Call@QMetaObject@@HPAPAX@Z @ 313 NONAME ; int QTMS::QTMSStream::qt_metacall(enum QMetaObject::Call, int, void * *)
	?tr@QTMSDTMF@QTMS@@SA?AVQString@@PBD0H@Z @ 314 NONAME ; class QString QTMS::QTMSDTMF::tr(char const *, char const *, int)
	?qt_metacast@QTMSGainEffect@QTMS@@UAEPAXPBD@Z @ 315 NONAME ; void * QTMS::QTMSGainEffect::qt_metacast(char const *)
	?GetCallContextId@QTMSCall@QTMS@@QAEHAAI@Z @ 316 NONAME ; int QTMS::QTMSCall::GetCallContextId(unsigned int &)
	?GetCallType@QTMSCall@QTMS@@QAEHXZ @ 317 NONAME ; int QTMS::QTMSCall::GetCallType(void)
	?Start@QTMSDTMF@QTMS@@QAEHXZ @ 318 NONAME ; int QTMS::QTMSDTMF::Start(void)
	?trUtf8@QTMSGlobalGainEffect@QTMS@@SA?AVQString@@PBD0@Z @ 319 NONAME ; class QString QTMS::QTMSGlobalGainEffect::trUtf8(char const *, char const *)
	?SetOutput@QTMSGlobalRouting@QTMS@@QAEHH@Z @ 320 NONAME ; int QTMS::QTMSGlobalRouting::SetOutput(int)
	??0QTMSClientSink@QTMS@@IAE@XZ @ 321 NONAME ; QTMS::QTMSClientSink::QTMSClientSink(void)
	?SetLevel@QTMSGlobalVolEffect@QTMS@@QAEHI@Z @ 322 NONAME ; int QTMS::QTMSGlobalVolEffect::SetLevel(unsigned int)
	?metaObject@QTMSRingTone@QTMS@@UBEPBUQMetaObject@@XZ @ 323 NONAME ; struct QMetaObject const * QTMS::QTMSRingTone::metaObject(void) const
	?ProcessBuffer@QTMSClientSink@QTMS@@IAEXPBVQTMSBuffer@2@@Z @ 324 NONAME ; void QTMS::QTMSClientSink::ProcessBuffer(class QTMS::QTMSBuffer const *)
	?IsCallTypeSupported@QTMSFactory@QTMS@@QAEHHAAH@Z @ 325 NONAME ; int QTMS::QTMSFactory::IsCallTypeSupported(int, int &)
	?qt_metacast@QTMSGlobalVolEffect@QTMS@@UAEPAXPBD@Z @ 326 NONAME ; void * QTMS::QTMSGlobalVolEffect::qt_metacast(char const *)
	?staticMetaObject@QTMSModemSource@QTMS@@2UQMetaObject@@B @ 327 NONAME ; struct QMetaObject const QTMS::QTMSModemSource::staticMetaObject
	?GetStreamId@QTMSStream@QTMS@@QAEHXZ @ 328 NONAME ; int QTMS::QTMSStream::GetStreamId(void)
	??0QTMSG729Format@QTMS@@IAE@XZ @ 329 NONAME ; QTMS::QTMSG729Format::QTMSG729Format(void)
	??_EQTMSGlobalVolEffect@QTMS@@UAE@I@Z @ 330 NONAME ; QTMS::QTMSGlobalVolEffect::~QTMSGlobalVolEffect(unsigned int)
	?getStaticMetaObject@QTMSAMRFormat@QTMS@@SAABUQMetaObject@@XZ @ 331 NONAME ; struct QMetaObject const & QTMS::QTMSAMRFormat::getStaticMetaObject(void)
	?staticMetaObject@QTMSVolumeEffect@QTMS@@2UQMetaObject@@B @ 332 NONAME ; struct QMetaObject const QTMS::QTMSVolumeEffect::staticMetaObject
	??_EQTMSRingTone@QTMS@@UAE@I@Z @ 333 NONAME ; QTMS::QTMSRingTone::~QTMSRingTone(unsigned int)
	??0QTMSFormat@QTMS@@IAE@XZ @ 334 NONAME ; QTMS::QTMSFormat::QTMSFormat(void)
	?GetSupportedFormats@QTMSFactory@QTMS@@QAEHHAAV?$vector@PAVQTMSFormat@QTMS@@V?$allocator@PAVQTMSFormat@QTMS@@@std@@@std@@@Z @ 335 NONAME ; int QTMS::QTMSFactory::GetSupportedFormats(int, class std::vector<class QTMS::QTMSFormat *, class std::allocator<class QTMS::QTMSFormat *> > &)
	?SetVADMode@QTMSG711Format@QTMS@@QAEHH@Z @ 336 NONAME ; int QTMS::QTMSG711Format::SetVADMode(int)
	?getStaticMetaObject@QTMSVolumeEffect@QTMS@@SAABUQMetaObject@@XZ @ 337 NONAME ; struct QMetaObject const & QTMS::QTMSVolumeEffect::getStaticMetaObject(void)
	?qt_metacall@QTMSModemSink@QTMS@@UAEHW4Call@QMetaObject@@HPAPAX@Z @ 338 NONAME ; int QTMS::QTMSModemSink::qt_metacall(enum QMetaObject::Call, int, void * *)
	?trUtf8@QTMSILBCFormat@QTMS@@SA?AVQString@@PBD0H@Z @ 339 NONAME ; class QString QTMS::QTMSILBCFormat::trUtf8(char const *, char const *, int)
	?trUtf8@QTMSDTMF@QTMS@@SA?AVQString@@PBD0@Z @ 340 NONAME ; class QString QTMS::QTMSDTMF::trUtf8(char const *, char const *)
	?tr@QTMSGlobalGainEffect@QTMS@@SA?AVQString@@PBD0@Z @ 341 NONAME ; class QString QTMS::QTMSGlobalGainEffect::tr(char const *, char const *)
	?AddEffect@QTMSStream@QTMS@@QAEHPAVQTMSEffect@2@@Z @ 342 NONAME ; int QTMS::QTMSStream::AddEffect(class QTMS::QTMSEffect *)
	?ResetFormat@QTMSStream@QTMS@@QAEHPAVQTMSFormat@2@@Z @ 343 NONAME ; int QTMS::QTMSStream::ResetFormat(class QTMS::QTMSFormat *)
	?metaObject@QTMSG711Format@QTMS@@UBEPBUQMetaObject@@XZ @ 344 NONAME ; struct QMetaObject const * QTMS::QTMSG711Format::metaObject(void) const
	??1QTMSVolumeEffect@QTMS@@UAE@XZ @ 345 NONAME ; QTMS::QTMSVolumeEffect::~QTMSVolumeEffect(void)
	?EffectsEvent@QTMSGlobalGainEffect@QTMS@@IAEXABVQTMSEffect@2@UQTMSSignalEvent@2@@Z @ 346 NONAME ; void QTMS::QTMSGlobalGainEffect::EffectsEvent(class QTMS::QTMSEffect const &, struct QTMS::QTMSSignalEvent)
	?GetSupportedBitRates@QTMSFormat@QTMS@@QAEHAAV?$vector@IV?$allocator@I@std@@@std@@@Z @ 347 NONAME ; int QTMS::QTMSFormat::GetSupportedBitRates(class std::vector<unsigned int, class std::allocator<unsigned int> > &)
	?staticMetaObject@QTMSCall@QTMS@@2UQMetaObject@@B @ 348 NONAME ; struct QMetaObject const QTMS::QTMSCall::staticMetaObject
	??1QTMSModemSource@QTMS@@UAE@XZ @ 349 NONAME ; QTMS::QTMSModemSource::~QTMSModemSource(void)
	??1QTMSClientSink@QTMS@@UAE@XZ @ 350 NONAME ; QTMS::QTMSClientSink::~QTMSClientSink(void)
	?metaObject@QTMSFactory@QTMS@@UBEPBUQMetaObject@@XZ @ 351 NONAME ; struct QMetaObject const * QTMS::QTMSFactory::metaObject(void) const
	?metaObject@QTMSInbandTone@QTMS@@UBEPBUQMetaObject@@XZ @ 352 NONAME ; struct QMetaObject const * QTMS::QTMSInbandTone::metaObject(void) const
	?trUtf8@QTMSGainEffect@QTMS@@SA?AVQString@@PBD0H@Z @ 353 NONAME ; class QString QTMS::QTMSGainEffect::trUtf8(char const *, char const *, int)
	?trUtf8@QTMSMicSource@QTMS@@SA?AVQString@@PBD0H@Z @ 354 NONAME ; class QString QTMS::QTMSMicSource::trUtf8(char const *, char const *, int)
	?GetMaxLevel@QTMSGlobalVolEffect@QTMS@@QAEHAAI@Z @ 355 NONAME ; int QTMS::QTMSGlobalVolEffect::GetMaxLevel(unsigned int &)
	??_EQTMSVolumeEffect@QTMS@@UAE@I@Z @ 356 NONAME ; QTMS::QTMSVolumeEffect::~QTMSVolumeEffect(unsigned int)
	??1QTMSG729Format@QTMS@@UAE@XZ @ 357 NONAME ; QTMS::QTMSG729Format::~QTMSG729Format(void)
	?tr@QTMSVolumeEffect@QTMS@@SA?AVQString@@PBD0@Z @ 358 NONAME ; class QString QTMS::QTMSVolumeEffect::tr(char const *, char const *)
	?GetType@QTMSMicSource@QTMS@@UAEHAAH@Z @ 359 NONAME ; int QTMS::QTMSMicSource::GetType(int &)
	?CreateEffect@QTMSFactory@QTMS@@QAEHHAAPAVQTMSEffect@2@@Z @ 360 NONAME ; int QTMS::QTMSFactory::CreateEffect(int, class QTMS::QTMSEffect * &)
	?getStaticMetaObject@QTMSCall@QTMS@@SAABUQMetaObject@@XZ @ 361 NONAME ; struct QMetaObject const & QTMS::QTMSCall::getStaticMetaObject(void)
	?metaObject@QTMSGlobalGainEffect@QTMS@@UBEPBUQMetaObject@@XZ @ 362 NONAME ; struct QMetaObject const * QTMS::QTMSGlobalGainEffect::metaObject(void) const
	?GetOutput@QTMSGlobalRouting@QTMS@@QAEHAAH@Z @ 363 NONAME ; int QTMS::QTMSGlobalRouting::GetOutput(int &)
	?tr@QTMSPCMFormat@QTMS@@SA?AVQString@@PBD0@Z @ 364 NONAME ; class QString QTMS::QTMSPCMFormat::tr(char const *, char const *)
	?CreateBuffer@QTMSFactory@QTMS@@QAEHHIAAPAVQTMSBuffer@2@@Z @ 365 NONAME ; int QTMS::QTMSFactory::CreateBuffer(int, unsigned int, class QTMS::QTMSBuffer * &)
	?trUtf8@QTMSPCMFormat@QTMS@@SA?AVQString@@PBD0H@Z @ 366 NONAME ; class QString QTMS::QTMSPCMFormat::trUtf8(char const *, char const *, int)
	?qt_metacast@QTMSMicSource@QTMS@@UAEPAXPBD@Z @ 367 NONAME ; void * QTMS::QTMSMicSource::qt_metacast(char const *)
	??0QTMSRingTone@QTMS@@IAE@XZ @ 368 NONAME ; QTMS::QTMSRingTone::QTMSRingTone(void)
	?trUtf8@QTMSG729Format@QTMS@@SA?AVQString@@PBD0@Z @ 369 NONAME ; class QString QTMS::QTMSG729Format::trUtf8(char const *, char const *)
	?trUtf8@QTMSRingTone@QTMS@@SA?AVQString@@PBD0H@Z @ 370 NONAME ; class QString QTMS::QTMSRingTone::trUtf8(char const *, char const *, int)
	?qt_metacall@QTMSAMRFormat@QTMS@@UAEHW4Call@QMetaObject@@HPAPAX@Z @ 371 NONAME ; int QTMS::QTMSAMRFormat::qt_metacall(enum QMetaObject::Call, int, void * *)
	??0QTMSInbandTone@QTMS@@IAE@XZ @ 372 NONAME ; QTMS::QTMSInbandTone::QTMSInbandTone(void)
	?RemoveEffect@QTMSStream@QTMS@@QAEHPAVQTMSEffect@2@@Z @ 373 NONAME ; int QTMS::QTMSStream::RemoveEffect(class QTMS::QTMSEffect *)
	?SetBitRate@QTMSFormat@QTMS@@QAEHI@Z @ 374 NONAME ; int QTMS::QTMSFormat::SetBitRate(unsigned int)
	?Stop@QTMSStream@QTMS@@QAEHXZ @ 375 NONAME ; int QTMS::QTMSStream::Stop(void)
	?trUtf8@QTMSCall@QTMS@@SA?AVQString@@PBD0H@Z @ 376 NONAME ; class QString QTMS::QTMSCall::trUtf8(char const *, char const *, int)
	??_EQTMSILBCFormat@QTMS@@UAE@I@Z @ 377 NONAME ; QTMS::QTMSILBCFormat::~QTMSILBCFormat(unsigned int)
	?qt_metacall@QTMSFactory@QTMS@@UAEHW4Call@QMetaObject@@HPAPAX@Z @ 378 NONAME ; int QTMS::QTMSFactory::qt_metacall(enum QMetaObject::Call, int, void * *)
	?staticMetaObject@QTMSStream@QTMS@@2UQMetaObject@@B @ 379 NONAME ; struct QMetaObject const QTMS::QTMSStream::staticMetaObject
	??0QTMSPCMFormat@QTMS@@IAE@XZ @ 380 NONAME ; QTMS::QTMSPCMFormat::QTMSPCMFormat(void)
	?tr@QTMSMicSource@QTMS@@SA?AVQString@@PBD0H@Z @ 381 NONAME ; class QString QTMS::QTMSMicSource::tr(char const *, char const *, int)
	?SetLevel@QTMSGainEffect@QTMS@@QAEHI@Z @ 382 NONAME ; int QTMS::QTMSGainEffect::SetLevel(unsigned int)
	?Pause@QTMSStream@QTMS@@QAEHXZ @ 383 NONAME ; int QTMS::QTMSStream::Pause(void)
	?Deinit@QTMSStream@QTMS@@QAEXXZ @ 384 NONAME ; void QTMS::QTMSStream::Deinit(void)
	?metaObject@QTMSDTMF@QTMS@@UBEPBUQMetaObject@@XZ @ 385 NONAME ; struct QMetaObject const * QTMS::QTMSDTMF::metaObject(void) const
	?GetMaxLevel@QTMSGainEffect@QTMS@@QAEHAAI@Z @ 386 NONAME ; int QTMS::QTMSGainEffect::GetMaxLevel(unsigned int &)

