EXPORTS
	_ZN3TMS11TMSCallImpl6CreateEiRPNS_7TMSCallEj @ 1 NONAME
	_ZN3TMS11TMSCallImpl6DeleteERPNS_7TMSCallE @ 2 NONAME
	_ZN3TMS11TMSDTMFImpl6CreateEiRPNS_7TMSDTMFE @ 3 NONAME
	_ZN3TMS11TMSDTMFImpl6DeleteERPNS_7TMSDTMFE @ 4 NONAME
	_ZN3TMS11TMSSinkImpl6CreateEiRPNS_7TMSSinkE @ 5 NONAME
	_ZN3TMS11TMSSinkImpl6DeleteERPNS_7TMSSinkE @ 6 NONAME
	_ZN3TMS13TMSBufferImpl6CreateEijRPNS_9TMSBufferE @ 7 NONAME
	_ZN3TMS13TMSBufferImpl6DeleteERPNS_9TMSBufferE @ 8 NONAME
	_ZN3TMS13TMSEffectImpl6CreateEiRPNS_9TMSEffectE @ 9 NONAME
	_ZN3TMS13TMSEffectImpl6DeleteERPNS_9TMSEffectE @ 10 NONAME
	_ZN3TMS13TMSFormatImpl6CreateEiRPNS_9TMSFormatE @ 11 NONAME
	_ZN3TMS13TMSFormatImpl6DeleteERPNS_9TMSFormatE @ 12 NONAME
	_ZN3TMS13TMSSourceImpl6CreateEiRPNS_9TMSSourceE @ 13 NONAME
	_ZN3TMS13TMSSourceImpl6DeleteERPNS_9TMSSourceE @ 14 NONAME
	_ZN3TMS15TMSRingToneImpl6CreateERPNS_11TMSRingToneE @ 15 NONAME
	_ZN3TMS15TMSRingToneImpl6CreateERPNS_11TMSRingToneER7RWindowi @ 16 NONAME
	_ZN3TMS15TMSRingToneImpl6DeleteERPNS_11TMSRingToneE @ 17 NONAME
	_ZN3TMS17TMSInbandToneImpl6CreateERPNS_13TMSInbandToneE @ 18 NONAME
	_ZN3TMS17TMSInbandToneImpl6DeleteERPNS_13TMSInbandToneE @ 19 NONAME
	_ZN3TMS20TMSGlobalRoutingImpl6CreateERPNS_16TMSGlobalRoutingE @ 20 NONAME
	_ZN3TMS20TMSGlobalRoutingImpl6DeleteERPNS_16TMSGlobalRoutingE @ 21 NONAME
	_ZTIN3TMS11TMSCallImplE @ 22 NONAME
	_ZTIN3TMS11TMSDTMFImplE @ 23 NONAME
	_ZTIN3TMS12TMSMemBufferE @ 24 NONAME
	_ZTIN3TMS13TMSStreamImplE @ 25 NONAME
	_ZTIN3TMS15TMSDTMFBodyImplE @ 26 NONAME
	_ZTIN3TMS15TMSRingToneImplE @ 27 NONAME
	_ZTIN3TMS16TMSAMRFormatImplE @ 28 NONAME
	_ZTIN3TMS16TMSMicSourceImplE @ 29 NONAME
	_ZTIN3TMS16TMSModemSinkImplE @ 30 NONAME
	_ZTIN3TMS16TMSPCMFormatImplE @ 31 NONAME
	_ZTIN3TMS17TMSCSCallBodyImplE @ 32 NONAME
	_ZTIN3TMS17TMSClientSinkImplE @ 33 NONAME
	_ZTIN3TMS17TMSFormatBodyImplE @ 34 NONAME
	_ZTIN3TMS17TMSG711FormatImplE @ 35 NONAME
	_ZTIN3TMS17TMSG729FormatImplE @ 36 NONAME
	_ZTIN3TMS17TMSGainEffectImplE @ 37 NONAME
	_ZTIN3TMS17TMSILBCFormatImplE @ 38 NONAME
	_ZTIN3TMS17TMSIPCallBodyImplE @ 39 NONAME
	_ZTIN3TMS17TMSInbandToneImplE @ 40 NONAME
	_ZTIN3TMS17TMSStreamBodyImplE @ 41 NONAME
	_ZTIN3TMS18TMSModemSourceImplE @ 42 NONAME
	_ZTIN3TMS18TMSSpeakerSinkImplE @ 43 NONAME
	_ZTIN3TMS19TMSClientSourceImplE @ 44 NONAME
	_ZTIN3TMS19TMSRingToneBodyImplE @ 45 NONAME
	_ZTIN3TMS19TMSVolumeEffectImplE @ 46 NONAME
	_ZTIN3TMS20TMSAMRFormatBodyImplE @ 47 NONAME
	_ZTIN3TMS20TMSGlobalRoutingImplE @ 48 NONAME
	_ZTIN3TMS20TMSMicSourceBodyImplE @ 49 NONAME
	_ZTIN3TMS20TMSModemSinkBodyImplE @ 50 NONAME
	_ZTIN3TMS20TMSPCMFormatBodyImplE @ 51 NONAME
	_ZTIN3TMS21TMSClientSinkBodyImplE @ 52 NONAME
	_ZTIN3TMS21TMSG711FormatBodyImplE @ 53 NONAME
	_ZTIN3TMS21TMSG729FormatBodyImplE @ 54 NONAME
	_ZTIN3TMS21TMSGainEffectBodyImplE @ 55 NONAME
	_ZTIN3TMS21TMSILBCFormatBodyImplE @ 56 NONAME
	_ZTIN3TMS21TMSInbandToneBodyImplE @ 57 NONAME
	_ZTIN3TMS22TMSGlobalVolEffectImplE @ 58 NONAME
	_ZTIN3TMS22TMSModemSourceBodyImplE @ 59 NONAME
	_ZTIN3TMS22TMSSpeakerSinkBodyImplE @ 60 NONAME
	_ZTIN3TMS23TMSClientSourceBodyImplE @ 61 NONAME
	_ZTIN3TMS23TMSGlobalGainEffectImplE @ 62 NONAME
	_ZTIN3TMS23TMSVolumeEffectBodyImplE @ 63 NONAME
	_ZTIN3TMS24TMSGlobalRoutingBodyImplE @ 64 NONAME
	_ZTIN3TMS26TMSGlobalVolEffectBodyImplE @ 65 NONAME
	_ZTIN3TMS27TMSGlobalGainEffectBodyImplE @ 66 NONAME
	_ZTVN3TMS11TMSCallImplE @ 67 NONAME
	_ZTVN3TMS11TMSDTMFImplE @ 68 NONAME
	_ZTVN3TMS12TMSMemBufferE @ 69 NONAME
	_ZTVN3TMS13TMSStreamImplE @ 70 NONAME
	_ZTVN3TMS15TMSDTMFBodyImplE @ 71 NONAME
	_ZTVN3TMS15TMSRingToneImplE @ 72 NONAME
	_ZTVN3TMS16TMSAMRFormatImplE @ 73 NONAME
	_ZTVN3TMS16TMSMicSourceImplE @ 74 NONAME
	_ZTVN3TMS16TMSModemSinkImplE @ 75 NONAME
	_ZTVN3TMS16TMSPCMFormatImplE @ 76 NONAME
	_ZTVN3TMS17TMSCSCallBodyImplE @ 77 NONAME
	_ZTVN3TMS17TMSClientSinkImplE @ 78 NONAME
	_ZTVN3TMS17TMSFormatBodyImplE @ 79 NONAME
	_ZTVN3TMS17TMSG711FormatImplE @ 80 NONAME
	_ZTVN3TMS17TMSG729FormatImplE @ 81 NONAME
	_ZTVN3TMS17TMSGainEffectImplE @ 82 NONAME
	_ZTVN3TMS17TMSILBCFormatImplE @ 83 NONAME
	_ZTVN3TMS17TMSIPCallBodyImplE @ 84 NONAME
	_ZTVN3TMS17TMSInbandToneImplE @ 85 NONAME
	_ZTVN3TMS17TMSStreamBodyImplE @ 86 NONAME
	_ZTVN3TMS18TMSModemSourceImplE @ 87 NONAME
	_ZTVN3TMS18TMSSpeakerSinkImplE @ 88 NONAME
	_ZTVN3TMS19TMSClientSourceImplE @ 89 NONAME
	_ZTVN3TMS19TMSRingToneBodyImplE @ 90 NONAME
	_ZTVN3TMS19TMSVolumeEffectImplE @ 91 NONAME
	_ZTVN3TMS20TMSAMRFormatBodyImplE @ 92 NONAME
	_ZTVN3TMS20TMSGlobalRoutingImplE @ 93 NONAME
	_ZTVN3TMS20TMSMicSourceBodyImplE @ 94 NONAME
	_ZTVN3TMS20TMSModemSinkBodyImplE @ 95 NONAME
	_ZTVN3TMS20TMSPCMFormatBodyImplE @ 96 NONAME
	_ZTVN3TMS21TMSClientSinkBodyImplE @ 97 NONAME
	_ZTVN3TMS21TMSG711FormatBodyImplE @ 98 NONAME
	_ZTVN3TMS21TMSG729FormatBodyImplE @ 99 NONAME
	_ZTVN3TMS21TMSGainEffectBodyImplE @ 100 NONAME
	_ZTVN3TMS21TMSILBCFormatBodyImplE @ 101 NONAME
	_ZTVN3TMS21TMSInbandToneBodyImplE @ 102 NONAME
	_ZTVN3TMS22TMSGlobalVolEffectImplE @ 103 NONAME
	_ZTVN3TMS22TMSModemSourceBodyImplE @ 104 NONAME
	_ZTVN3TMS22TMSSpeakerSinkBodyImplE @ 105 NONAME
	_ZTVN3TMS23TMSClientSourceBodyImplE @ 106 NONAME
	_ZTVN3TMS23TMSGlobalGainEffectImplE @ 107 NONAME
	_ZTVN3TMS23TMSVolumeEffectBodyImplE @ 108 NONAME
	_ZTVN3TMS24TMSGlobalRoutingBodyImplE @ 109 NONAME
	_ZTVN3TMS26TMSGlobalVolEffectBodyImplE @ 110 NONAME
	_ZTVN3TMS27TMSGlobalGainEffectBodyImplE @ 111 NONAME

