EXPORTS
	_ZN21CAdvancedAudioDecoder10ProcessHwLER10CMMFBufferS1_ @ 1 NONAME
	_ZN21CAdvancedAudioDecoder10ResetTableEv @ 2 NONAME
	_ZN21CAdvancedAudioDecoder10SetConfigLEjjjjRK6RArrayIiEi @ 3 NONAME
	_ZN21CAdvancedAudioDecoder11CodecConfigER6RArrayIiE @ 4 NONAME
	_ZN21CAdvancedAudioDecoder11FillBufferLEP10CMMFBuffer @ 5 NONAME
	_ZN21CAdvancedAudioDecoder11MarkPlayEndEv @ 6 NONAME
	_ZN21CAdvancedAudioDecoder11SetDevSoundER12CMMFDevSound @ 7 NONAME
	_ZN21CAdvancedAudioDecoder11SetObserverER29MAdvancedAudioDecoderObserver @ 8 NONAME
	_ZN21CAdvancedAudioDecoder12LastFramePosERj @ 9 NONAME
	_ZN21CAdvancedAudioDecoder12RenderEnableEv @ 10 NONAME
	_ZN21CAdvancedAudioDecoder12SeekToTimeMsEj @ 11 NONAME
	_ZN21CAdvancedAudioDecoder13LastFrameTimeERj @ 12 NONAME
	_ZN21CAdvancedAudioDecoder13ProcessParseLEP8TMMFPtr8S1_ @ 13 NONAME
	_ZN21CAdvancedAudioDecoder13RenderDisableEv @ 14 NONAME
	_ZN21CAdvancedAudioDecoder13UnMarkPlayEndEv @ 15 NONAME
	_ZN21CAdvancedAudioDecoder14PrepareInFrameEPhiRi @ 16 NONAME
	_ZN21CAdvancedAudioDecoder15IsHwAcceleratedEv @ 17 NONAME
	_ZN21CAdvancedAudioDecoder15QueueThisBufferEj @ 18 NONAME
	_ZN21CAdvancedAudioDecoder16SetSourceBuffersEP13RPointerArrayI14CMMFDataBufferE @ 19 NONAME
	_ZN21CAdvancedAudioDecoder17HandleFillBufferLEv @ 20 NONAME
	_ZN21CAdvancedAudioDecoder18SetSourceReferenceEjj @ 21 NONAME
	_ZN21CAdvancedAudioDecoder20FindFramePosFromTimeERjS0_ @ 22 NONAME
	_ZN21CAdvancedAudioDecoder20FindFrameTimeFromPosERjS0_ @ 23 NONAME
	_ZN21CAdvancedAudioDecoder21HandleFrameTableEventEN11CFrameTable16TFrameTableEventE @ 24 NONAME
	_ZN21CAdvancedAudioDecoder22SetPlayWindowEndTimeMsEj @ 25 NONAME
	_ZN21CAdvancedAudioDecoder25EnableDecodeIntervalEventEij @ 26 NONAME
	_ZN21CAdvancedAudioDecoder25SetDecoderUtilityObserverER36MAdvancedAudioDecoderUtilityObserver @ 27 NONAME
	_ZN21CAdvancedAudioDecoder4RunLEv @ 28 NONAME
	_ZN21CAdvancedAudioDecoder4StopEv @ 29 NONAME
	_ZN21CAdvancedAudioDecoder6EnableEv @ 30 NONAME
	_ZN21CAdvancedAudioDecoder6ParseLEPhRiS0_S1_ @ 31 NONAME
	_ZN21CAdvancedAudioDecoder6ResetLEv @ 32 NONAME
	_ZN21CAdvancedAudioDecoder7BitRateEv @ 33 NONAME
	_ZN21CAdvancedAudioDecoder7DisableEv @ 34 NONAME
	_ZN21CAdvancedAudioDecoder8CodecCmdENS_9TCodecCmdE @ 35 NONAME
	_ZN21CAdvancedAudioDecoder8DoCancelEv @ 36 NONAME
	_ZN21CAdvancedAudioDecoder8ProcessLER10CMMFBufferS1_ @ 37 NONAME
	_ZN21CAdvancedAudioDecoderC1Ei @ 38 NONAME
	_ZN21CAdvancedAudioDecoderC2Ei @ 39 NONAME
	_ZN21CAdvancedAudioDecoderD0Ev @ 40 NONAME
	_ZN21CAdvancedAudioDecoderD1Ev @ 41 NONAME
	_ZN21CAdvancedAudioDecoderD2Ev @ 42 NONAME
	_ZN21CAdvancedAudioEncoder11EmptyBufferEP10CMMFBuffer @ 43 NONAME
	_ZN21CAdvancedAudioEncoder11SetDevSoundER12CMMFDevSound @ 44 NONAME
	_ZN21CAdvancedAudioEncoder11SetObserverER29MAdvancedAudioEncoderObserver @ 45 NONAME
	_ZN21CAdvancedAudioEncoder14SetSinkBuffersEP13RPointerArrayI14CMMFDataBufferE @ 46 NONAME
	_ZN21CAdvancedAudioEncoder17NextSharedBufferLEv @ 47 NONAME
	_ZN21CAdvancedAudioEncoder4RunLEv @ 48 NONAME
	_ZN21CAdvancedAudioEncoder4StopEv @ 49 NONAME
	_ZN21CAdvancedAudioEncoder5ReadyEi @ 50 NONAME
	_ZN21CAdvancedAudioEncoder8DoCancelEv @ 51 NONAME
	_ZN21CAdvancedAudioEncoderC2Ei @ 52 NONAME
	_ZN21CAdvancedAudioEncoderD0Ev @ 53 NONAME
	_ZN21CAdvancedAudioEncoderD1Ev @ 54 NONAME
	_ZN21CAdvancedAudioEncoderD2Ev @ 55 NONAME
	_ZN21CAdvancedAudioUtility10GetOffsetsERi @ 56 NONAME
	_ZN21CAdvancedAudioUtility10ResetTableEv @ 57 NONAME
	_ZN21CAdvancedAudioUtility10SampleRateEv @ 58 NONAME
	_ZN21CAdvancedAudioUtility10SetDecoderER21CAdvancedAudioDecoder @ 59 NONAME
	_ZN21CAdvancedAudioUtility10SyncOffsetEv @ 60 NONAME
	_ZN21CAdvancedAudioUtility11ChannelsOutEv @ 61 NONAME
	_ZN21CAdvancedAudioUtility11ScanFramesLEP14CMMFDataBufferii @ 62 NONAME
	_ZN21CAdvancedAudioUtility11ScanFramesLEP8CMMFClipP14CMMFDataBufferii @ 63 NONAME
	_ZN21CAdvancedAudioUtility11ScanHeaderLEP14CMMFDataBuffer @ 64 NONAME
	_ZN21CAdvancedAudioUtility11SetObserverER29MAdvancedAudioUtilityObserver @ 65 NONAME
	_ZN21CAdvancedAudioUtility12FindFramePosERKxP8CMMFClip @ 66 NONAME
	_ZN21CAdvancedAudioUtility12HeaderOffsetEv @ 67 NONAME
	_ZN21CAdvancedAudioUtility12LastFramePosERj @ 68 NONAME
	_ZN21CAdvancedAudioUtility12ScanDurationEv @ 69 NONAME
	_ZN21CAdvancedAudioUtility12SeekToTimeMsEj @ 70 NONAME
	_ZN21CAdvancedAudioUtility12SetClipSizeLEj @ 71 NONAME
	_ZN21CAdvancedAudioUtility13LastFrameTimeERj @ 72 NONAME
	_ZN21CAdvancedAudioUtility14GetDriveNumberERK7TDesC16 @ 73 NONAME
	_ZN21CAdvancedAudioUtility15FrameHeaderSizeEv @ 74 NONAME
	_ZN21CAdvancedAudioUtility15ID3HeaderLengthEPK14CMMFDataBuffer @ 75 NONAME
	_ZN21CAdvancedAudioUtility16RecordTimeStampLEi @ 76 NONAME
	_ZN21CAdvancedAudioUtility18DeReferenceDecoderEv @ 77 NONAME
	_ZN21CAdvancedAudioUtility18SetCodecConfigDataER6RArrayIiE @ 78 NONAME
	_ZN21CAdvancedAudioUtility18SetSourceReferenceEjj @ 79 NONAME
	_ZN21CAdvancedAudioUtility19DecodeIntervalEventEv @ 80 NONAME
	_ZN21CAdvancedAudioUtility19SeekPositionReachedEj @ 81 NONAME
	_ZN21CAdvancedAudioUtility20CreateBufferOfSizeLCEj @ 82 NONAME
	_ZN21CAdvancedAudioUtility20FindFramePosFromTimeERjS0_ @ 83 NONAME
	_ZN21CAdvancedAudioUtility20FindFrameTimeFromPosERjS0_ @ 84 NONAME
	_ZN21CAdvancedAudioUtility22SetPlayWindowEndTimeMsEj @ 85 NONAME
	_ZN21CAdvancedAudioUtility26EnableBitRateChangedEventLEi @ 86 NONAME
	_ZN21CAdvancedAudioUtility28PlayWindowEndPositionReachedEv @ 87 NONAME
	_ZN21CAdvancedAudioUtility7BitRateEv @ 88 NONAME
	_ZN21CAdvancedAudioUtility8ChannelsEv @ 89 NONAME
	_ZN21CAdvancedAudioUtility8DurationEv @ 90 NONAME
	_ZN21CAdvancedAudioUtility9FrameInfoEPKhiR15TAudioFrameInfo @ 91 NONAME
	_ZN21CAdvancedAudioUtilityC2Ev @ 92 NONAME
	_ZN21CAdvancedAudioUtilityD0Ev @ 93 NONAME
	_ZN21CAdvancedAudioUtilityD1Ev @ 94 NONAME
	_ZN21CAdvancedAudioUtilityD2Ev @ 95 NONAME
	_ZN22CAdvancedAudioResource11PropertiesLEv @ 96 NONAME
	_ZN22CAdvancedAudioResource17ReadResourceFileLERK7TDesC16i @ 97 NONAME
	_ZN22CAdvancedAudioResource22CodecConfigParametersLEv @ 98 NONAME
	_ZN22CAdvancedAudioResourceC2Ev @ 99 NONAME
	_ZN22CAdvancedAudioResourceD0Ev @ 100 NONAME
	_ZN22CAdvancedAudioResourceD1Ev @ 101 NONAME
	_ZN22CAdvancedAudioResourceD2Ev @ 102 NONAME
	_ZN24CAdvancedAudioController11FillBufferLEP10CMMFBufferP9MDataSink8TMediaId @ 103 NONAME
	_ZN24CAdvancedAudioController12AddDataSinkLER9MDataSink @ 104 NONAME
	_ZN24CAdvancedAudioController12EmptyBufferLEP10CMMFBufferP11MDataSource8TMediaId @ 105 NONAME
	_ZN24CAdvancedAudioController12MacSetCodecLE7TFourCCS0_ @ 106 NONAME
	_ZN24CAdvancedAudioController12SetPositionLERK25TTimeIntervalMicroSeconds @ 107 NONAME
	_ZN24CAdvancedAudioController13BufferFilledLEP10CMMFBuffer @ 108 NONAME
	_ZN24CAdvancedAudioController14AddDataSourceLER11MDataSource @ 109 NONAME
	_ZN24CAdvancedAudioController14BufferEmptiedLEP10CMMFBuffer @ 110 NONAME
	_ZN24CAdvancedAudioController14ConstructSinkLERK6TDesC8 @ 111 NONAME
	_ZN24CAdvancedAudioController15RemoveDataSinkLER9MDataSink @ 112 NONAME
	_ZN24CAdvancedAudioController16ConstructSourceLERK6TDesC8 @ 113 NONAME
	_ZN24CAdvancedAudioController16SinkDataTypeCodeE8TMediaId @ 114 NONAME
	_ZN24CAdvancedAudioController17CreateSinkBufferLE8TMediaIdRi @ 115 NONAME
	_ZN24CAdvancedAudioController17GetMetaDataEntryLEi @ 116 NONAME
	_ZN24CAdvancedAudioController17MacGetSinkFormatLER4TUid @ 117 NONAME
	_ZN24CAdvancedAudioController17MacSetSinkFormatLE4TUid @ 118 NONAME
	_ZN24CAdvancedAudioController17RemoveDataSourceLER11MDataSource @ 119 NONAME
	_ZN24CAdvancedAudioController17SendEventToClientERK9TMMFEvent @ 120 NONAME
	_ZN24CAdvancedAudioController18MacGetSinkBitRateLERj @ 121 NONAME
	_ZN24CAdvancedAudioController18MacSetSinkBitRateLEj @ 122 NONAME
	_ZN24CAdvancedAudioController18SourceDataTypeCodeE8TMediaId @ 123 NONAME
	_ZN24CAdvancedAudioController19CanCreateSinkBufferEv @ 124 NONAME
	_ZN24CAdvancedAudioController19CreateSourceBufferLE8TMediaIdRi @ 125 NONAME
	_ZN24CAdvancedAudioController19MacGetSinkDataTypeLER7TFourCC @ 126 NONAME
	_ZN24CAdvancedAudioController19MacGetSourceFormatLER4TUid @ 127 NONAME
	_ZN24CAdvancedAudioController19MacSetSinkDataTypeLE7TFourCC @ 128 NONAME
	_ZN24CAdvancedAudioController19MacSetSourceFormatLE4TUid @ 129 NONAME
	_ZN24CAdvancedAudioController19ResetSharedBuffersLEii @ 130 NONAME
	_ZN24CAdvancedAudioController19SetPrioritySettingsERK20TMMFPrioritySettings @ 131 NONAME
	_ZN24CAdvancedAudioController20MacGetSourceBitRateLERj @ 132 NONAME
	_ZN24CAdvancedAudioController20MacSetSourceBitRateLEj @ 133 NONAME
	_ZN24CAdvancedAudioController21CanCreateSourceBufferEv @ 134 NONAME
	_ZN24CAdvancedAudioController21MacGetSinkSampleRateLERj @ 135 NONAME
	_ZN24CAdvancedAudioController21MacGetSourceDataTypeLER7TFourCC @ 136 NONAME
	_ZN24CAdvancedAudioController21MacSetSinkSampleRateLEj @ 137 NONAME
	_ZN24CAdvancedAudioController21MacSetSourceDataTypeLE7TFourCC @ 138 NONAME
	_ZN24CAdvancedAudioController22MacGetSinkNumChannelsLERj @ 139 NONAME
	_ZN24CAdvancedAudioController22MacSetSinkNumChannelsLEj @ 140 NONAME
	_ZN24CAdvancedAudioController23MacGetSourceSampleRateLERj @ 141 NONAME
	_ZN24CAdvancedAudioController23MacSetSourceSampleRateLEj @ 142 NONAME
	_ZN24CAdvancedAudioController24MacGetSourceNumChannelsLERj @ 143 NONAME
	_ZN24CAdvancedAudioController24MacSetSourceNumChannelsLEj @ 144 NONAME
	_ZN24CAdvancedAudioController26CreateSourceBufferOfSizeLCEj @ 145 NONAME
	_ZN24CAdvancedAudioController26GetCustomInterfaceBuilderLEv @ 146 NONAME
	_ZN24CAdvancedAudioController27GetNumberOfMetaDataEntriesLERi @ 147 NONAME
	_ZN24CAdvancedAudioController28MacGetSupportedSinkBitRatesLER6RArrayIjE @ 148 NONAME
	_ZN24CAdvancedAudioController29MacGetSupportedSinkDataTypesLER6RArrayI7TFourCCE @ 149 NONAME
	_ZN24CAdvancedAudioController30MacGetSupportedSourceBitRatesLER6RArrayIjE @ 150 NONAME
	_ZN24CAdvancedAudioController31MacGetSupportedSinkNumChannelsLER6RArrayIjE @ 151 NONAME
	_ZN24CAdvancedAudioController31MacGetSupportedSinkSampleRatesLER6RArrayIjE @ 152 NONAME
	_ZN24CAdvancedAudioController31MacGetSupportedSourceDataTypesLER6RArrayI7TFourCCE @ 153 NONAME
	_ZN24CAdvancedAudioController33MacGetSupportedSourceNumChannelsLER6RArrayIjE @ 154 NONAME
	_ZN24CAdvancedAudioController33MacGetSupportedSourceSampleRatesLER6RArrayIjE @ 155 NONAME
	_ZN24CAdvancedAudioController5PanicEi @ 156 NONAME
	_ZN24CAdvancedAudioController5PlayLEv @ 157 NONAME
	_ZN24CAdvancedAudioController5StopLEv @ 158 NONAME
	_ZN24CAdvancedAudioController6PauseLEv @ 159 NONAME
	_ZN24CAdvancedAudioController6PrimeLEv @ 160 NONAME
	_ZN24CAdvancedAudioController6ResetLEv @ 161 NONAME
	_ZN24CAdvancedAudioControllerC1Ev @ 162 NONAME
	_ZN24CAdvancedAudioControllerC2Ev @ 163 NONAME
	_ZN24CAdvancedAudioControllerD0Ev @ 164 NONAME
	_ZN24CAdvancedAudioControllerD1Ev @ 165 NONAME
	_ZN24CAdvancedAudioControllerD2Ev @ 166 NONAME
	_ZN28CAdvancedAudioPlayController10ConstructLEv @ 167 NONAME
	_ZN28CAdvancedAudioPlayController10GetBitRateERj @ 168 NONAME
	_ZN28CAdvancedAudioPlayController12AddDataSinkLER9MDataSink @ 169 NONAME
	_ZN28CAdvancedAudioPlayController12BufferFilledEP10CMMFBuffer @ 170 NONAME
	_ZN28CAdvancedAudioPlayController12RefillBufferEP10CMMFBuffer @ 171 NONAME
	_ZN28CAdvancedAudioPlayController12SetPositionLERK25TTimeIntervalMicroSeconds @ 172 NONAME
	_ZN28CAdvancedAudioPlayController13BufferFilledLEP10CMMFBuffer @ 173 NONAME
	_ZN28CAdvancedAudioPlayController13DoReadHeaderLEP14CMMFDataBuffer @ 174 NONAME
	_ZN28CAdvancedAudioPlayController13UpdateBitRateEv @ 175 NONAME
	_ZN28CAdvancedAudioPlayController14AddDataSourceLER11MDataSource @ 176 NONAME
	_ZN28CAdvancedAudioPlayController14BitRateChangedEv @ 177 NONAME
	_ZN28CAdvancedAudioPlayController14DoSetPositionLERK25TTimeIntervalMicroSeconds @ 178 NONAME
	_ZN28CAdvancedAudioPlayController14LastBufferSentEv @ 179 NONAME
	_ZN28CAdvancedAudioPlayController14MapcSetRepeatsEiRK25TTimeIntervalMicroSeconds @ 180 NONAME
	_ZN28CAdvancedAudioPlayController14MapdGetVolumeLERi @ 181 NONAME
	_ZN28CAdvancedAudioPlayController14MapdSetVolumeLEi @ 182 NONAME
	_ZN28CAdvancedAudioPlayController14UpdateDurationEi @ 183 NONAME
	_ZN28CAdvancedAudioPlayController15MapdGetBalanceLERi @ 184 NONAME
	_ZN28CAdvancedAudioPlayController15MapdSetBalanceLEi @ 185 NONAME
	_ZN28CAdvancedAudioPlayController15MscEnableEventsEi @ 186 NONAME
	_ZN28CAdvancedAudioPlayController15RemoveDataSinkLER9MDataSink @ 187 NONAME
	_ZN28CAdvancedAudioPlayController15SourceSinkStopLEv @ 188 NONAME
	_ZN28CAdvancedAudioPlayController16MdcExecuteIntentEN13ContentAccess7TIntentE @ 189 NONAME
	_ZN28CAdvancedAudioPlayController16PlaybackCompleteEv @ 190 NONAME
	_ZN28CAdvancedAudioPlayController17DoInitializeSinkLEv @ 191 NONAME
	_ZN28CAdvancedAudioPlayController17FillSharedBufferLEP10CMMFBuffer @ 192 NONAME
	_ZN28CAdvancedAudioPlayController17FindBufferFromPosEj @ 193 NONAME
	_ZN28CAdvancedAudioPlayController17GetMetaDataEntryLEi @ 194 NONAME
	_ZN28CAdvancedAudioPlayController17MacGetSinkFormatLER4TUid @ 195 NONAME
	_ZN28CAdvancedAudioPlayController17MacSetSinkFormatLE4TUid @ 196 NONAME
	_ZN28CAdvancedAudioPlayController17MapdGetMaxVolumeLERi @ 197 NONAME
	_ZN28CAdvancedAudioPlayController17MdcEvaluateIntentEN13ContentAccess7TIntentE @ 198 NONAME
	_ZN28CAdvancedAudioPlayController17RemoveDataSourceLER11MDataSource @ 199 NONAME
	_ZN28CAdvancedAudioPlayController17SendEventToClientERK9TMMFEvent @ 200 NONAME
	_ZN28CAdvancedAudioPlayController18GetCodecConfigDataER6RArrayIiE @ 201 NONAME
	_ZN28CAdvancedAudioPlayController18HandleGeneralEventERK9TMMFEvent @ 202 NONAME
	_ZN28CAdvancedAudioPlayController18InitSharedBuffersLEv @ 203 NONAME
	_ZN28CAdvancedAudioPlayController18MacGetSinkBitRateLERj @ 204 NONAME
	_ZN28CAdvancedAudioPlayController18MacSetSinkBitRateLEj @ 205 NONAME
	_ZN28CAdvancedAudioPlayController18MapdSetVolumeRampLERK25TTimeIntervalMicroSeconds @ 206 NONAME
	_ZN28CAdvancedAudioPlayController19MacGetSinkDataTypeLER7TFourCC @ 207 NONAME
	_ZN28CAdvancedAudioPlayController19MacGetSourceFormatLER4TUid @ 208 NONAME
	_ZN28CAdvancedAudioPlayController19MacSetSinkDataTypeLE7TFourCC @ 209 NONAME
	_ZN28CAdvancedAudioPlayController19MdcSetAgentPropertyEN13ContentAccess14TAgentPropertyEi @ 210 NONAME
	_ZN28CAdvancedAudioPlayController19SeekPositionReachedEj @ 211 NONAME
	_ZN28CAdvancedAudioPlayController19SetPrioritySettingsERK20TMMFPrioritySettings @ 212 NONAME
	_ZN28CAdvancedAudioPlayController20HandleAutoPauseEventEv @ 213 NONAME
	_ZN28CAdvancedAudioPlayController20MacGetSourceBitRateLERj @ 214 NONAME
	_ZN28CAdvancedAudioPlayController21HandlePreemptionEventEi @ 215 NONAME
	_ZN28CAdvancedAudioPlayController21MacGetSinkSampleRateLERj @ 216 NONAME
	_ZN28CAdvancedAudioPlayController21MacGetSourceDataTypeLER7TFourCC @ 217 NONAME
	_ZN28CAdvancedAudioPlayController21MacSetSinkSampleRateLEj @ 218 NONAME
	_ZN28CAdvancedAudioPlayController22MacGetSinkNumChannelsLERj @ 219 NONAME
	_ZN28CAdvancedAudioPlayController22MacSetSinkNumChannelsLEj @ 220 NONAME
	_ZN28CAdvancedAudioPlayController22MapcSetPlaybackWindowLERK25TTimeIntervalMicroSecondsS2_ @ 221 NONAME
	_ZN28CAdvancedAudioPlayController22MscGetSeekingSupportedERi @ 222 NONAME
	_ZN28CAdvancedAudioPlayController23MacGetSourceSampleRateLERj @ 223 NONAME
	_ZN28CAdvancedAudioPlayController23MapcGetLoadingProgressLERi @ 224 NONAME
	_ZN28CAdvancedAudioPlayController24MacGetSourceNumChannelsLERj @ 225 NONAME
	_ZN28CAdvancedAudioPlayController24RefillPreceedingBuffersLEv @ 226 NONAME
	_ZN28CAdvancedAudioPlayController25MapcDeletePlaybackWindowLEv @ 227 NONAME
	_ZN28CAdvancedAudioPlayController25MdcDisableAutomaticIntentEi @ 228 NONAME
	_ZN28CAdvancedAudioPlayController26SetPositionInSharedBuffersEjRiS0_ @ 229 NONAME
	_ZN28CAdvancedAudioPlayController27GetNumberOfMetaDataEntriesLERi @ 230 NONAME
	_ZN28CAdvancedAudioPlayController28MacGetSupportedSinkBitRatesLER6RArrayIjE @ 231 NONAME
	_ZN28CAdvancedAudioPlayController28MscGetRandomSeekingSupportedERi @ 232 NONAME
	_ZN28CAdvancedAudioPlayController28PlayWindowEndPositionReachedEv @ 233 NONAME
	_ZN28CAdvancedAudioPlayController28SetPlaybackWindowBoundariesLERK25TTimeIntervalMicroSecondsS2_ @ 234 NONAME
	_ZN28CAdvancedAudioPlayController28TrailingSilenceTimerCompleteEv @ 235 NONAME
	_ZN28CAdvancedAudioPlayController29MacGetSupportedSinkDataTypesLER6RArrayI7TFourCCE @ 236 NONAME
	_ZN28CAdvancedAudioPlayController30MacGetSupportedSourceBitRatesLER6RArrayIjE @ 237 NONAME
	_ZN28CAdvancedAudioPlayController31MacGetSupportedSinkNumChannelsLER6RArrayIjE @ 238 NONAME
	_ZN28CAdvancedAudioPlayController31MacGetSupportedSinkSampleRatesLER6RArrayIjE @ 239 NONAME
	_ZN28CAdvancedAudioPlayController31MacGetSupportedSourceDataTypesLER6RArrayI7TFourCCE @ 240 NONAME
	_ZN28CAdvancedAudioPlayController33MacGetSupportedSourceNumChannelsLER6RArrayIjE @ 241 NONAME
	_ZN28CAdvancedAudioPlayController33MacGetSupportedSourceSampleRatesLER6RArrayIjE @ 242 NONAME
	_ZN28CAdvancedAudioPlayController5EventE4TUid @ 243 NONAME
	_ZN28CAdvancedAudioPlayController5PlayLEv @ 244 NONAME
	_ZN28CAdvancedAudioPlayController5StopLEv @ 245 NONAME
	_ZN28CAdvancedAudioPlayController6PauseLEv @ 246 NONAME
	_ZN28CAdvancedAudioPlayController6PrimeLEv @ 247 NONAME
	_ZN28CAdvancedAudioPlayController6ResetLEv @ 248 NONAME
	_ZN28CAdvancedAudioPlayController7DoStopLEi @ 249 NONAME
	_ZN28CAdvancedAudioPlayController9SendEventERK9TMMFEvent @ 250 NONAME
	_ZN28CAdvancedAudioPlayControllerC2Ev @ 251 NONAME
	_ZN28CAdvancedAudioPlayControllerD0Ev @ 252 NONAME
	_ZN28CAdvancedAudioPlayControllerD1Ev @ 253 NONAME
	_ZN28CAdvancedAudioPlayControllerD2Ev @ 254 NONAME
	_ZN30CAdvancedAudioRecordController10ConstructLEv @ 255 NONAME
	_ZN30CAdvancedAudioRecordController12AddDataSinkLER9MDataSink @ 256 NONAME
	_ZN30CAdvancedAudioRecordController12EmptyBufferLEP10CMMFBuffer @ 257 NONAME
	_ZN30CAdvancedAudioRecordController12MardGetGainLERi @ 258 NONAME
	_ZN30CAdvancedAudioRecordController12MardSetGainLEi @ 259 NONAME
	_ZN30CAdvancedAudioRecordController12SetPositionLERK25TTimeIntervalMicroSeconds @ 260 NONAME
	_ZN30CAdvancedAudioRecordController14AddDataSourceLER11MDataSource @ 261 NONAME
	_ZN30CAdvancedAudioRecordController14BufferEmptiedLEP10CMMFBuffer @ 262 NONAME
	_ZN30CAdvancedAudioRecordController14RecordCompleteEv @ 263 NONAME
	_ZN30CAdvancedAudioRecordController15MardGetBalanceLERi @ 264 NONAME
	_ZN30CAdvancedAudioRecordController15MardGetMaxGainLERi @ 265 NONAME
	_ZN30CAdvancedAudioRecordController15MardSetBalanceLEi @ 266 NONAME
	_ZN30CAdvancedAudioRecordController15RemoveDataSinkLER9MDataSink @ 267 NONAME
	_ZN30CAdvancedAudioRecordController17RemoveDataSourceLER11MDataSource @ 268 NONAME
	_ZN30CAdvancedAudioRecordController18MacGetSinkBitRateLERj @ 269 NONAME
	_ZN30CAdvancedAudioRecordController19MacGetSinkDataTypeLER7TFourCC @ 270 NONAME
	_ZN30CAdvancedAudioRecordController19MarcSetMaxDurationLERK25TTimeIntervalMicroSeconds @ 271 NONAME
	_ZN30CAdvancedAudioRecordController19MarcSetMaxFileSizeLEi @ 272 NONAME
	_ZN30CAdvancedAudioRecordController19WriteIfEnoughSpaceLEP10CMMFBufferiP11MDataSourcei @ 273 NONAME
	_ZN30CAdvancedAudioRecordController20MacGetSourceBitRateLERj @ 274 NONAME
	_ZN30CAdvancedAudioRecordController21MacGetSinkSampleRateLERj @ 275 NONAME
	_ZN30CAdvancedAudioRecordController21MacGetSourceDataTypeLER7TFourCC @ 276 NONAME
	_ZN30CAdvancedAudioRecordController21MarcAddMetaDataEntryLERK17CMMFMetaDataEntry @ 277 NONAME
	_ZN30CAdvancedAudioRecordController22MacGetSinkNumChannelsLERj @ 278 NONAME
	_ZN30CAdvancedAudioRecordController23MacGetSourceSampleRateLERj @ 279 NONAME
	_ZN30CAdvancedAudioRecordController24MacGetSourceNumChannelsLERj @ 280 NONAME
	_ZN30CAdvancedAudioRecordController24MarcRemoveMetaDataEntryLEi @ 281 NONAME
	_ZN30CAdvancedAudioRecordController25MarcReplaceMetaDataEntryLEiRK17CMMFMetaDataEntry @ 282 NONAME
	_ZN30CAdvancedAudioRecordController26WriteIfMaxFileSizeReachedLEP10CMMFBuffer @ 283 NONAME
	_ZN30CAdvancedAudioRecordController27MarcGetRecordTimeAvailableLER25TTimeIntervalMicroSeconds @ 284 NONAME
	_ZN30CAdvancedAudioRecordController28MacGetSupportedSinkBitRatesLER6RArrayIjE @ 285 NONAME
	_ZN30CAdvancedAudioRecordController29MacGetSupportedSinkDataTypesLER6RArrayI7TFourCCE @ 286 NONAME
	_ZN30CAdvancedAudioRecordController30MacGetSupportedSourceBitRatesLER6RArrayIjE @ 287 NONAME
	_ZN30CAdvancedAudioRecordController31MacGetSupportedSinkNumChannelsLER6RArrayIjE @ 288 NONAME
	_ZN30CAdvancedAudioRecordController31MacGetSupportedSinkSampleRatesLER6RArrayIjE @ 289 NONAME
	_ZN30CAdvancedAudioRecordController31MacGetSupportedSourceDataTypesLER6RArrayI7TFourCCE @ 290 NONAME
	_ZN30CAdvancedAudioRecordController33MacGetSupportedSourceNumChannelsLER6RArrayIjE @ 291 NONAME
	_ZN30CAdvancedAudioRecordController33MacGetSupportedSourceSampleRatesLER6RArrayIjE @ 292 NONAME
	_ZN30CAdvancedAudioRecordController5PlayLEv @ 293 NONAME
	_ZN30CAdvancedAudioRecordController5StopLEv @ 294 NONAME
	_ZN30CAdvancedAudioRecordController6PrimeLEv @ 295 NONAME
	_ZN30CAdvancedAudioRecordController6ResetLEv @ 296 NONAME
	_ZN30CAdvancedAudioRecordController7DoStopLEv @ 297 NONAME
	_ZN30CAdvancedAudioRecordController9MarcCropLEi @ 298 NONAME
	_ZN30CAdvancedAudioRecordController9SendEventERK9TMMFEvent @ 299 NONAME
	_ZN30CAdvancedAudioRecordControllerC2Ev @ 300 NONAME
	_ZN30CAdvancedAudioRecordControllerD0Ev @ 301 NONAME
	_ZN30CAdvancedAudioRecordControllerD1Ev @ 302 NONAME
	_ZN30CAdvancedAudioRecordControllerD2Ev @ 303 NONAME
	_ZNK24CAdvancedAudioController9DurationLEv @ 304 NONAME
	_ZNK24CAdvancedAudioController9PositionLEv @ 305 NONAME
	_ZNK28CAdvancedAudioPlayController9DurationLEv @ 306 NONAME
	_ZNK28CAdvancedAudioPlayController9PositionLEv @ 307 NONAME
	_ZNK30CAdvancedAudioRecordController9PositionLEv @ 308 NONAME
	_ZTI21CAdvancedAudioDecoder @ 309 NONAME
	_ZTI21CAdvancedAudioEncoder @ 310 NONAME
	_ZTI21CAdvancedAudioUtility @ 311 NONAME
	_ZTI21CTrailingSilenceTimer @ 312 NONAME
	_ZTI22CAdvancedAudioResource @ 313 NONAME
	_ZTI24CAdvancedAudioController @ 314 NONAME
	_ZTI28CAdvancedAudioPlayController @ 315 NONAME
	_ZTI30CAdvancedAudioRecordController @ 316 NONAME
	_ZTV21CAdvancedAudioDecoder @ 317 NONAME
	_ZTV21CAdvancedAudioEncoder @ 318 NONAME
	_ZTV21CAdvancedAudioUtility @ 319 NONAME
	_ZTV21CTrailingSilenceTimer @ 320 NONAME
	_ZTV22CAdvancedAudioResource @ 321 NONAME
	_ZTV24CAdvancedAudioController @ 322 NONAME
	_ZTV28CAdvancedAudioPlayController @ 323 NONAME
	_ZTV30CAdvancedAudioRecordController @ 324 NONAME
	_ZThn168_N28CAdvancedAudioPlayController12RefillBufferEP10CMMFBuffer @ 325 NONAME
	_ZThn168_N28CAdvancedAudioPlayController14LastBufferSentEv @ 326 NONAME
	_ZThn168_N28CAdvancedAudioPlayController16PlaybackCompleteEv @ 327 NONAME
	_ZThn168_N28CAdvancedAudioPlayController9SendEventERK9TMMFEvent @ 328 NONAME
	_ZThn168_N30CAdvancedAudioRecordController12EmptyBufferLEP10CMMFBuffer @ 329 NONAME
	_ZThn168_N30CAdvancedAudioRecordController14RecordCompleteEv @ 330 NONAME
	_ZThn168_N30CAdvancedAudioRecordController9SendEventERK9TMMFEvent @ 331 NONAME
	_ZThn172_N28CAdvancedAudioPlayController22MapcSetPlaybackWindowLERK25TTimeIntervalMicroSecondsS2_ @ 332 NONAME
	_ZThn172_N28CAdvancedAudioPlayController23MapcGetLoadingProgressLERi @ 333 NONAME
	_ZThn172_N28CAdvancedAudioPlayController25MapcDeletePlaybackWindowLEv @ 334 NONAME
	_ZThn172_N30CAdvancedAudioRecordController19MarcSetMaxDurationLERK25TTimeIntervalMicroSeconds @ 335 NONAME
	_ZThn172_N30CAdvancedAudioRecordController19MarcSetMaxFileSizeLEi @ 336 NONAME
	_ZThn172_N30CAdvancedAudioRecordController21MarcAddMetaDataEntryLERK17CMMFMetaDataEntry @ 337 NONAME
	_ZThn172_N30CAdvancedAudioRecordController24MarcRemoveMetaDataEntryLEi @ 338 NONAME
	_ZThn172_N30CAdvancedAudioRecordController25MarcReplaceMetaDataEntryLEiRK17CMMFMetaDataEntry @ 339 NONAME
	_ZThn172_N30CAdvancedAudioRecordController27MarcGetRecordTimeAvailableLER25TTimeIntervalMicroSeconds @ 340 NONAME
	_ZThn172_N30CAdvancedAudioRecordController9MarcCropLEi @ 341 NONAME
	_ZThn176_N28CAdvancedAudioPlayController14BitRateChangedEv @ 342 NONAME
	_ZThn176_N28CAdvancedAudioPlayController19SeekPositionReachedEj @ 343 NONAME
	_ZThn176_N28CAdvancedAudioPlayController28PlayWindowEndPositionReachedEv @ 344 NONAME
	_ZThn176_N30CAdvancedAudioRecordController12MardGetGainLERi @ 345 NONAME
	_ZThn176_N30CAdvancedAudioRecordController12MardSetGainLEi @ 346 NONAME
	_ZThn176_N30CAdvancedAudioRecordController15MardGetBalanceLERi @ 347 NONAME
	_ZThn176_N30CAdvancedAudioRecordController15MardGetMaxGainLERi @ 348 NONAME
	_ZThn176_N30CAdvancedAudioRecordController15MardSetBalanceLEi @ 349 NONAME
	_ZThn180_N28CAdvancedAudioPlayController10GetBitRateERj @ 350 NONAME
	_ZThn180_N28CAdvancedAudioPlayController12BufferFilledEP10CMMFBuffer @ 351 NONAME
	_ZThn180_N28CAdvancedAudioPlayController5EventE4TUid @ 352 NONAME
	_ZThn184_N28CAdvancedAudioPlayController15MscEnableEventsEi @ 353 NONAME
	_ZThn184_N28CAdvancedAudioPlayController22MscGetSeekingSupportedERi @ 354 NONAME
	_ZThn184_N28CAdvancedAudioPlayController28MscGetRandomSeekingSupportedERi @ 355 NONAME
	_ZThn188_N28CAdvancedAudioPlayController14MapcSetRepeatsEiRK25TTimeIntervalMicroSeconds @ 356 NONAME
	_ZThn192_N28CAdvancedAudioPlayController14MapdGetVolumeLERi @ 357 NONAME
	_ZThn192_N28CAdvancedAudioPlayController14MapdSetVolumeLEi @ 358 NONAME
	_ZThn192_N28CAdvancedAudioPlayController15MapdGetBalanceLERi @ 359 NONAME
	_ZThn192_N28CAdvancedAudioPlayController15MapdSetBalanceLEi @ 360 NONAME
	_ZThn192_N28CAdvancedAudioPlayController17MapdGetMaxVolumeLERi @ 361 NONAME
	_ZThn192_N28CAdvancedAudioPlayController18MapdSetVolumeRampLERK25TTimeIntervalMicroSeconds @ 362 NONAME
	_ZThn196_N28CAdvancedAudioPlayController16MdcExecuteIntentEN13ContentAccess7TIntentE @ 363 NONAME
	_ZThn196_N28CAdvancedAudioPlayController17MdcEvaluateIntentEN13ContentAccess7TIntentE @ 364 NONAME
	_ZThn196_N28CAdvancedAudioPlayController19MdcSetAgentPropertyEN13ContentAccess14TAgentPropertyEi @ 365 NONAME
	_ZThn196_N28CAdvancedAudioPlayController25MdcDisableAutomaticIntentEi @ 366 NONAME
	_ZThn200_N28CAdvancedAudioPlayController28TrailingSilenceTimerCompleteEv @ 367 NONAME
	_ZThn24_N24CAdvancedAudioController17SendEventToClientERK9TMMFEvent @ 368 NONAME
	_ZThn24_N28CAdvancedAudioPlayController17SendEventToClientERK9TMMFEvent @ 369 NONAME
	_ZThn28_N21CAdvancedAudioDecoder21HandleFrameTableEventEN11CFrameTable16TFrameTableEventE @ 370 NONAME
	_ZThn28_N24CAdvancedAudioController12MacSetCodecLE7TFourCCS0_ @ 371 NONAME
	_ZThn28_N24CAdvancedAudioController17MacGetSinkFormatLER4TUid @ 372 NONAME
	_ZThn28_N24CAdvancedAudioController17MacSetSinkFormatLE4TUid @ 373 NONAME
	_ZThn28_N24CAdvancedAudioController18MacGetSinkBitRateLERj @ 374 NONAME
	_ZThn28_N24CAdvancedAudioController18MacSetSinkBitRateLEj @ 375 NONAME
	_ZThn28_N24CAdvancedAudioController19MacGetSinkDataTypeLER7TFourCC @ 376 NONAME
	_ZThn28_N24CAdvancedAudioController19MacGetSourceFormatLER4TUid @ 377 NONAME
	_ZThn28_N24CAdvancedAudioController19MacSetSinkDataTypeLE7TFourCC @ 378 NONAME
	_ZThn28_N24CAdvancedAudioController19MacSetSourceFormatLE4TUid @ 379 NONAME
	_ZThn28_N24CAdvancedAudioController20MacGetSourceBitRateLERj @ 380 NONAME
	_ZThn28_N24CAdvancedAudioController20MacSetSourceBitRateLEj @ 381 NONAME
	_ZThn28_N24CAdvancedAudioController21MacGetSinkSampleRateLERj @ 382 NONAME
	_ZThn28_N24CAdvancedAudioController21MacGetSourceDataTypeLER7TFourCC @ 383 NONAME
	_ZThn28_N24CAdvancedAudioController21MacSetSinkSampleRateLEj @ 384 NONAME
	_ZThn28_N24CAdvancedAudioController21MacSetSourceDataTypeLE7TFourCC @ 385 NONAME
	_ZThn28_N24CAdvancedAudioController22MacGetSinkNumChannelsLERj @ 386 NONAME
	_ZThn28_N24CAdvancedAudioController22MacSetSinkNumChannelsLEj @ 387 NONAME
	_ZThn28_N24CAdvancedAudioController23MacGetSourceSampleRateLERj @ 388 NONAME
	_ZThn28_N24CAdvancedAudioController23MacSetSourceSampleRateLEj @ 389 NONAME
	_ZThn28_N24CAdvancedAudioController24MacGetSourceNumChannelsLERj @ 390 NONAME
	_ZThn28_N24CAdvancedAudioController24MacSetSourceNumChannelsLEj @ 391 NONAME
	_ZThn28_N24CAdvancedAudioController28MacGetSupportedSinkBitRatesLER6RArrayIjE @ 392 NONAME
	_ZThn28_N24CAdvancedAudioController29MacGetSupportedSinkDataTypesLER6RArrayI7TFourCCE @ 393 NONAME
	_ZThn28_N24CAdvancedAudioController30MacGetSupportedSourceBitRatesLER6RArrayIjE @ 394 NONAME
	_ZThn28_N24CAdvancedAudioController31MacGetSupportedSinkNumChannelsLER6RArrayIjE @ 395 NONAME
	_ZThn28_N24CAdvancedAudioController31MacGetSupportedSinkSampleRatesLER6RArrayIjE @ 396 NONAME
	_ZThn28_N24CAdvancedAudioController31MacGetSupportedSourceDataTypesLER6RArrayI7TFourCCE @ 397 NONAME
	_ZThn28_N24CAdvancedAudioController33MacGetSupportedSourceNumChannelsLER6RArrayIjE @ 398 NONAME
	_ZThn28_N24CAdvancedAudioController33MacGetSupportedSourceSampleRatesLER6RArrayIjE @ 399 NONAME
	_ZThn28_N28CAdvancedAudioPlayController17MacGetSinkFormatLER4TUid @ 400 NONAME
	_ZThn28_N28CAdvancedAudioPlayController17MacSetSinkFormatLE4TUid @ 401 NONAME
	_ZThn28_N28CAdvancedAudioPlayController18MacGetSinkBitRateLERj @ 402 NONAME
	_ZThn28_N28CAdvancedAudioPlayController18MacSetSinkBitRateLEj @ 403 NONAME
	_ZThn28_N28CAdvancedAudioPlayController19MacGetSinkDataTypeLER7TFourCC @ 404 NONAME
	_ZThn28_N28CAdvancedAudioPlayController19MacGetSourceFormatLER4TUid @ 405 NONAME
	_ZThn28_N28CAdvancedAudioPlayController19MacSetSinkDataTypeLE7TFourCC @ 406 NONAME
	_ZThn28_N28CAdvancedAudioPlayController20MacGetSourceBitRateLERj @ 407 NONAME
	_ZThn28_N28CAdvancedAudioPlayController21MacGetSinkSampleRateLERj @ 408 NONAME
	_ZThn28_N28CAdvancedAudioPlayController21MacGetSourceDataTypeLER7TFourCC @ 409 NONAME
	_ZThn28_N28CAdvancedAudioPlayController21MacSetSinkSampleRateLEj @ 410 NONAME
	_ZThn28_N28CAdvancedAudioPlayController22MacGetSinkNumChannelsLERj @ 411 NONAME
	_ZThn28_N28CAdvancedAudioPlayController22MacSetSinkNumChannelsLEj @ 412 NONAME
	_ZThn28_N28CAdvancedAudioPlayController23MacGetSourceSampleRateLERj @ 413 NONAME
	_ZThn28_N28CAdvancedAudioPlayController24MacGetSourceNumChannelsLERj @ 414 NONAME
	_ZThn28_N28CAdvancedAudioPlayController28MacGetSupportedSinkBitRatesLER6RArrayIjE @ 415 NONAME
	_ZThn28_N28CAdvancedAudioPlayController29MacGetSupportedSinkDataTypesLER6RArrayI7TFourCCE @ 416 NONAME
	_ZThn28_N28CAdvancedAudioPlayController30MacGetSupportedSourceBitRatesLER6RArrayIjE @ 417 NONAME
	_ZThn28_N28CAdvancedAudioPlayController31MacGetSupportedSinkNumChannelsLER6RArrayIjE @ 418 NONAME
	_ZThn28_N28CAdvancedAudioPlayController31MacGetSupportedSinkSampleRatesLER6RArrayIjE @ 419 NONAME
	_ZThn28_N28CAdvancedAudioPlayController31MacGetSupportedSourceDataTypesLER6RArrayI7TFourCCE @ 420 NONAME
	_ZThn28_N28CAdvancedAudioPlayController33MacGetSupportedSourceNumChannelsLER6RArrayIjE @ 421 NONAME
	_ZThn28_N28CAdvancedAudioPlayController33MacGetSupportedSourceSampleRatesLER6RArrayIjE @ 422 NONAME
	_ZThn28_N30CAdvancedAudioRecordController18MacGetSinkBitRateLERj @ 423 NONAME
	_ZThn28_N30CAdvancedAudioRecordController19MacGetSinkDataTypeLER7TFourCC @ 424 NONAME
	_ZThn28_N30CAdvancedAudioRecordController20MacGetSourceBitRateLERj @ 425 NONAME
	_ZThn28_N30CAdvancedAudioRecordController21MacGetSinkSampleRateLERj @ 426 NONAME
	_ZThn28_N30CAdvancedAudioRecordController21MacGetSourceDataTypeLER7TFourCC @ 427 NONAME
	_ZThn28_N30CAdvancedAudioRecordController22MacGetSinkNumChannelsLERj @ 428 NONAME
	_ZThn28_N30CAdvancedAudioRecordController23MacGetSourceSampleRateLERj @ 429 NONAME
	_ZThn28_N30CAdvancedAudioRecordController24MacGetSourceNumChannelsLERj @ 430 NONAME
	_ZThn28_N30CAdvancedAudioRecordController28MacGetSupportedSinkBitRatesLER6RArrayIjE @ 431 NONAME
	_ZThn28_N30CAdvancedAudioRecordController29MacGetSupportedSinkDataTypesLER6RArrayI7TFourCCE @ 432 NONAME
	_ZThn28_N30CAdvancedAudioRecordController30MacGetSupportedSourceBitRatesLER6RArrayIjE @ 433 NONAME
	_ZThn28_N30CAdvancedAudioRecordController31MacGetSupportedSinkNumChannelsLER6RArrayIjE @ 434 NONAME
	_ZThn28_N30CAdvancedAudioRecordController31MacGetSupportedSinkSampleRatesLER6RArrayIjE @ 435 NONAME
	_ZThn28_N30CAdvancedAudioRecordController31MacGetSupportedSourceDataTypesLER6RArrayI7TFourCCE @ 436 NONAME
	_ZThn28_N30CAdvancedAudioRecordController33MacGetSupportedSourceNumChannelsLER6RArrayIjE @ 437 NONAME
	_ZThn28_N30CAdvancedAudioRecordController33MacGetSupportedSourceSampleRatesLER6RArrayIjE @ 438 NONAME
	_ZThn32_N24CAdvancedAudioController11FillBufferLEP10CMMFBufferP9MDataSink8TMediaId @ 439 NONAME
	_ZThn32_N24CAdvancedAudioController14BufferEmptiedLEP10CMMFBuffer @ 440 NONAME
	_ZThn32_N24CAdvancedAudioController16ConstructSourceLERK6TDesC8 @ 441 NONAME
	_ZThn32_N24CAdvancedAudioController18SourceDataTypeCodeE8TMediaId @ 442 NONAME
	_ZThn32_N24CAdvancedAudioController19CreateSourceBufferLE8TMediaIdRi @ 443 NONAME
	_ZThn32_N24CAdvancedAudioController21CanCreateSourceBufferEv @ 444 NONAME
	_ZThn32_N24CAdvancedAudioControllerD0Ev @ 445 NONAME
	_ZThn32_N24CAdvancedAudioControllerD1Ev @ 446 NONAME
	_ZThn32_N28CAdvancedAudioPlayControllerD0Ev @ 447 NONAME
	_ZThn32_N28CAdvancedAudioPlayControllerD1Ev @ 448 NONAME
	_ZThn32_N30CAdvancedAudioRecordController14BufferEmptiedLEP10CMMFBuffer @ 449 NONAME
	_ZThn32_N30CAdvancedAudioRecordControllerD0Ev @ 450 NONAME
	_ZThn32_N30CAdvancedAudioRecordControllerD1Ev @ 451 NONAME
	_ZThn44_N24CAdvancedAudioController12EmptyBufferLEP10CMMFBufferP11MDataSource8TMediaId @ 452 NONAME
	_ZThn44_N24CAdvancedAudioController13BufferFilledLEP10CMMFBuffer @ 453 NONAME
	_ZThn44_N24CAdvancedAudioController14ConstructSinkLERK6TDesC8 @ 454 NONAME
	_ZThn44_N24CAdvancedAudioController16SinkDataTypeCodeE8TMediaId @ 455 NONAME
	_ZThn44_N24CAdvancedAudioController17CreateSinkBufferLE8TMediaIdRi @ 456 NONAME
	_ZThn44_N24CAdvancedAudioController19CanCreateSinkBufferEv @ 457 NONAME
	_ZThn44_N24CAdvancedAudioControllerD0Ev @ 458 NONAME
	_ZThn44_N24CAdvancedAudioControllerD1Ev @ 459 NONAME
	_ZThn44_N28CAdvancedAudioPlayController13BufferFilledLEP10CMMFBuffer @ 460 NONAME
	_ZThn44_N28CAdvancedAudioPlayControllerD0Ev @ 461 NONAME
	_ZThn44_N28CAdvancedAudioPlayControllerD1Ev @ 462 NONAME
	_ZThn44_N30CAdvancedAudioRecordControllerD0Ev @ 463 NONAME
	_ZThn44_N30CAdvancedAudioRecordControllerD1Ev @ 464 NONAME
	_ZThn4_N21CAdvancedAudioUtility10GetOffsetsERi @ 465 NONAME
	_ZThn4_N21CAdvancedAudioUtility19DecodeIntervalEventEv @ 466 NONAME
	_ZThn4_N21CAdvancedAudioUtility19SeekPositionReachedEj @ 467 NONAME
	_ZThn4_N21CAdvancedAudioUtility28PlayWindowEndPositionReachedEv @ 468 NONAME
	_ZThn56_N24CAdvancedAudioController26GetCustomInterfaceBuilderLEv @ 469 NONAME

