EXPORTS
	??1CDTMFTonePlayer@@UAE@XZ @ 1 NONAME ; CDTMFTonePlayer::~CDTMFTonePlayer(void)
	??1CRingToneFactory@@QAE@XZ @ 2 NONAME ; CRingToneFactory::~CRingToneFactory(void)
	??1CRingTonePlayer@@UAE@XZ @ 3 NONAME ; CRingTonePlayer::~CRingTonePlayer(void)
	??1CVoIPAudioDownlinkStream@@UAE@XZ @ 4 NONAME ; CVoIPAudioDownlinkStream::~CVoIPAudioDownlinkStream(void)
	??1CVoIPAudioUplinkStream@@UAE@XZ @ 5 NONAME ; CVoIPAudioUplinkStream::~CVoIPAudioUplinkStream(void)
	??1CVoIPDataBuffer@@UAE@XZ @ 6 NONAME ; CVoIPDataBuffer::~CVoIPDataBuffer(void)
	??1CVoIPFormatIntfc@@UAE@XZ @ 7 NONAME ; CVoIPFormatIntfc::~CVoIPFormatIntfc(void)
	??1CVoIPG711DecoderIntfc@@UAE@XZ @ 8 NONAME ; CVoIPG711DecoderIntfc::~CVoIPG711DecoderIntfc(void)
	??1CVoIPG711EncoderIntfc@@UAE@XZ @ 9 NONAME ; CVoIPG711EncoderIntfc::~CVoIPG711EncoderIntfc(void)
	??1CVoIPG729DecoderIntfc@@UAE@XZ @ 10 NONAME ; CVoIPG729DecoderIntfc::~CVoIPG729DecoderIntfc(void)
	??1CVoIPILBCDecoderIntfc@@UAE@XZ @ 11 NONAME ; CVoIPILBCDecoderIntfc::~CVoIPILBCDecoderIntfc(void)
	??1CVoIPILBCEncoderIntfc@@UAE@XZ @ 12 NONAME ; CVoIPILBCEncoderIntfc::~CVoIPILBCEncoderIntfc(void)
	??1CVoIPJBDataBuffer@@UAE@XZ @ 13 NONAME ; CVoIPJBDataBuffer::~CVoIPJBDataBuffer(void)
	??1CVoIPJitterBufferIntfc@@UAE@XZ @ 14 NONAME ; CVoIPJitterBufferIntfc::~CVoIPJitterBufferIntfc(void)
	??1CVoIPUtilityFactory@@QAE@XZ @ 15 NONAME ; CVoIPUtilityFactory::~CVoIPUtilityFactory(void)
	?AddVoIPAudioDownlinkStream@CDTMFTonePlayer@@QAEHAAVCVoIPAudioDownlinkStream@@@Z @ 16 NONAME ; int CDTMFTonePlayer::AddVoIPAudioDownlinkStream(class CVoIPAudioDownlinkStream &)
	?AddVoIPAudioUplinkStream@CDTMFTonePlayer@@QAEHAAVCVoIPAudioUplinkStream@@@Z @ 17 NONAME ; int CDTMFTonePlayer::AddVoIPAudioUplinkStream(class CVoIPAudioUplinkStream &)
	?BadLsfNextBuffer@CVoIPG729DecoderIntfc@@QAEHXZ @ 18 NONAME ; int CVoIPG729DecoderIntfc::BadLsfNextBuffer(void)
	?BufferEmptied@CVoIPAudioUplinkStream@@QAEHPAVCVoIPDataBuffer@@@Z @ 19 NONAME ; int CVoIPAudioUplinkStream::BufferEmptied(class CVoIPDataBuffer *)
	?BufferFilled@CVoIPAudioDownlinkStream@@QAEHPAVCVoIPDataBuffer@@@Z @ 20 NONAME ; int CVoIPAudioDownlinkStream::BufferFilled(class CVoIPDataBuffer *)
	?Close@CDTMFTonePlayer@@QAEXXZ @ 21 NONAME ; void CDTMFTonePlayer::Close(void)
	?Close@CRingTonePlayer@@QAEXXZ @ 22 NONAME ; void CRingTonePlayer::Close(void)
	?Close@CVoIPAudioDownlinkStream@@QAEXXZ @ 23 NONAME ; void CVoIPAudioDownlinkStream::Close(void)
	?Close@CVoIPAudioUplinkStream@@QAEXXZ @ 24 NONAME ; void CVoIPAudioUplinkStream::Close(void)
	?ConcealErrorForNextBuffer@CVoIPFormatIntfc@@QAEHXZ @ 25 NONAME ; int CVoIPFormatIntfc::ConcealErrorForNextBuffer(void)
	?ConfigureJitterBuffer@CVoIPJitterBufferIntfc@@QAEHABVTVoIPJBConfig@@@Z @ 26 NONAME ; int CVoIPJitterBufferIntfc::ConfigureJitterBuffer(class TVoIPJBConfig const &)
	?CreateBuffer@CVoIPUtilityFactory@@QAEHAAPAVCVoIPDataBuffer@@W4TVoIPBufferType@2@W4TVoIPCodecFormat@@@Z @ 27 NONAME ; int CVoIPUtilityFactory::CreateBuffer(class CVoIPDataBuffer * &, enum CVoIPDataBuffer::TVoIPBufferType, enum TVoIPCodecFormat)
	?CreateDTMFTonePlayer@CVoIPUtilityFactory@@QAEHAAPAVCDTMFTonePlayer@@@Z @ 28 NONAME ; int CVoIPUtilityFactory::CreateDTMFTonePlayer(class CDTMFTonePlayer * &)
	?CreateDownlinkStream@CVoIPUtilityFactory@@QAEHVTVersion@@AAPAVCVoIPJitterBufferIntfc@@AAPAVCVoIPAudioDownlinkStream@@@Z @ 29 NONAME ; int CVoIPUtilityFactory::CreateDownlinkStream(class TVersion, class CVoIPJitterBufferIntfc * &, class CVoIPAudioDownlinkStream * &)
	?CreateDownlinkStream@CVoIPUtilityFactory@@QAEHVTVersion@@W4TVoIPCallType@1@AAPAVCVoIPAudioDownlinkStream@@@Z @ 30 NONAME ; int CVoIPUtilityFactory::CreateDownlinkStream(class TVersion, enum CVoIPUtilityFactory::TVoIPCallType, class CVoIPAudioDownlinkStream * &)
	?CreateFactory@CRingToneFactory@@SAHAAPAV1@@Z @ 31 NONAME ; int CRingToneFactory::CreateFactory(class CRingToneFactory * &)
	?CreateFactory@CVoIPUtilityFactory@@SAHAAPAV1@@Z @ 32 NONAME ; int CVoIPUtilityFactory::CreateFactory(class CVoIPUtilityFactory * &)
	?CreateRingTonePlayer@CRingToneFactory@@QAEHAAPAVCRingTonePlayer@@@Z @ 33 NONAME ; int CRingToneFactory::CreateRingTonePlayer(class CRingTonePlayer * &)
	?CreateUplinkStream@CVoIPUtilityFactory@@QAEHVTVersion@@W4TVoIPCallType@1@AAPAVCVoIPAudioUplinkStream@@@Z @ 34 NONAME ; int CVoIPUtilityFactory::CreateUplinkStream(class TVersion, enum CVoIPUtilityFactory::TVoIPCallType, class CVoIPAudioUplinkStream * &)
	?DelayDown@CVoIPJitterBufferIntfc@@QAEHXZ @ 35 NONAME ; int CVoIPJitterBufferIntfc::DelayDown(void)
	?DelayUp@CVoIPJitterBufferIntfc@@QAEHXZ @ 36 NONAME ; int CVoIPJitterBufferIntfc::DelayUp(void)
	?FrameModeRequiredForErrorConcealment@CVoIPFormatIntfc@@QAEHAAH@Z @ 37 NONAME ; int CVoIPFormatIntfc::FrameModeRequiredForErrorConcealment(int &)
	?GetAudioDevice@CVoIPAudioDownlinkStream@@QAEHAAW4TVoIPOutputDevice@1@@Z @ 38 NONAME ; int CVoIPAudioDownlinkStream::GetAudioDevice(enum CVoIPAudioDownlinkStream::TVoIPOutputDevice &)
	?GetBitRate@CVoIPFormatIntfc@@QAEHAAI@Z @ 39 NONAME ; int CVoIPFormatIntfc::GetBitRate(unsigned int &)
	?GetBufferType@CVoIPDataBuffer@@QAEXAAW4TVoIPBufferType@1@@Z @ 40 NONAME ; void CVoIPDataBuffer::GetBufferType(enum CVoIPDataBuffer::TVoIPBufferType &)
	?GetCNG@CVoIPG711DecoderIntfc@@QAEHAAH@Z @ 41 NONAME ; int CVoIPG711DecoderIntfc::GetCNG(int &)
	?GetCNG@CVoIPILBCDecoderIntfc@@QAEHAAH@Z @ 42 NONAME ; int CVoIPILBCDecoderIntfc::GetCNG(int &)
	?GetFrameMode@CVoIPFormatIntfc@@QAEHAAH@Z @ 43 NONAME ; int CVoIPFormatIntfc::GetFrameMode(int &)
	?GetGain@CVoIPAudioUplinkStream@@QAEHAAH@Z @ 44 NONAME ; int CVoIPAudioUplinkStream::GetGain(int &)
	?GetMaxGain@CVoIPAudioUplinkStream@@QAEHAAH@Z @ 45 NONAME ; int CVoIPAudioUplinkStream::GetMaxGain(int &)
	?GetMaxVolume@CVoIPAudioDownlinkStream@@QAEHAAH@Z @ 46 NONAME ; int CVoIPAudioDownlinkStream::GetMaxVolume(int &)
	?GetMode@CVoIPG711DecoderIntfc@@QAEHAAW4TG711CodecMode@CVoIPFormatIntfc@@@Z @ 47 NONAME ; int CVoIPG711DecoderIntfc::GetMode(enum CVoIPFormatIntfc::TG711CodecMode &)
	?GetMode@CVoIPG711EncoderIntfc@@QAEHAAW4TG711CodecMode@CVoIPFormatIntfc@@@Z @ 48 NONAME ; int CVoIPG711EncoderIntfc::GetMode(enum CVoIPFormatIntfc::TG711CodecMode &)
	?GetMode@CVoIPILBCDecoderIntfc@@QAEHAAW4TILBCCodecMode@CVoIPFormatIntfc@@@Z @ 49 NONAME ; int CVoIPILBCDecoderIntfc::GetMode(enum CVoIPFormatIntfc::TILBCCodecMode &)
	?GetMode@CVoIPILBCEncoderIntfc@@QAEHAAW4TILBCCodecMode@CVoIPFormatIntfc@@@Z @ 50 NONAME ; int CVoIPILBCEncoderIntfc::GetMode(enum CVoIPFormatIntfc::TILBCCodecMode &)
	?GetPLC@CVoIPG711DecoderIntfc@@QAEHAAH@Z @ 51 NONAME ; int CVoIPG711DecoderIntfc::GetPLC(int &)
	?GetPayloadPtr@CVoIPDataBuffer@@QAEXAAVTPtr8@@@Z @ 52 NONAME ; void CVoIPDataBuffer::GetPayloadPtr(class TPtr8 &)
	?GetSupportedBitRates@CVoIPFormatIntfc@@QAEHAAV?$RArray@I@@@Z @ 53 NONAME ; int CVoIPFormatIntfc::GetSupportedBitRates(class RArray<unsigned int> &)
	?GetSupportedDownlinkFormats@CVoIPUtilityFactory@@QAEHAAV?$RArray@W4TVoIPCodecFormat@@@@@Z @ 54 NONAME ; int CVoIPUtilityFactory::GetSupportedDownlinkFormats(class RArray<enum TVoIPCodecFormat> &)
	?GetSupportedUplinkFormats@CVoIPUtilityFactory@@QAEHAAV?$RArray@W4TVoIPCodecFormat@@@@@Z @ 55 NONAME ; int CVoIPUtilityFactory::GetSupportedUplinkFormats(class RArray<enum TVoIPCodecFormat> &)
	?GetBufferSequence@CVoIPJBDataBuffer@@QAEXAAI@Z @ 56 NONAME ; void CVoIPJBDataBuffer::GetBufferSequence(unsigned int &)
	?GetVAD@CVoIPFormatIntfc@@QAEHAAH@Z @ 57 NONAME ; int CVoIPFormatIntfc::GetVAD(int &)
	?GetVersion@CVoIPAudioDownlinkStream@@QAEHAAVTVersion@@@Z @ 58 NONAME ; int CVoIPAudioDownlinkStream::GetVersion(class TVersion &)
	?GetVersion@CVoIPAudioUplinkStream@@QAEHAAVTVersion@@@Z @ 59 NONAME ; int CVoIPAudioUplinkStream::GetVersion(class TVersion &)
	?GetVolume@CVoIPAudioDownlinkStream@@QAEHAAH@Z @ 60 NONAME ; int CVoIPAudioDownlinkStream::GetVolume(int &)
	?Open@CDTMFTonePlayer@@QAEHAAVMDTMFToneObserver@@@Z @ 61 NONAME ; int CDTMFTonePlayer::Open(class MDTMFToneObserver &)
	?Open@CRingTonePlayer@@QAEHAAVMRingToneObserver@@@Z @ 62 NONAME ; int CRingTonePlayer::Open(class MRingToneObserver &)
	?Open@CRingTonePlayer@@QAEHAAVMRingToneObserver@@AAVRFile@@@Z @ 63 NONAME ; int CRingTonePlayer::Open(class MRingToneObserver &, class RFile &)
	?Open@CRingTonePlayer@@QAEHAAVMRingToneObserver@@VTPtr16@@@Z @ 64 NONAME ; int CRingTonePlayer::Open(class MRingToneObserver &, class TPtr16)
	?Open@CRingTonePlayer@@QAEHAAVMRingToneObserver@@VTPtr8@@1@Z @ 65 NONAME ; int CRingTonePlayer::Open(class MRingToneObserver &, class TPtr8, class TPtr8)
	?Open@CVoIPAudioDownlinkStream@@QAEHAAVMVoIPDownlinkObserver@@@Z @ 66 NONAME ; int CVoIPAudioDownlinkStream::Open(class MVoIPDownlinkObserver &)
	?Open@CVoIPAudioUplinkStream@@QAEHAAVMVoIPUplinkObserver@@@Z @ 67 NONAME ; int CVoIPAudioUplinkStream::Open(class MVoIPUplinkObserver &)
	?Pause@CRingTonePlayer@@QAEHXZ @ 68 NONAME ; int CRingTonePlayer::Pause(void)
	?Play@CDTMFTonePlayer@@QAEHVTPtr16@@@Z @ 69 NONAME ; int CDTMFTonePlayer::Play(class TPtr16)
	?Play@CRingTonePlayer@@QAEHXZ @ 70 NONAME ; int CRingTonePlayer::Play(void)
	?RemoveVoIPAudioDownlinkStream@CDTMFTonePlayer@@QAEHAAVCVoIPAudioDownlinkStream@@@Z @ 71 NONAME ; int CDTMFTonePlayer::RemoveVoIPAudioDownlinkStream(class CVoIPAudioDownlinkStream &)
	?RemoveVoIPAudioUplinkStream@CDTMFTonePlayer@@QAEHAAVCVoIPAudioUplinkStream@@@Z @ 72 NONAME ; int CDTMFTonePlayer::RemoveVoIPAudioUplinkStream(class CVoIPAudioUplinkStream &)
	?ResetJitterBuffer@CVoIPJitterBufferIntfc@@QAEHH@Z @ 73 NONAME ; int CVoIPJitterBufferIntfc::ResetJitterBuffer(int)
	?Resume@CRingTonePlayer@@QAEHXZ @ 74 NONAME ; int CRingTonePlayer::Resume(void)
	?SetAudioDevice@CVoIPAudioDownlinkStream@@QAEHW4TVoIPOutputDevice@1@@Z @ 75 NONAME ; int CVoIPAudioDownlinkStream::SetAudioDevice(enum CVoIPAudioDownlinkStream::TVoIPOutputDevice)
	?SetBitRate@CVoIPFormatIntfc@@QAEHI@Z @ 76 NONAME ; int CVoIPFormatIntfc::SetBitRate(unsigned int)
	?SetCNG@CVoIPG711DecoderIntfc@@QAEHH@Z @ 77 NONAME ; int CVoIPG711DecoderIntfc::SetCNG(int)
	?SetCNG@CVoIPILBCDecoderIntfc@@QAEHH@Z @ 78 NONAME ; int CVoIPILBCDecoderIntfc::SetCNG(int)
	?SetFormat@CVoIPAudioDownlinkStream@@QAEHW4TVoIPCodecFormat@@AAPAVCVoIPFormatIntfc@@@Z @ 79 NONAME ; int CVoIPAudioDownlinkStream::SetFormat(enum TVoIPCodecFormat, class CVoIPFormatIntfc * &)
	?SetFormat@CVoIPAudioUplinkStream@@QAEHW4TVoIPCodecFormat@@AAPAVCVoIPFormatIntfc@@@Z @ 80 NONAME ; int CVoIPAudioUplinkStream::SetFormat(enum TVoIPCodecFormat, class CVoIPFormatIntfc * &)
	?SetFrameMode@CVoIPFormatIntfc@@QAEHH@Z @ 81 NONAME ; int CVoIPFormatIntfc::SetFrameMode(int)
	?SetGain@CVoIPAudioUplinkStream@@QAEHH@Z @ 82 NONAME ; int CVoIPAudioUplinkStream::SetGain(int)
	?SetMode@CVoIPG711DecoderIntfc@@QAEHW4TG711CodecMode@CVoIPFormatIntfc@@@Z @ 83 NONAME ; int CVoIPG711DecoderIntfc::SetMode(enum CVoIPFormatIntfc::TG711CodecMode)
	?SetMode@CVoIPG711EncoderIntfc@@QAEHW4TG711CodecMode@CVoIPFormatIntfc@@@Z @ 84 NONAME ; int CVoIPG711EncoderIntfc::SetMode(enum CVoIPFormatIntfc::TG711CodecMode)
	?SetMode@CVoIPILBCDecoderIntfc@@QAEHW4TILBCCodecMode@CVoIPFormatIntfc@@@Z @ 85 NONAME ; int CVoIPILBCDecoderIntfc::SetMode(enum CVoIPFormatIntfc::TILBCCodecMode)
	?SetMode@CVoIPILBCEncoderIntfc@@QAEHW4TILBCCodecMode@CVoIPFormatIntfc@@@Z @ 86 NONAME ; int CVoIPILBCEncoderIntfc::SetMode(enum CVoIPFormatIntfc::TILBCCodecMode)
	?SetObserver@CVoIPFormatIntfc@@QAEHAAVMVoIPFormatObserver@@@Z @ 87 NONAME ; int CVoIPFormatIntfc::SetObserver(class MVoIPFormatObserver &)
	?SetObserver@CVoIPJitterBufferIntfc@@QAEHAAVMVoIPJitterBufferObserver@@@Z @ 88 NONAME ; int CVoIPJitterBufferIntfc::SetObserver(class MVoIPJitterBufferObserver &)
	?SetPLC@CVoIPG711DecoderIntfc@@QAEHH@Z @ 89 NONAME ; int CVoIPG711DecoderIntfc::SetPLC(int)
	?SetPayloadPtr@CVoIPDataBuffer@@QAEXVTPtr8@@@Z @ 90 NONAME ; void CVoIPDataBuffer::SetPayloadPtr(class TPtr8)
	?SetBufferSequence@CVoIPJBDataBuffer@@QAEXI@Z @ 91 NONAME ; void CVoIPJBDataBuffer::SetBufferSequence(unsigned int)
	?SetVAD@CVoIPFormatIntfc@@QAEHH@Z @ 92 NONAME ; int CVoIPFormatIntfc::SetVAD(int)
	?SetVolume@CVoIPAudioDownlinkStream@@QAEHH@Z @ 93 NONAME ; int CVoIPAudioDownlinkStream::SetVolume(int)
	?Start@CVoIPAudioDownlinkStream@@QAEHXZ @ 94 NONAME ; int CVoIPAudioDownlinkStream::Start(void)
	?Start@CVoIPAudioUplinkStream@@QAEHXZ @ 95 NONAME ; int CVoIPAudioUplinkStream::Start(void)
	?Stop@CDTMFTonePlayer@@QAEHXZ @ 96 NONAME ; int CDTMFTonePlayer::Stop(void)
	?Stop@CRingTonePlayer@@QAEHXZ @ 97 NONAME ; int CRingTonePlayer::Stop(void)
	?Stop@CVoIPAudioDownlinkStream@@QAEHXZ @ 98 NONAME ; int CVoIPAudioDownlinkStream::Stop(void)
	?Stop@CVoIPAudioUplinkStream@@QAEHXZ @ 99 NONAME ; int CVoIPAudioUplinkStream::Stop(void)

