EXPORTS
	_ZN10MMdCCommon5PanicEi @ 1 NONAME
	_ZN10TMdCObject10SerializeLER23CMdCSerializationBuffer @ 2 NONAME
	_ZN10TMdCObject12DeserializeLER23CMdCSerializationBuffer @ 3 NONAME
	_ZN10TMdCObject14GetFromBufferLER23CMdCSerializationBuffer @ 4 NONAME
	_ZN10TMdCObjectC1Ev @ 5 NONAME
	_ZN10TMdCObjectC2Ev @ 6 NONAME
	_ZN10TMdCSchema10SerializeLER23CMdCSerializationBuffer @ 7 NONAME
	_ZN10TMdCSchema12DeserializeLER23CMdCSerializationBuffer @ 8 NONAME
	_ZN10TMdCSchema14GetFromBufferLER23CMdCSerializationBuffer @ 9 NONAME
	_ZN10TMdCSchemaC1Ev @ 10 NONAME
	_ZN10TMdCSchemaC2Ev @ 11 NONAME
	_ZN11TMdCItemIds10SerializeLER23CMdCSerializationBuffer @ 12 NONAME
	_ZN11TMdCItemIds12DeserializeLER23CMdCSerializationBuffer @ 13 NONAME
	_ZN11TMdCItemIds14GetFromBufferLER23CMdCSerializationBuffer @ 14 NONAME
	_ZN11TMdCItemIdsC1Ev @ 15 NONAME
	_ZN11TMdCItemIdsC2Ev @ 16 NONAME
	_ZN12TMdCEventDef10SerializeLER23CMdCSerializationBuffer @ 17 NONAME
	_ZN12TMdCEventDef12DeserializeLER23CMdCSerializationBuffer @ 18 NONAME
	_ZN12TMdCEventDef14GetFromBufferLER23CMdCSerializationBuffer @ 19 NONAME
	_ZN12TMdCEventDefC1Ev @ 20 NONAME
	_ZN12TMdCEventDefC2Ev @ 21 NONAME
	_ZN12TMdCProperty10SerializeLER23CMdCSerializationBuffer @ 22 NONAME
	_ZN12TMdCProperty12DeserializeLER23CMdCSerializationBuffer @ 23 NONAME
	_ZN12TMdCProperty14GetFromBufferLER23CMdCSerializationBuffer @ 24 NONAME
	_ZN12TMdCPropertyC1Ev @ 25 NONAME
	_ZN12TMdCPropertyC2Ev @ 26 NONAME
	_ZN12TMdCRelation10SerializeLER23CMdCSerializationBuffer @ 27 NONAME
	_ZN12TMdCRelation12DeserializeLER23CMdCSerializationBuffer @ 28 NONAME
	_ZN12TMdCRelation14GetFromBufferLER23CMdCSerializationBuffer @ 29 NONAME
	_ZN12TMdCRelationC1Ev @ 30 NONAME
	_ZN12TMdCRelationC2Ev @ 31 NONAME
	_ZN13TMdCCondition14GetFromBufferLER23CMdCSerializationBuffer @ 32 NONAME
	_ZN13TMdCObjectDef10SerializeLER23CMdCSerializationBuffer @ 33 NONAME
	_ZN13TMdCObjectDef12DeserializeLER23CMdCSerializationBuffer @ 34 NONAME
	_ZN13TMdCObjectDef14GetFromBufferLER23CMdCSerializationBuffer @ 35 NONAME
	_ZN13TMdCObjectDefC1Ev @ 36 NONAME
	_ZN13TMdCObjectDefC2Ev @ 37 NONAME
	_ZN13TMdCOrderRule10SerializeLER23CMdCSerializationBuffer @ 38 NONAME
	_ZN13TMdCOrderRule12DeserializeLER23CMdCSerializationBuffer @ 39 NONAME
	_ZN13TMdCOrderRule14GetFromBufferLER23CMdCSerializationBuffer @ 40 NONAME
	_ZN13TMdCOrderRuleC1Ev @ 41 NONAME
	_ZN13TMdCOrderRuleC2Ev @ 42 NONAME
	_ZN14TMdCItemCounts10SerializeLER23CMdCSerializationBuffer @ 43 NONAME
	_ZN14TMdCItemCounts12DeserializeLER23CMdCSerializationBuffer @ 44 NONAME
	_ZN14TMdCItemCounts14GetFromBufferLER23CMdCSerializationBuffer @ 45 NONAME
	_ZN14TMdCItemCountsC1Ev @ 46 NONAME
	_ZN14TMdCItemCountsC2Ev @ 47 NONAME
	_ZN15TMdCPropertyDef10SerializeLER23CMdCSerializationBuffer @ 48 NONAME
	_ZN15TMdCPropertyDef12DeserializeLER23CMdCSerializationBuffer @ 49 NONAME
	_ZN15TMdCPropertyDef14GetFromBufferLER23CMdCSerializationBuffer @ 50 NONAME
	_ZN15TMdCPropertyDefC1Ev @ 51 NONAME
	_ZN15TMdCPropertyDefC2Ev @ 52 NONAME
	_ZN15TMdCRelationDef10SerializeLER23CMdCSerializationBuffer @ 53 NONAME
	_ZN15TMdCRelationDef12DeserializeLER23CMdCSerializationBuffer @ 54 NONAME
	_ZN15TMdCRelationDef14GetFromBufferLER23CMdCSerializationBuffer @ 55 NONAME
	_ZN15TMdCRelationDefC1Ev @ 56 NONAME
	_ZN15TMdCRelationDefC2Ev @ 57 NONAME
	_ZN16TMdCNamespaceDef10SerializeLER23CMdCSerializationBuffer @ 58 NONAME
	_ZN16TMdCNamespaceDef12DeserializeLER23CMdCSerializationBuffer @ 59 NONAME
	_ZN16TMdCNamespaceDef14GetFromBufferLER23CMdCSerializationBuffer @ 60 NONAME
	_ZN16TMdCNamespaceDefC1Ev @ 61 NONAME
	_ZN16TMdCNamespaceDefC2Ev @ 62 NONAME
	_ZN18TMdCEventCondition10SerializeLER23CMdCSerializationBuffer @ 63 NONAME
	_ZN18TMdCEventCondition12DeserializeLER23CMdCSerializationBuffer @ 64 NONAME
	_ZN18TMdCEventCondition14GetFromBufferLER23CMdCSerializationBuffer @ 65 NONAME
	_ZN18TMdCEventConditionC1Ev @ 66 NONAME
	_ZN18TMdCEventConditionC2Ev @ 67 NONAME
	_ZN18TMdCLogicCondition10SerializeLER23CMdCSerializationBuffer @ 68 NONAME
	_ZN18TMdCLogicCondition12DeserializeLER23CMdCSerializationBuffer @ 69 NONAME
	_ZN18TMdCLogicCondition14GetFromBufferLER23CMdCSerializationBuffer @ 70 NONAME
	_ZN18TMdCLogicConditionC1Ev @ 71 NONAME
	_ZN18TMdCLogicConditionC2Ev @ 72 NONAME
	_ZN18TMdCSearchCriteria10SerializeLER23CMdCSerializationBuffer @ 73 NONAME
	_ZN18TMdCSearchCriteria12DeserializeLER23CMdCSerializationBuffer @ 74 NONAME
	_ZN18TMdCSearchCriteria14GetFromBufferLER23CMdCSerializationBuffer @ 75 NONAME
	_ZN18TMdCSearchCriteriaC1Ev @ 76 NONAME
	_ZN18TMdCSearchCriteriaC2Ev @ 77 NONAME
	_ZN19TMdCObjectCondition10SerializeLER23CMdCSerializationBuffer @ 78 NONAME
	_ZN19TMdCObjectCondition12DeserializeLER23CMdCSerializationBuffer @ 79 NONAME
	_ZN19TMdCObjectCondition14GetFromBufferLER23CMdCSerializationBuffer @ 80 NONAME
	_ZN19TMdCObjectConditionC1Ev @ 81 NONAME
	_ZN19TMdCObjectConditionC2Ev @ 82 NONAME
	_ZN21TMdCPropertyCondition10SerializeLER23CMdCSerializationBuffer @ 83 NONAME
	_ZN21TMdCPropertyCondition12DeserializeLER23CMdCSerializationBuffer @ 84 NONAME
	_ZN21TMdCPropertyCondition14GetFromBufferLER23CMdCSerializationBuffer @ 85 NONAME
	_ZN21TMdCPropertyConditionC1Ev @ 86 NONAME
	_ZN21TMdCPropertyConditionC2Ev @ 87 NONAME
	_ZN21TMdCRelationCondition10SerializeLER23CMdCSerializationBuffer @ 88 NONAME
	_ZN21TMdCRelationCondition12DeserializeLER23CMdCSerializationBuffer @ 89 NONAME
	_ZN21TMdCRelationCondition14GetFromBufferLER23CMdCSerializationBuffer @ 90 NONAME
	_ZN21TMdCRelationConditionC1Ev @ 91 NONAME
	_ZN21TMdCRelationConditionC2Ev @ 92 NONAME
	_ZN23CMdCSerializationBuffer12ReceiveDes8LEv @ 93 NONAME
	_ZN23CMdCSerializationBuffer12ReceivePtr8LEv @ 94 NONAME
	_ZN23CMdCSerializationBuffer12RequiredSizeERK6TDesC8 @ 95 NONAME
	_ZN23CMdCSerializationBuffer12RequiredSizeERK7TDesC16 @ 96 NONAME
	_ZN23CMdCSerializationBuffer13ReceiveDes16LEv @ 97 NONAME
	_ZN23CMdCSerializationBuffer13ReceivePtr16LEv @ 98 NONAME
	_ZN23CMdCSerializationBuffer4NewLEPhl @ 99 NONAME
	_ZN23CMdCSerializationBuffer4NewLERK9RMessage2i @ 100 NONAME
	_ZN23CMdCSerializationBuffer4NewLERKS_ @ 101 NONAME
	_ZN23CMdCSerializationBuffer4NewLEl @ 102 NONAME
	_ZN23CMdCSerializationBuffer5NewLCEPhl @ 103 NONAME
	_ZN23CMdCSerializationBuffer5NewLCERK9RMessage2i @ 104 NONAME
	_ZN23CMdCSerializationBuffer5NewLCERKS_ @ 105 NONAME
	_ZN23CMdCSerializationBuffer5NewLCEl @ 106 NONAME
	_ZN23CMdCSerializationBuffer7InsertLE5TTime @ 107 NONAME
	_ZN23CMdCSerializationBuffer7InsertLER14TMdCValueUnion @ 108 NONAME
	_ZN23CMdCSerializationBuffer7InsertLER21TMdCSerializationTypem @ 109 NONAME
	_ZN23CMdCSerializationBuffer7InsertLER6TDesC8 @ 110 NONAME
	_ZN23CMdCSerializationBuffer7InsertLER7TDesC16 @ 111 NONAME
	_ZN23CMdCSerializationBuffer7InsertLEa @ 112 NONAME
	_ZN23CMdCSerializationBuffer7InsertLEd @ 113 NONAME
	_ZN23CMdCSerializationBuffer7InsertLEf @ 114 NONAME
	_ZN23CMdCSerializationBuffer7InsertLEh @ 115 NONAME
	_ZN23CMdCSerializationBuffer7InsertLEi @ 116 NONAME
	_ZN23CMdCSerializationBuffer7InsertLEj @ 117 NONAME
	_ZN23CMdCSerializationBuffer7InsertLEl @ 118 NONAME
	_ZN23CMdCSerializationBuffer7InsertLEm @ 119 NONAME
	_ZN23CMdCSerializationBuffer7InsertLEs @ 120 NONAME
	_ZN23CMdCSerializationBuffer7InsertLEt @ 121 NONAME
	_ZN23CMdCSerializationBuffer7InsertLEx @ 122 NONAME
	_ZN23CMdCSerializationBuffer8ReceiveLER14TMdCValueUnion @ 123 NONAME
	_ZN23CMdCSerializationBuffer8ReceiveLER21TMdCSerializationTypem @ 124 NONAME
	_ZN23CMdCSerializationBuffer8ReceiveLER5TDes8 @ 125 NONAME
	_ZN23CMdCSerializationBuffer8ReceiveLER5TTime @ 126 NONAME
	_ZN23CMdCSerializationBuffer8ReceiveLER6TDes16 @ 127 NONAME
	_ZN23CMdCSerializationBuffer8ReceiveLERa @ 128 NONAME
	_ZN23CMdCSerializationBuffer8ReceiveLERd @ 129 NONAME
	_ZN23CMdCSerializationBuffer8ReceiveLERf @ 130 NONAME
	_ZN23CMdCSerializationBuffer8ReceiveLERh @ 131 NONAME
	_ZN23CMdCSerializationBuffer8ReceiveLERi @ 132 NONAME
	_ZN23CMdCSerializationBuffer8ReceiveLERj @ 133 NONAME
	_ZN23CMdCSerializationBuffer8ReceiveLERl @ 134 NONAME
	_ZN23CMdCSerializationBuffer8ReceiveLERm @ 135 NONAME
	_ZN23CMdCSerializationBuffer8ReceiveLERs @ 136 NONAME
	_ZN23CMdCSerializationBuffer8ReceiveLERt @ 137 NONAME
	_ZN23CMdCSerializationBuffer8ReceiveLERx @ 138 NONAME
	_ZN23CMdCSerializationBuffer9PositionLEm @ 139 NONAME
	_ZN9TMdCEvent10SerializeLER23CMdCSerializationBuffer @ 140 NONAME
	_ZN9TMdCEvent12DeserializeLER23CMdCSerializationBuffer @ 141 NONAME
	_ZN9TMdCEvent14GetFromBufferLER23CMdCSerializationBuffer @ 142 NONAME
	_ZN9TMdCEventC1Ev @ 143 NONAME
	_ZN9TMdCEventC2Ev @ 144 NONAME
	_ZN9TMdCItems10SerializeLER23CMdCSerializationBuffer @ 145 NONAME
	_ZN9TMdCItems12DeserializeLER23CMdCSerializationBuffer @ 146 NONAME
	_ZN9TMdCItems14GetFromBufferLER23CMdCSerializationBuffer @ 147 NONAME
	_ZN9TMdCItemsC1Ev @ 148 NONAME
	_ZN9TMdCItemsC2Ev @ 149 NONAME
	_ZNK23CMdCSerializationBuffer14BufferConstPtrEv @ 150 NONAME
	_ZNK23CMdCSerializationBuffer22ReceiveDesciptorLengthEv @ 151 NONAME
	_ZNK23CMdCSerializationBuffer4SizeEv @ 152 NONAME
	_ZNK23CMdCSerializationBuffer6BufferEv @ 153 NONAME
	_ZNK23CMdCSerializationBuffer8PositionEv @ 154 NONAME
	_ZNK23CMdCSerializationBuffer9BufferPtrEv @ 155 NONAME

