EXPORTS
	_ZN12CPsetNetwork12IsCallActiveEv @ 1 NONAME
	_ZN12CPsetNetwork13CancelProcessEv @ 2 NONAME
	_ZN12CPsetNetwork14SelectNetworkLERKN18MPsetNetworkSelect12TNetworkInfoE @ 3 NONAME
	_ZN12CPsetNetwork15IsGPRSConnectedEv @ 4 NONAME
	_ZN12CPsetNetwork16SetNetSAObserverER24MPsetNetworkInfoObserver @ 5 NONAME
	_ZN12CPsetNetwork18ResetNetworkSearchEv @ 6 NONAME
	_ZN12CPsetNetwork20GetNetworkSelectModeERN18MPsetNetworkSelect11TSelectModeE @ 7 NONAME
	_ZN12CPsetNetwork21GetAvailableNetworksLEv @ 8 NONAME
	_ZN12CPsetNetwork21GetCurrentNetworkInfoERN18MPsetNetworkSelect19TCurrentNetworkInfoE @ 9 NONAME
	_ZN12CPsetNetwork22SetNetworkModeObserverER24MPsetNetworkModeObserver @ 10 NONAME
	_ZN12CPsetNetwork24SetNetworkModeSelectionLERm @ 11 NONAME
	_ZN12CPsetNetwork31GetCurrentNetworkModeSelectionLEv @ 12 NONAME
	_ZN12CPsetNetwork4NewLER12RMobilePhoneR24MPsetNetworkInfoObserver @ 13 NONAME
	_ZN12CPsetNetwork4NewLER12RMobilePhoneR24MPsetNetworkModeObserver @ 14 NONAME
	_ZN12CPsetNetworkD0Ev @ 15 NONAME
	_ZN12CPsetNetworkD1Ev @ 16 NONAME
	_ZN12CPsetNetworkD2Ev @ 17 NONAME
	_ZN14CPsetContainer15CreateCBObjectLER20MPsetBarringObserver @ 18 NONAME
	_ZN14CPsetContainer15CreateCFObjectLER19MPsetDivertObserver @ 19 NONAME
	_ZN14CPsetContainer15CreateCWObjectLER24MPsetCallWaitingObserver @ 20 NONAME
	_ZN14CPsetContainer16CreateCliObjectLER16MPsetCliObserver @ 21 NONAME
	_ZN14CPsetContainer20CreateNetworkObjectLER24MPsetNetworkInfoObserver @ 22 NONAME
	_ZN14CPsetContainer21CreateRefreshHandlerLEv @ 23 NONAME
	_ZN14CPsetContainer24CreateNetworkModeObjectLER24MPsetNetworkModeObserver @ 24 NONAME
	_ZN14CPsetContainer4NewLEv @ 25 NONAME
	_ZN14CPsetContainerD0Ev @ 26 NONAME
	_ZN14CPsetContainerD1Ev @ 27 NONAME
	_ZN14CPsetContainerD2Ev @ 28 NONAME
	_ZN15CPsetSAObserver12IsCallActiveEv @ 29 NONAME
	_ZN15CPsetSAObserver14SetNetObserverER24MPsetNetworkInfoObserver @ 30 NONAME
	_ZN15CPsetSAObserver15IsGPRSConnectedEv @ 31 NONAME
	_ZN15CPsetSAObserver18NotifyDivertChangeE13TSelectedLineR24TCallDivertNotifySettingRKi @ 32 NONAME
	_ZN15CPsetSAObserver22GetCurrentDivertStatusER22TUnconditionalCFStatus @ 33 NONAME
	_ZN15CPsetSAObserver4NewLEv @ 34 NONAME
	_ZN15CPsetSAObserverD0Ev @ 35 NONAME
	_ZN15CPsetSAObserverD1Ev @ 36 NONAME
	_ZN15CPsetSAObserverD2Ev @ 37 NONAME
	_ZN16CPsetCallBarring11SetBarringLERK19TCallBarringSetting19TBasicServiceGroups @ 38 NONAME
	_ZN16CPsetCallBarring15ChangePasswordLERN12RMobilePhone28TMobilePhonePasswordChangeV2E @ 39 NONAME
	_ZN16CPsetCallBarring15ChangePasswordLERN12RMobilePhone28TMobilePhonePasswordChangeV2Ei @ 40 NONAME
	_ZN16CPsetCallBarring17GetBarringStatusLE13TServiceGroup15TBarringProgram @ 41 NONAME
	_ZN16CPsetCallBarring18SetRequestObserverEP20MPsetRequestObserver @ 42 NONAME
	_ZN16CPsetCallBarring20CancelCurrentRequestEv @ 43 NONAME
	_ZN16CPsetCallBarringD0Ev @ 44 NONAME
	_ZN16CPsetCallBarringD1Ev @ 45 NONAME
	_ZN16CPsetCallBarringD2Ev @ 46 NONAME
	_ZN16CPsetCallWaiting13CancelProcessEv @ 47 NONAME
	_ZN16CPsetCallWaiting15SetCallWaitingLEN16MPsetCallWaiting15TSetCallWaitingE19TBasicServiceGroups @ 48 NONAME
	_ZN16CPsetCallWaiting18SetRequestObserverEP20MPsetRequestObserver @ 49 NONAME
	_ZN16CPsetCallWaiting21GetCallWaitingStatusLEv @ 50 NONAME
	_ZN16CPsetCallWaiting4NewLER12RMobilePhoneR24MPsetCallWaitingObserver @ 51 NONAME
	_ZN16CPsetCallWaitingD0Ev @ 52 NONAME
	_ZN16CPsetCallWaitingD1Ev @ 53 NONAME
	_ZN16CPsetCallWaitingD2Ev @ 54 NONAME
	_ZN18CPsetCallDiverting13SetDivertingLERK18TCallDivertSetting19TBasicServiceGroupsi @ 55 NONAME
	_ZN18CPsetCallDiverting14GetTimerValueLEv @ 56 NONAME
	_ZN18CPsetCallDiverting14SetTimerValueLERKi @ 57 NONAME
	_ZN18CPsetCallDiverting15VideoMailQueryLER6TDes16 @ 58 NONAME
	_ZN18CPsetCallDiverting15VoiceMailQueryLER6TDes16 @ 59 NONAME
	_ZN18CPsetCallDiverting17SetUsedFaxNumberLER4TBufILi100EE @ 60 NONAME
	_ZN18CPsetCallDiverting18GetDefaultNumbersLER16CDesC16ArrayFlat @ 61 NONAME
	_ZN18CPsetCallDiverting18GetUsedFaxNumberLCEv @ 62 NONAME
	_ZN18CPsetCallDiverting18SetRequestObserverEP20MPsetRequestObserver @ 63 NONAME
	_ZN18CPsetCallDiverting18SetUsedDataNumberLER4TBufILi100EE @ 64 NONAME
	_ZN18CPsetCallDiverting18SwapDefaultNumberLERKi @ 65 NONAME
	_ZN18CPsetCallDiverting19GetDivertingStatusLE13TServiceGroup23TCallDivertingCondition19TBasicServiceGroups @ 66 NONAME
	_ZN18CPsetCallDiverting19GetUsedDataNumberLCEv @ 67 NONAME
	_ZN18CPsetCallDiverting20CancelCurrentRequestEv @ 68 NONAME
	_ZN18CPsetCallDiverting20SetNewDefaultNumberLER6TDes16 @ 69 NONAME
	_ZN18CPsetCallDiverting4NewLER19MPsetDivertObserverR12RMobilePhone @ 70 NONAME
	_ZN18CPsetCallDivertingD0Ev @ 71 NONAME
	_ZN18CPsetCallDivertingD1Ev @ 72 NONAME
	_ZN18CPsetCallDivertingD2Ev @ 73 NONAME
	_ZN27CPsetCustomerServiceProfile13IsCBSupportedERi @ 74 NONAME
	_ZN27CPsetCustomerServiceProfile13IsCFSupportedERi @ 75 NONAME
	_ZN27CPsetCustomerServiceProfile13IsCWSupportedERi @ 76 NONAME
	_ZN27CPsetCustomerServiceProfile14IsALSSupportedERi @ 77 NONAME
	_ZN27CPsetCustomerServiceProfile14OpenCSProfileLEv @ 78 NONAME
	_ZN27CPsetCustomerServiceProfile27IsNetworkSelectionSupportedERi @ 79 NONAME
	_ZN27CPsetCustomerServiceProfile4NewLEv @ 80 NONAME
	_ZN27CPsetCustomerServiceProfileD0Ev @ 81 NONAME
	_ZN27CPsetCustomerServiceProfileD1Ev @ 82 NONAME
	_ZN27CPsetCustomerServiceProfileD2Ev @ 83 NONAME
	_ZN8CPsetCli12GetClipModeLEv @ 84 NONAME
	_ZN8CPsetCli12GetClirModeLEv @ 85 NONAME
	_ZN8CPsetCli12GetColpModeLEv @ 86 NONAME
	_ZN8CPsetCli12GetColrModeLEv @ 87 NONAME
	_ZN8CPsetCli18SetRequestObserverEP20MPsetRequestObserver @ 88 NONAME
	_ZN8CPsetCli4NewLER12RMobilePhoneR16MPsetCliObserver @ 89 NONAME
	_ZN8CPsetCli8GetCnapLEv @ 90 NONAME
	_ZN8CPsetCli9CancelAllEv @ 91 NONAME
	_ZN8CPsetCliD0Ev @ 92 NONAME
	_ZN8CPsetCliD1Ev @ 93 NONAME
	_ZN8CPsetCliD2Ev @ 94 NONAME
	_ZTI12CPsetNetwork @ 95 NONAME
	_ZTI14CPsetContainer @ 96 NONAME
	_ZTI14CPsetTelephony @ 97 NONAME
	_ZTI15CPsetSAObserver @ 98 NONAME
	_ZTI16CPsetCallBarring @ 99 NONAME
	_ZTI16CPsetCallWaiting @ 100 NONAME
	_ZTI18CPsetCallDiverting @ 101 NONAME
	_ZTI23CPSetRefreshHandlerImpl @ 102 NONAME
	_ZTI27CPsetCustomerServiceProfile @ 103 NONAME
	_ZTI8CPsetCli @ 104 NONAME
	_ZTV12CPsetNetwork @ 105 NONAME
	_ZTV14CPsetContainer @ 106 NONAME
	_ZTV14CPsetTelephony @ 107 NONAME
	_ZTV15CPsetSAObserver @ 108 NONAME
	_ZTV16CPsetCallBarring @ 109 NONAME
	_ZTV16CPsetCallWaiting @ 110 NONAME
	_ZTV18CPsetCallDiverting @ 111 NONAME
	_ZTV23CPSetRefreshHandlerImpl @ 112 NONAME
	_ZTV27CPsetCustomerServiceProfile @ 113 NONAME
	_ZTV8CPsetCli @ 114 NONAME
	_ZThn28_N12CPsetNetwork13CancelProcessEv @ 115 NONAME
	_ZThn28_N12CPsetNetwork14SelectNetworkLERKN18MPsetNetworkSelect12TNetworkInfoE @ 116 NONAME
	_ZThn28_N12CPsetNetwork20GetNetworkSelectModeERN18MPsetNetworkSelect11TSelectModeE @ 117 NONAME
	_ZThn28_N12CPsetNetwork21GetAvailableNetworksLEv @ 118 NONAME
	_ZThn28_N12CPsetNetwork21GetCurrentNetworkInfoERN18MPsetNetworkSelect19TCurrentNetworkInfoE @ 119 NONAME
	_ZThn28_N16CPsetCallBarring11SetBarringLERK19TCallBarringSetting19TBasicServiceGroups @ 120 NONAME
	_ZThn28_N16CPsetCallBarring17GetBarringStatusLE13TServiceGroup15TBarringProgram @ 121 NONAME
	_ZThn28_N16CPsetCallBarring20CancelCurrentRequestEv @ 122 NONAME
	_ZThn28_N16CPsetCallWaiting13CancelProcessEv @ 123 NONAME
	_ZThn28_N16CPsetCallWaiting15SetCallWaitingLEN16MPsetCallWaiting15TSetCallWaitingE19TBasicServiceGroups @ 124 NONAME
	_ZThn28_N16CPsetCallWaiting21GetCallWaitingStatusLEv @ 125 NONAME
	_ZThn28_N8CPsetCli12GetClipModeLEv @ 126 NONAME
	_ZThn28_N8CPsetCli12GetClirModeLEv @ 127 NONAME
	_ZThn28_N8CPsetCli12GetColpModeLEv @ 128 NONAME
	_ZThn28_N8CPsetCli12GetColrModeLEv @ 129 NONAME
	_ZThn28_N8CPsetCli8GetCnapLEv @ 130 NONAME
	_ZThn28_N8CPsetCli9CancelAllEv @ 131 NONAME
	_ZThn32_N12CPsetNetwork24SetNetworkModeSelectionLERm @ 132 NONAME
	_ZThn32_N12CPsetNetwork31GetCurrentNetworkModeSelectionLEv @ 133 NONAME
	_ZThn4_N18CPsetCallDiverting13SetDivertingLERK18TCallDivertSetting19TBasicServiceGroupsi @ 134 NONAME
	_ZThn4_N18CPsetCallDiverting19GetDivertingStatusLE13TServiceGroup23TCallDivertingCondition19TBasicServiceGroups @ 135 NONAME
	_ZThn4_N18CPsetCallDiverting20CancelCurrentRequestEv @ 136 NONAME

