EXPORTS
	_ZN12CBIODatabase10BIOEntryLCEi @ 1 NONAME
	_ZN12CBIODatabase10RemoveBifLE4TUid @ 2 NONAME
	_ZN12CBIODatabase10RemoveBifLEi @ 3 NONAME
	_ZN12CBIODatabase11AddAllBifsLER3RFs @ 4 NONAME
	_ZN12CBIODatabase11GetBioMsgIDEiR4TUid @ 5 NONAME
	_ZN12CBIODatabase11GetFileExtLE4TUid @ 6 NONAME
	_ZN12CBIODatabase13IsBioMessageLE13TBioMsgIdTypeRK7TDesC16tR4TUid @ 7 NONAME
	_ZN12CBIODatabase13IsBioMessageLE9TBioMsgIdR4TUid @ 8 NONAME
	_ZN12CBIODatabase14GetBioParserIDEiR4TUid @ 9 NONAME ABSENT
	_ZN12CBIODatabase14GetPortNumberLE4TUid13TBioMsgIdTypeRi @ 10 NONAME
	_ZN12CBIODatabase15GetBioControlIDEiR4TUid @ 11 NONAME
	_ZN12CBIODatabase15GetBioParserIDLE4TUidRS0_ @ 12 NONAME ABSENT
	_ZN12CBIODatabase16BioEntryByTypeLCENS_11TSearchListE13TBioMsgIdTypeRi @ 13 NONAME
	_ZN12CBIODatabase16GetBioControlIDLE4TUidRS0_ @ 14 NONAME
	_ZN12CBIODatabase18GetIdentifierTextLE4TUid13TBioMsgIdTypeR4TBufILi128EE @ 15 NONAME
	_ZN12CBIODatabase21GetBioIndexWithMsgIDLE4TUidRi @ 16 NONAME
	_ZN12CBIODatabase21GetDefaultSendBearerLE4TUidR9TBioMsgId @ 17 NONAME
	_ZN12CBIODatabase24GetBioIndexWithParserIDLE4TUidRi @ 18 NONAME ABSENT
	_ZN12CBIODatabase25GetDefaultSendBearerTypeLE4TUidR13TBioMsgIdType @ 19 NONAME
	_ZN12CBIODatabase27GetDefaultSendBearerByTypeLE4TUid13TBioMsgIdTypeR9TBioMsgId @ 20 NONAME
	_ZN12CBIODatabase4NewLER3RFs @ 21 NONAME
	_ZN12CBIODatabase5NewLCER3RFs @ 22 NONAME
	_ZN12CBIODatabase7AddBifLEP18CBioInfoFileReader @ 23 NONAME
	_ZN12CBIODatabase8BIOCountEv @ 24 NONAME
	_ZN18CBifChangeObserver4NewLER18MBifChangeObserverR3RFs @ 25 NONAME
	_ZN18CBifChangeObserver5StartEv @ 26 NONAME
	_ZNK12CBIODatabase9BifReaderEi @ 27 NONAME
	_ZTI12CBIODatabase @ 28 NONAME ; #<TI>#
	_ZTI18CBifChangeObserver @ 29 NONAME ; #<TI>#
	_ZTV12CBIODatabase @ 30 NONAME ; #<VT>#
	_ZTV18CBifChangeObserver @ 31 NONAME ; #<VT>#
	_ZN12CBIODatabase16GetBioParserNameEi @ 32 NONAME
	_ZN12CBIODatabase17GetBioParserNameLE4TUid @ 33 NONAME
	_ZN12CBIODatabase17IsBioParserSecureEi @ 34 NONAME ABSENT
	_ZN12CBIODatabase18IsBioParserSecureLE4TUid @ 35 NONAME ABSENT
	_ZN12CBIODatabase17GetBioControlNameEi @ 36 NONAME
	_ZN12CBIODatabase18GetBioControlNameLE4TUid @ 37 NONAME
	_ZN12CBIODatabaseD0Ev @ 38 NONAME
	_ZN12CBIODatabaseD1Ev @ 39 NONAME
	_ZN12CBIODatabaseD2Ev @ 40 NONAME


