EXPORTS
	??0RCbs@@QAE@XZ @ 1 NONAME ; RCbs::RCbs(void)
	??1RCbs@@QAE@XZ @ 2 NONAME ; RCbs::~RCbs(void)
	?AddTopic@RCbs@@QAEHAAUTCbsDbTopic@@@Z @ 3 NONAME ; int RCbs::AddTopic(struct TCbsDbTopic &)
	?ChangeTopicHotmarkStatus@RCbs@@QAEHGH@Z @ 4 NONAME ; int RCbs::ChangeTopicHotmarkStatus(unsigned short, int)
	?ChangeTopicNameAndNumber@RCbs@@QAEHGGABV?$TBuf@$0FA@@@@Z @ 5 NONAME ; int RCbs::ChangeTopicNameAndNumber(unsigned short, unsigned short, class TBuf<80> const &)
	?ChangeTopicSubscriptionStatus@RCbs@@QAEHGH@Z @ 6 NONAME ; int RCbs::ChangeTopicSubscriptionStatus(unsigned short, int)
	?Close@RCbs@@QAEXXZ @ 7 NONAME ; void RCbs::Close(void)
	?Connect@RCbs@@QAEHXZ @ 8 NONAME ; int RCbs::Connect(void)
	?Connected@RCbs@@QBEHXZ @ 9 NONAME ; int RCbs::Connected(void) const
	?DeleteAllTopics@RCbs@@QAEHXZ @ 10 NONAME ; int RCbs::DeleteAllTopics(void)
	?DeleteMessage@RCbs@@QAEHABK@Z @ 11 NONAME ; int RCbs::DeleteMessage(unsigned long const &)
	?DeleteTopic@RCbs@@QAEHG@Z @ 12 NONAME ; int RCbs::DeleteTopic(unsigned short)
	?FindMessageByHandle@RCbs@@QAEHABKAAUTCbsDbMessage@@@Z @ 13 NONAME ; int RCbs::FindMessageByHandle(unsigned long const &, struct TCbsDbMessage &)
	?FindTopicByNumber@RCbs@@QAEHGAAUTCbsDbTopic@@@Z @ 14 NONAME ; int RCbs::FindTopicByNumber(unsigned short, struct TCbsDbTopic &)
	?GetHotmarkedMessageHandle@RCbs@@QAEXAAK@Z @ 15 NONAME ; void RCbs::GetHotmarkedMessageHandle(unsigned long &)
	?GetLanguages@RCbs@@QAEXAAUTCbsDbLanguages@@@Z @ 16 NONAME ; void RCbs::GetLanguages(struct TCbsDbLanguages &)
	?GetLatestTopicNumber@RCbs@@QAEHAAG@Z @ 17 NONAME ; int RCbs::GetLatestTopicNumber(unsigned short &)
	?GetMessage@RCbs@@QAEHGHAAUTCbsDbMessage@@@Z @ 18 NONAME ; int RCbs::GetMessage(unsigned short, int, struct TCbsDbMessage &)
	?GetMessageContents@RCbs@@QAEHABKAAVTDes16@@@Z @ 19 NONAME ; int RCbs::GetMessageContents(unsigned long const &, class TDes16 &)
	?GetMessageCount@RCbs@@QAEHGAAH@Z @ 20 NONAME ; int RCbs::GetMessageCount(unsigned short, int &)
	?GetMessageIndexByHandle@RCbs@@QAEHABKAAH@Z @ 21 NONAME ; int RCbs::GetMessageIndexByHandle(unsigned long const &, int &)
	?GetNewTopicsCount@RCbs@@QAEHAAH@Z @ 22 NONAME ; int RCbs::GetNewTopicsCount(int &)
	?GetNextAndPrevMessageHandle@RCbs@@QAEHABKAAK1AAH@Z @ 23 NONAME ; int RCbs::GetNextAndPrevMessageHandle(unsigned long const &, unsigned long &, unsigned long &, int &)
	?GetNextAndPrevTopicNumber@RCbs@@QAEHABGAAG1AAH@Z @ 24 NONAME ; int RCbs::GetNextAndPrevTopicNumber(unsigned short const &, unsigned short &, unsigned short &, int &)
	?GetReceptionStatus@RCbs@@QAEXAAH@Z @ 25 NONAME ; void RCbs::GetReceptionStatus(int &)
	?GetTopic@RCbs@@QAEHHAAUTCbsDbTopic@@@Z @ 26 NONAME ; int RCbs::GetTopic(int, struct TCbsDbTopic &)
	?GetTopicCount@RCbs@@QAEXAAH@Z @ 27 NONAME ; void RCbs::GetTopicCount(int &)
	?GetTopicDetectionStatus@RCbs@@QAEXAAH@Z @ 28 NONAME ; void RCbs::GetTopicDetectionStatus(int &)
	?GetUnreadMessageCount@RCbs@@QAEXAAH@Z @ 29 NONAME ; void RCbs::GetUnreadMessageCount(int &)
	?HasNextCollectionTopic@RCbs@@QAEHXZ @ 30 NONAME ; int RCbs::HasNextCollectionTopic(void)
	?LockMessage@RCbs@@QAEHABK@Z @ 31 NONAME ; int RCbs::LockMessage(unsigned long const &)
	?NewL@CCbsMessageClient@@SAPAV1@XZ @ 32 NONAME ; class CCbsMessageClient * CCbsMessageClient::NewL(void)
	?NextCollectionTopic@RCbs@@QAEHAAUTCbsDbTopicIdentity@@@Z @ 33 NONAME ; int RCbs::NextCollectionTopic(struct TCbsDbTopicIdentity &)
	?NotifyOnTopicListEvent@RCbs@@QAEXAAVTRequestStatus@@HAAW4TCbsTopicListEvent@@AAG@Z @ 34 NONAME ; void RCbs::NotifyOnTopicListEvent(class TRequestStatus &, int, enum TCbsTopicListEvent &, unsigned short &)
	?NotifyOnTopicListEventCancel@RCbs@@QAEXXZ @ 35 NONAME ; void RCbs::NotifyOnTopicListEventCancel(void)
	?NotifySettingsChanged@RCbs@@QAEXAAVTRequestStatus@@AAW4TCbsSettingsEvent@@@Z @ 36 NONAME ; void RCbs::NotifySettingsChanged(class TRequestStatus &, enum TCbsSettingsEvent &)
	?NotifySettingsChangedCancel@RCbs@@QAEXXZ @ 37 NONAME ; void RCbs::NotifySettingsChangedCancel(void)
	?NumberOfUnreadHotmarkedMessages@RCbs@@QAEHXZ @ 38 NONAME ; int RCbs::NumberOfUnreadHotmarkedMessages(void)
	?ReadMessage@RCbs@@QAEHABK@Z @ 39 NONAME ; int RCbs::ReadMessage(unsigned long const &)
	?SaveMessage@RCbs@@QAEHABK@Z @ 40 NONAME ; int RCbs::SaveMessage(unsigned long const &)
	?SetLanguages@RCbs@@QAEHABUTCbsDbLanguages@@@Z @ 41 NONAME ; int RCbs::SetLanguages(struct TCbsDbLanguages const &)
	?SetReceptionStatus@RCbs@@QAEHH@Z @ 42 NONAME ; int RCbs::SetReceptionStatus(int)
	?SetTopicDetectionStatus@RCbs@@QAEHH@Z @ 43 NONAME ; int RCbs::SetTopicDetectionStatus(int)
	?Shutdown@RCbs@@QBEXXZ @ 44 NONAME ; void RCbs::Shutdown(void) const
	?StartCollectionBrowsing@RCbs@@QAEXXZ @ 45 NONAME ; void RCbs::StartCollectionBrowsing(void)
	?Version@RCbs@@QBE?AVTVersion@@XZ @ 46 NONAME ; class TVersion RCbs::Version(void) const

