EXPORTS
	_ZN12CHttpService16AddRequestHeaderEiRK23THttpHeaderValueVariant @ 1 NONAME
	_ZN12CHttpService17SetMaxConnectionsEi @ 2 NONAME
	_ZN12CHttpService22AddCustomRequestHeaderERK6TDesC8S2_ @ 3 NONAME
	_ZN12CHttpService28SetMaxTransactionsToPipelineEi @ 4 NONAME
	_ZN12CHttpService4NewLEv @ 5 NONAME
	_ZN12CHttpService6StringEiR6TPtrC8 @ 6 NONAME
	_ZN12CHttpService8SetProxyERK6TDesC8 @ 7 NONAME
	_ZN12CHttpServiceD0Ev @ 8 NONAME
	_ZN12CHttpServiceD1Ev @ 9 NONAME
	_ZN12CHttpServiceD2Ev @ 10 NONAME
	_ZN18THttpContentSinkOp5StoreEv @ 11 NONAME
	_ZN18THttpContentSinkOp7GetDataER6TPtrC8 @ 12 NONAME
	_ZN18THttpContentSinkOp7ReleaseEv @ 13 NONAME
	_ZN18THttpContentSinkOpC1Ev @ 14 NONAME
	_ZN18THttpContentSinkOpC2Ev @ 15 NONAME
	_ZN19THttpHeaderIteratorC1EPK8CHeadersi @ 16 NONAME
	_ZN19THttpHeaderIteratorC1Ev @ 17 NONAME
	_ZN19THttpHeaderIteratorC2EPK8CHeadersi @ 18 NONAME
	_ZN19THttpHeaderIteratorC2Ev @ 19 NONAME
	_ZN19THttpHeaderIteratorppEi @ 20 NONAME
	_ZN19THttpHeaderIteratorppEv @ 21 NONAME
	_ZN20THttpContentSourceOp6NotifyERK6TDesC8i @ 22 NONAME
	_ZN20THttpContentSourceOpC1Ev @ 23 NONAME
	_ZN20THttpContentSourceOpC2Ev @ 24 NONAME
	_ZN22CHttpClientTransaction10SetNoRetryEv @ 25 NONAME
	_ZN22CHttpClientTransaction11SendRequestEv @ 26 NONAME
	_ZN22CHttpClientTransaction13CancelRequestEv @ 27 NONAME
	_ZN22CHttpClientTransaction13OnRedirectionEv @ 28 NONAME
	_ZN22CHttpClientTransaction14ResponseHeaderERK6TDesC8 @ 29 NONAME
	_ZN22CHttpClientTransaction14ResponseHeaderEi @ 30 NONAME
	_ZN22CHttpClientTransaction14SetContentSinkER16MHttpContentSink @ 31 NONAME
	_ZN22CHttpClientTransaction14SetContentSinkER5RFile @ 32 NONAME
	_ZN22CHttpClientTransaction16AddRequestHeaderERK6TDesC8RK23THttpHeaderValueVariant @ 33 NONAME
	_ZN22CHttpClientTransaction16AddRequestHeaderERK6TDesC8RK23THttpHeaderValueVariantS2_S5_ @ 34 NONAME
	_ZN22CHttpClientTransaction16AddRequestHeaderEiRK23THttpHeaderValueVariant @ 35 NONAME
	_ZN22CHttpClientTransaction16AddRequestHeaderEiRK23THttpHeaderValueVariantiS2_ @ 36 NONAME
	_ZN22CHttpClientTransaction16SetContentSourceER18MHttpContentSource @ 37 NONAME
	_ZN22CHttpClientTransaction16SetContentSourceER5RFile @ 38 NONAME
	_ZN22CHttpClientTransaction17DisablePipeliningEv @ 39 NONAME
	_ZN22CHttpClientTransaction17SetRequestTimeoutEi @ 40 NONAME
	_ZN22CHttpClientTransaction18OnTransferProgressEii @ 41 NONAME
	_ZN22CHttpClientTransaction18SetResponseTimeoutEi @ 42 NONAME
	_ZN22CHttpClientTransaction22AddCustomRequestHeaderERK6TDesC8S2_ @ 43 NONAME
	_ZN22CHttpClientTransaction6CreateER12CHttpServiceRK6TDesC8S4_ @ 44 NONAME
	_ZN22CHttpClientTransaction9OnWarningEi @ 45 NONAME
	_ZN22CHttpClientTransactionC2Ev @ 46 NONAME
	_ZN22CHttpClientTransactionD0Ev @ 47 NONAME
	_ZN22CHttpClientTransactionD1Ev @ 48 NONAME
	_ZN22CHttpClientTransactionD2Ev @ 49 NONAME
	_ZN24THttpHeaderParamIteratorC1EPK13RPointerArrayI17CHeaderFieldParamEi @ 50 NONAME
	_ZN24THttpHeaderParamIteratorC1Ev @ 51 NONAME
	_ZN24THttpHeaderParamIteratorC2EPK13RPointerArrayI17CHeaderFieldParamEi @ 52 NONAME
	_ZN24THttpHeaderParamIteratorC2Ev @ 53 NONAME
	_ZN24THttpHeaderParamIteratorppEi @ 54 NONAME
	_ZN24THttpHeaderParamIteratorppEv @ 55 NONAME
	_ZN26THttpHeaderElementIteratorC1EPK13RPointerArrayI16CHeaderFieldPartEi @ 56 NONAME
	_ZN26THttpHeaderElementIteratorC1Ev @ 57 NONAME
	_ZN26THttpHeaderElementIteratorC2EPK13RPointerArrayI16CHeaderFieldPartEi @ 58 NONAME
	_ZN26THttpHeaderElementIteratorC2Ev @ 59 NONAME
	_ZN26THttpHeaderElementIteratorppEi @ 60 NONAME
	_ZN26THttpHeaderElementIteratorppEv @ 61 NONAME
	_ZNK12CHttpService12ProxyAddressEv @ 62 NONAME
	_ZNK12CHttpService14MaxConnectionsEv @ 63 NONAME
	_ZNK12CHttpService25MaxTransactionsToPipelineEv @ 64 NONAME
	_ZNK19THttpHeaderIterator10ParametersEv @ 65 NONAME
	_ZNK19THttpHeaderIterator4NameEv @ 66 NONAME
	_ZNK19THttpHeaderIterator5AtEndEv @ 67 NONAME
	_ZNK19THttpHeaderIterator8ElementsEv @ 68 NONAME
	_ZNK22CHttpClientTransaction10StatusCodeEv @ 69 NONAME
	_ZNK22CHttpClientTransaction10StatusTextEv @ 70 NONAME
	_ZNK22CHttpClientTransaction15ResponseHeadersEv @ 71 NONAME
	_ZNK24THttpHeaderParamIterator4NameEv @ 72 NONAME
	_ZNK24THttpHeaderParamIterator5AtEndEv @ 73 NONAME
	_ZNK24THttpHeaderParamIterator5ValueEv @ 74 NONAME
	_ZNK26THttpHeaderElementIterator5AtEndEv @ 75 NONAME
	_ZNK26THttpHeaderElementIterator5ValueEv @ 76 NONAME
	_ZNK26THttpHeaderElementIterator9ParameterEv @ 77 NONAME
	_ZTI12CHttpService @ 78 NONAME
	_ZTI15CHttpDataSender @ 79 NONAME
	_ZTI15CHttpFileReader @ 80 NONAME
	_ZTI15CHttpFileWriter @ 81 NONAME
	_ZTI17CHttpDataReceiver @ 82 NONAME
	_ZTI22CHttpClientTransaction @ 83 NONAME
	_ZTI26CHttpClientTransactionImpl @ 84 NONAME
	_ZTV12CHttpService @ 85 NONAME
	_ZTV15CHttpDataSender @ 86 NONAME
	_ZTV15CHttpFileReader @ 87 NONAME
	_ZTV15CHttpFileWriter @ 88 NONAME
	_ZTV17CHttpDataReceiver @ 89 NONAME
	_ZTV22CHttpClientTransaction @ 90 NONAME
	_ZTV26CHttpClientTransactionImpl @ 91 NONAME
	_ZN12CHttpService17SetAuthenticationEP26MHTTPServiceAuthentication @ 92 NONAME
	_ZN12CHttpService21HttpNetworkConnectionEv @ 93 NONAME
	_ZN22CHttpNetworkConnection4StopEv @ 94 NONAME
	_ZN22CHttpNetworkConnection5StartE15TCommDbConnPrefi @ 95 NONAME
	_ZN22CHttpNetworkConnection5StartEv @ 96 NONAME
	_ZTI22CHttpNetworkConnection @ 97 NONAME
	_ZTV22CHttpNetworkConnection @ 98 NONAME

