EXPORTS
	??0CAdvancedAudioController@@IAE@XZ @ 1 NONAME ; CAdvancedAudioController::CAdvancedAudioController(void)
	??0CAdvancedAudioDecoder@@IAE@H@Z @ 2 NONAME ; CAdvancedAudioDecoder::CAdvancedAudioDecoder(int)
	??0CAdvancedAudioEncoder@@IAE@H@Z @ 3 NONAME ; CAdvancedAudioEncoder::CAdvancedAudioEncoder(int)
	??0CAdvancedAudioPlayController@@IAE@XZ @ 4 NONAME ; CAdvancedAudioPlayController::CAdvancedAudioPlayController(void)
	??0CAdvancedAudioRecordController@@QAE@XZ @ 5 NONAME ; CAdvancedAudioRecordController::CAdvancedAudioRecordController(void)
	??0CAdvancedAudioResource@@QAE@XZ @ 6 NONAME ; CAdvancedAudioResource::CAdvancedAudioResource(void)
	??0CAdvancedAudioUtility@@QAE@XZ @ 7 NONAME ; CAdvancedAudioUtility::CAdvancedAudioUtility(void)
	??1CAdvancedAudioController@@MAE@XZ @ 8 NONAME ; CAdvancedAudioController::~CAdvancedAudioController(void)
	??1CAdvancedAudioDecoder@@UAE@XZ @ 9 NONAME ; CAdvancedAudioDecoder::~CAdvancedAudioDecoder(void)
	??1CAdvancedAudioEncoder@@UAE@XZ @ 10 NONAME ; CAdvancedAudioEncoder::~CAdvancedAudioEncoder(void)
	??1CAdvancedAudioPlayController@@MAE@XZ @ 11 NONAME ; CAdvancedAudioPlayController::~CAdvancedAudioPlayController(void)
	??1CAdvancedAudioRecordController@@UAE@XZ @ 12 NONAME ; CAdvancedAudioRecordController::~CAdvancedAudioRecordController(void)
	??1CAdvancedAudioResource@@UAE@XZ @ 13 NONAME ; CAdvancedAudioResource::~CAdvancedAudioResource(void)
	??1CAdvancedAudioUtility@@UAE@XZ @ 14 NONAME ; CAdvancedAudioUtility::~CAdvancedAudioUtility(void)
	?AddDataSinkL@CAdvancedAudioController@@MAEXAAVMDataSink@@@Z @ 15 NONAME ; void CAdvancedAudioController::AddDataSinkL(class MDataSink &)
	?AddDataSinkL@CAdvancedAudioPlayController@@MAEXAAVMDataSink@@@Z @ 16 NONAME ; void CAdvancedAudioPlayController::AddDataSinkL(class MDataSink &)
	?AddDataSinkL@CAdvancedAudioRecordController@@MAEXAAVMDataSink@@@Z @ 17 NONAME ; void CAdvancedAudioRecordController::AddDataSinkL(class MDataSink &)
	?AddDataSourceL@CAdvancedAudioController@@MAEXAAVMDataSource@@@Z @ 18 NONAME ; void CAdvancedAudioController::AddDataSourceL(class MDataSource &)
	?AddDataSourceL@CAdvancedAudioPlayController@@MAEXAAVMDataSource@@@Z @ 19 NONAME ; void CAdvancedAudioPlayController::AddDataSourceL(class MDataSource &)
	?AddDataSourceL@CAdvancedAudioRecordController@@MAEXAAVMDataSource@@@Z @ 20 NONAME ; void CAdvancedAudioRecordController::AddDataSourceL(class MDataSource &)
	?BitRate@CAdvancedAudioDecoder@@UAEHXZ @ 21 NONAME ; int CAdvancedAudioDecoder::BitRate(void)
	?BitRate@CAdvancedAudioUtility@@UAEHXZ @ 22 NONAME ; int CAdvancedAudioUtility::BitRate(void)
	?BitRateChanged@CAdvancedAudioPlayController@@MAEXXZ @ 23 NONAME ; void CAdvancedAudioPlayController::BitRateChanged(void)
	?BufferEmptiedL@CAdvancedAudioController@@MAEXPAVCMMFBuffer@@@Z @ 24 NONAME ; void CAdvancedAudioController::BufferEmptiedL(class CMMFBuffer *)
	?BufferEmptiedL@CAdvancedAudioRecordController@@MAEXPAVCMMFBuffer@@@Z @ 25 NONAME ; void CAdvancedAudioRecordController::BufferEmptiedL(class CMMFBuffer *)
	?BufferFilled@CAdvancedAudioPlayController@@MAEXPAVCMMFBuffer@@@Z @ 26 NONAME ; void CAdvancedAudioPlayController::BufferFilled(class CMMFBuffer *)
	?BufferFilledL@CAdvancedAudioController@@MAEXPAVCMMFBuffer@@@Z @ 27 NONAME ; void CAdvancedAudioController::BufferFilledL(class CMMFBuffer *)
	?BufferFilledL@CAdvancedAudioPlayController@@MAEXPAVCMMFBuffer@@@Z @ 28 NONAME ; void CAdvancedAudioPlayController::BufferFilledL(class CMMFBuffer *)
	?CanCreateSinkBuffer@CAdvancedAudioController@@MAEHXZ @ 29 NONAME ; int CAdvancedAudioController::CanCreateSinkBuffer(void)
	?CanCreateSourceBuffer@CAdvancedAudioController@@MAEHXZ @ 30 NONAME ; int CAdvancedAudioController::CanCreateSourceBuffer(void)
	?Channels@CAdvancedAudioUtility@@QAEHXZ @ 31 NONAME ; int CAdvancedAudioUtility::Channels(void)
	?ChannelsOut@CAdvancedAudioUtility@@QAEHXZ @ 32 NONAME ; int CAdvancedAudioUtility::ChannelsOut(void)
	?CodecCmd@CAdvancedAudioDecoder@@MAEHW4TCodecCmd@1@@Z @ 33 NONAME ; int CAdvancedAudioDecoder::CodecCmd(enum CAdvancedAudioDecoder::TCodecCmd)
	?CodecConfig@CAdvancedAudioDecoder@@MAEHAAV?$RArray@H@@@Z @ 34 NONAME ; int CAdvancedAudioDecoder::CodecConfig(class RArray<int> &)
	?CodecConfigParametersL@CAdvancedAudioResource@@QAEABV?$RArray@H@@XZ @ 35 NONAME ; class RArray<int> const & CAdvancedAudioResource::CodecConfigParametersL(void)
	?ConstructL@CAdvancedAudioPlayController@@MAEXXZ @ 36 NONAME ; void CAdvancedAudioPlayController::ConstructL(void)
	?ConstructL@CAdvancedAudioRecordController@@UAEXXZ @ 37 NONAME ; void CAdvancedAudioRecordController::ConstructL(void)
	?ConstructSinkL@CAdvancedAudioController@@MAEXABVTDesC8@@@Z @ 38 NONAME ; void CAdvancedAudioController::ConstructSinkL(class TDesC8 const &)
	?ConstructSourceL@CAdvancedAudioController@@MAEXABVTDesC8@@@Z @ 39 NONAME ; void CAdvancedAudioController::ConstructSourceL(class TDesC8 const &)
	?CreateBufferOfSizeLC@CAdvancedAudioUtility@@IAEPAVCMMFDataBuffer@@I@Z @ 40 NONAME ; class CMMFDataBuffer * CAdvancedAudioUtility::CreateBufferOfSizeLC(unsigned int)
	?CreateSinkBufferL@CAdvancedAudioController@@MAEPAVCMMFBuffer@@VTMediaId@@AAH@Z @ 41 NONAME ; class CMMFBuffer * CAdvancedAudioController::CreateSinkBufferL(class TMediaId, int &)
	?CreateSourceBufferL@CAdvancedAudioController@@MAEPAVCMMFBuffer@@VTMediaId@@AAH@Z @ 42 NONAME ; class CMMFBuffer * CAdvancedAudioController::CreateSourceBufferL(class TMediaId, int &)
	?CreateSourceBufferOfSizeLC@CAdvancedAudioController@@IAEPAVCMMFDataBuffer@@I@Z @ 43 NONAME ; class CMMFDataBuffer * CAdvancedAudioController::CreateSourceBufferOfSizeLC(unsigned int)
	?DeReferenceDecoder@CAdvancedAudioUtility@@QAEXXZ @ 44 NONAME ; void CAdvancedAudioUtility::DeReferenceDecoder(void)
	?DecodeIntervalEvent@CAdvancedAudioUtility@@UAEXXZ @ 45 NONAME ; void CAdvancedAudioUtility::DecodeIntervalEvent(void)
	?Disable@CAdvancedAudioDecoder@@IAEXXZ @ 46 NONAME ; void CAdvancedAudioDecoder::Disable(void)
	?DoCancel@CAdvancedAudioDecoder@@MAEXXZ @ 47 NONAME ; void CAdvancedAudioDecoder::DoCancel(void)
	?DoCancel@CAdvancedAudioEncoder@@MAEXXZ @ 48 NONAME ; void CAdvancedAudioEncoder::DoCancel(void)
	?DoInitializeSinkL@CAdvancedAudioPlayController@@MAEXXZ @ 49 NONAME ; void CAdvancedAudioPlayController::DoInitializeSinkL(void)
	?DoReadHeaderL@CAdvancedAudioPlayController@@MAEXPAVCMMFDataBuffer@@@Z @ 50 NONAME ; void CAdvancedAudioPlayController::DoReadHeaderL(class CMMFDataBuffer *)
	?DoSetPositionL@CAdvancedAudioPlayController@@MAEXABVTTimeIntervalMicroSeconds@@@Z @ 51 NONAME ; void CAdvancedAudioPlayController::DoSetPositionL(class TTimeIntervalMicroSeconds const &)
	?DoStopL@CAdvancedAudioPlayController@@MAEXH@Z @ 52 NONAME ; void CAdvancedAudioPlayController::DoStopL(int)
	?DoStopL@CAdvancedAudioRecordController@@MAEXXZ @ 53 NONAME ; void CAdvancedAudioRecordController::DoStopL(void)
	?Duration@CAdvancedAudioUtility@@UAE_JXZ @ 54 NONAME ; long long CAdvancedAudioUtility::Duration(void)
	?DurationL@CAdvancedAudioController@@MBE?AVTTimeIntervalMicroSeconds@@XZ @ 55 NONAME ; class TTimeIntervalMicroSeconds CAdvancedAudioController::DurationL(void) const
	?DurationL@CAdvancedAudioPlayController@@MBE?AVTTimeIntervalMicroSeconds@@XZ @ 56 NONAME ; class TTimeIntervalMicroSeconds CAdvancedAudioPlayController::DurationL(void) const
	?EmptyBuffer@CAdvancedAudioEncoder@@UAEXPAVCMMFBuffer@@@Z @ 57 NONAME ; void CAdvancedAudioEncoder::EmptyBuffer(class CMMFBuffer *)
	?EmptyBufferL@CAdvancedAudioController@@MAEXPAVCMMFBuffer@@PAVMDataSource@@VTMediaId@@@Z @ 58 NONAME ; void CAdvancedAudioController::EmptyBufferL(class CMMFBuffer *, class MDataSource *, class TMediaId)
	?EmptyBufferL@CAdvancedAudioRecordController@@MAEHPAVCMMFBuffer@@@Z @ 59 NONAME ; int CAdvancedAudioRecordController::EmptyBufferL(class CMMFBuffer *)
	?Enable@CAdvancedAudioDecoder@@IAEXXZ @ 60 NONAME ; void CAdvancedAudioDecoder::Enable(void)
	?EnableBitRateChangedEventL@CAdvancedAudioUtility@@UAEXH@Z @ 61 NONAME ; void CAdvancedAudioUtility::EnableBitRateChangedEventL(int)
	?EnableDecodeIntervalEvent@CAdvancedAudioDecoder@@UAEHHI@Z @ 62 NONAME ; int CAdvancedAudioDecoder::EnableDecodeIntervalEvent(int, unsigned int)
	?Event@CAdvancedAudioPlayController@@MAEXVTUid@@@Z @ 63 NONAME ; void CAdvancedAudioPlayController::Event(class TUid)
	?FillBufferL@CAdvancedAudioController@@MAEXPAVCMMFBuffer@@PAVMDataSink@@VTMediaId@@@Z @ 64 NONAME ; void CAdvancedAudioController::FillBufferL(class CMMFBuffer *, class MDataSink *, class TMediaId)
	?FillBufferL@CAdvancedAudioDecoder@@UAEXPAVCMMFBuffer@@@Z @ 65 NONAME ; void CAdvancedAudioDecoder::FillBufferL(class CMMFBuffer *)
	?FillSharedBufferL@CAdvancedAudioPlayController@@MAEXPAVCMMFBuffer@@@Z @ 66 NONAME ; void CAdvancedAudioPlayController::FillSharedBufferL(class CMMFBuffer *)
	?FindBufferFromPos@CAdvancedAudioPlayController@@MAEHI@Z @ 67 NONAME ; int CAdvancedAudioPlayController::FindBufferFromPos(unsigned int)
	?FindFramePos@CAdvancedAudioUtility@@UAEHAB_JPAVCMMFClip@@@Z @ 68 NONAME ; int CAdvancedAudioUtility::FindFramePos(long long const &, class CMMFClip *)
	?FindFramePosFromTime@CAdvancedAudioDecoder@@UAEHAAI0@Z @ 69 NONAME ; int CAdvancedAudioDecoder::FindFramePosFromTime(unsigned int &, unsigned int &)
	?FindFramePosFromTime@CAdvancedAudioUtility@@UAEHAAI0@Z @ 70 NONAME ; int CAdvancedAudioUtility::FindFramePosFromTime(unsigned int &, unsigned int &)
	?FindFrameTimeFromPos@CAdvancedAudioDecoder@@UAEHAAI0@Z @ 71 NONAME ; int CAdvancedAudioDecoder::FindFrameTimeFromPos(unsigned int &, unsigned int &)
	?FindFrameTimeFromPos@CAdvancedAudioUtility@@UAEHAAI0@Z @ 72 NONAME ; int CAdvancedAudioUtility::FindFrameTimeFromPos(unsigned int &, unsigned int &)
	?FrameHeaderSize@CAdvancedAudioUtility@@UAEHXZ @ 73 NONAME ; int CAdvancedAudioUtility::FrameHeaderSize(void)
	?FrameInfo@CAdvancedAudioUtility@@UAEHPBEHAAVTAudioFrameInfo@@@Z @ 74 NONAME ; int CAdvancedAudioUtility::FrameInfo(unsigned char const *, int, class TAudioFrameInfo &)
	?GetBitRate@CAdvancedAudioPlayController@@MAEHAAI@Z @ 75 NONAME ; int CAdvancedAudioPlayController::GetBitRate(unsigned int &)
	?GetCodecConfigData@CAdvancedAudioPlayController@@MAEHAAV?$RArray@H@@@Z @ 76 NONAME ; int CAdvancedAudioPlayController::GetCodecConfigData(class RArray<int> &)
	?GetCustomInterfaceBuilderL@CAdvancedAudioController@@MAEABVTMMFMessageDestination@@XZ @ 77 NONAME ; class TMMFMessageDestination const & CAdvancedAudioController::GetCustomInterfaceBuilderL(void)
	?GetDriveNumber@CAdvancedAudioUtility@@QAE?AW4TDriveNumber@@ABVTDesC16@@@Z @ 78 NONAME ; enum TDriveNumber CAdvancedAudioUtility::GetDriveNumber(class TDesC16 const &)
	?GetMetaDataEntryL@CAdvancedAudioController@@MAEPAVCMMFMetaDataEntry@@H@Z @ 79 NONAME ; class CMMFMetaDataEntry * CAdvancedAudioController::GetMetaDataEntryL(int)
	?GetMetaDataEntryL@CAdvancedAudioPlayController@@MAEPAVCMMFMetaDataEntry@@H@Z @ 80 NONAME ; class CMMFMetaDataEntry * CAdvancedAudioPlayController::GetMetaDataEntryL(int)
	?GetNumberOfMetaDataEntriesL@CAdvancedAudioController@@MAEXAAH@Z @ 81 NONAME ; void CAdvancedAudioController::GetNumberOfMetaDataEntriesL(int &)
	?GetNumberOfMetaDataEntriesL@CAdvancedAudioPlayController@@MAEXAAH@Z @ 82 NONAME ; void CAdvancedAudioPlayController::GetNumberOfMetaDataEntriesL(int &)
	?GetOffsets@CAdvancedAudioUtility@@UAEHAAH@Z @ 83 NONAME ; int CAdvancedAudioUtility::GetOffsets(int &)
	?HandleAutoPauseEvent@CAdvancedAudioPlayController@@MAEXXZ @ 84 NONAME ; void CAdvancedAudioPlayController::HandleAutoPauseEvent(void)
	?HandleFillBufferL@CAdvancedAudioDecoder@@MAEXXZ @ 85 NONAME ; void CAdvancedAudioDecoder::HandleFillBufferL(void)
	?HandleFrameTableEvent@CAdvancedAudioDecoder@@UAEHW4TFrameTableEvent@CFrameTable@@@Z @ 86 NONAME ; int CAdvancedAudioDecoder::HandleFrameTableEvent(enum CFrameTable::TFrameTableEvent)
	?HandleGeneralEvent@CAdvancedAudioPlayController@@MAEXABVTMMFEvent@@@Z @ 87 NONAME ; void CAdvancedAudioPlayController::HandleGeneralEvent(class TMMFEvent const &)
	?HandlePreemptionEvent@CAdvancedAudioPlayController@@MAEXH@Z @ 88 NONAME ; void CAdvancedAudioPlayController::HandlePreemptionEvent(int)
	?HeaderOffset@CAdvancedAudioUtility@@QAEHXZ @ 89 NONAME ; int CAdvancedAudioUtility::HeaderOffset(void)
	?ID3HeaderLength@CAdvancedAudioUtility@@IAEHPBVCMMFDataBuffer@@@Z @ 90 NONAME ; int CAdvancedAudioUtility::ID3HeaderLength(class CMMFDataBuffer const *)
	?InitSharedBuffersL@CAdvancedAudioPlayController@@MAEXXZ @ 91 NONAME ; void CAdvancedAudioPlayController::InitSharedBuffersL(void)
	?IsHwAccelerated@CAdvancedAudioDecoder@@UAEHXZ @ 92 NONAME ; int CAdvancedAudioDecoder::IsHwAccelerated(void)
	?LastFramePos@CAdvancedAudioDecoder@@UAEHAAI@Z @ 93 NONAME ; int CAdvancedAudioDecoder::LastFramePos(unsigned int &)
	?LastFramePos@CAdvancedAudioUtility@@UAEHAAI@Z @ 94 NONAME ; int CAdvancedAudioUtility::LastFramePos(unsigned int &)
	?LastFrameTime@CAdvancedAudioDecoder@@UAEHAAI@Z @ 95 NONAME ; int CAdvancedAudioDecoder::LastFrameTime(unsigned int &)
	?LastFrameTime@CAdvancedAudioUtility@@UAEHAAI@Z @ 96 NONAME ; int CAdvancedAudioUtility::LastFrameTime(unsigned int &)
	?MacGetSinkBitRateL@CAdvancedAudioController@@MAEXAAI@Z @ 97 NONAME ; void CAdvancedAudioController::MacGetSinkBitRateL(unsigned int &)
	?MacGetSinkBitRateL@CAdvancedAudioPlayController@@MAEXAAI@Z @ 98 NONAME ; void CAdvancedAudioPlayController::MacGetSinkBitRateL(unsigned int &)
	?MacGetSinkBitRateL@CAdvancedAudioRecordController@@MAEXAAI@Z @ 99 NONAME ; void CAdvancedAudioRecordController::MacGetSinkBitRateL(unsigned int &)
	?MacGetSinkDataTypeL@CAdvancedAudioController@@MAEXAAVTFourCC@@@Z @ 100 NONAME ; void CAdvancedAudioController::MacGetSinkDataTypeL(class TFourCC &)
	?MacGetSinkDataTypeL@CAdvancedAudioPlayController@@MAEXAAVTFourCC@@@Z @ 101 NONAME ; void CAdvancedAudioPlayController::MacGetSinkDataTypeL(class TFourCC &)
	?MacGetSinkDataTypeL@CAdvancedAudioRecordController@@MAEXAAVTFourCC@@@Z @ 102 NONAME ; void CAdvancedAudioRecordController::MacGetSinkDataTypeL(class TFourCC &)
	?MacGetSinkFormatL@CAdvancedAudioController@@MAEXAAVTUid@@@Z @ 103 NONAME ; void CAdvancedAudioController::MacGetSinkFormatL(class TUid &)
	?MacGetSinkFormatL@CAdvancedAudioPlayController@@MAEXAAVTUid@@@Z @ 104 NONAME ; void CAdvancedAudioPlayController::MacGetSinkFormatL(class TUid &)
	?MacGetSinkNumChannelsL@CAdvancedAudioController@@MAEXAAI@Z @ 105 NONAME ; void CAdvancedAudioController::MacGetSinkNumChannelsL(unsigned int &)
	?MacGetSinkNumChannelsL@CAdvancedAudioPlayController@@MAEXAAI@Z @ 106 NONAME ; void CAdvancedAudioPlayController::MacGetSinkNumChannelsL(unsigned int &)
	?MacGetSinkNumChannelsL@CAdvancedAudioRecordController@@MAEXAAI@Z @ 107 NONAME ; void CAdvancedAudioRecordController::MacGetSinkNumChannelsL(unsigned int &)
	?MacGetSinkSampleRateL@CAdvancedAudioController@@MAEXAAI@Z @ 108 NONAME ; void CAdvancedAudioController::MacGetSinkSampleRateL(unsigned int &)
	?MacGetSinkSampleRateL@CAdvancedAudioPlayController@@MAEXAAI@Z @ 109 NONAME ; void CAdvancedAudioPlayController::MacGetSinkSampleRateL(unsigned int &)
	?MacGetSinkSampleRateL@CAdvancedAudioRecordController@@MAEXAAI@Z @ 110 NONAME ; void CAdvancedAudioRecordController::MacGetSinkSampleRateL(unsigned int &)
	?MacGetSourceBitRateL@CAdvancedAudioController@@MAEXAAI@Z @ 111 NONAME ; void CAdvancedAudioController::MacGetSourceBitRateL(unsigned int &)
	?MacGetSourceBitRateL@CAdvancedAudioPlayController@@MAEXAAI@Z @ 112 NONAME ; void CAdvancedAudioPlayController::MacGetSourceBitRateL(unsigned int &)
	?MacGetSourceBitRateL@CAdvancedAudioRecordController@@MAEXAAI@Z @ 113 NONAME ; void CAdvancedAudioRecordController::MacGetSourceBitRateL(unsigned int &)
	?MacGetSourceDataTypeL@CAdvancedAudioController@@MAEXAAVTFourCC@@@Z @ 114 NONAME ; void CAdvancedAudioController::MacGetSourceDataTypeL(class TFourCC &)
	?MacGetSourceDataTypeL@CAdvancedAudioPlayController@@MAEXAAVTFourCC@@@Z @ 115 NONAME ; void CAdvancedAudioPlayController::MacGetSourceDataTypeL(class TFourCC &)
	?MacGetSourceDataTypeL@CAdvancedAudioRecordController@@MAEXAAVTFourCC@@@Z @ 116 NONAME ; void CAdvancedAudioRecordController::MacGetSourceDataTypeL(class TFourCC &)
	?MacGetSourceFormatL@CAdvancedAudioController@@MAEXAAVTUid@@@Z @ 117 NONAME ; void CAdvancedAudioController::MacGetSourceFormatL(class TUid &)
	?MacGetSourceFormatL@CAdvancedAudioPlayController@@MAEXAAVTUid@@@Z @ 118 NONAME ; void CAdvancedAudioPlayController::MacGetSourceFormatL(class TUid &)
	?MacGetSourceNumChannelsL@CAdvancedAudioController@@MAEXAAI@Z @ 119 NONAME ; void CAdvancedAudioController::MacGetSourceNumChannelsL(unsigned int &)
	?MacGetSourceNumChannelsL@CAdvancedAudioPlayController@@MAEXAAI@Z @ 120 NONAME ; void CAdvancedAudioPlayController::MacGetSourceNumChannelsL(unsigned int &)
	?MacGetSourceNumChannelsL@CAdvancedAudioRecordController@@MAEXAAI@Z @ 121 NONAME ; void CAdvancedAudioRecordController::MacGetSourceNumChannelsL(unsigned int &)
	?MacGetSourceSampleRateL@CAdvancedAudioController@@MAEXAAI@Z @ 122 NONAME ; void CAdvancedAudioController::MacGetSourceSampleRateL(unsigned int &)
	?MacGetSourceSampleRateL@CAdvancedAudioPlayController@@MAEXAAI@Z @ 123 NONAME ; void CAdvancedAudioPlayController::MacGetSourceSampleRateL(unsigned int &)
	?MacGetSourceSampleRateL@CAdvancedAudioRecordController@@MAEXAAI@Z @ 124 NONAME ; void CAdvancedAudioRecordController::MacGetSourceSampleRateL(unsigned int &)
	?MacGetSupportedSinkBitRatesL@CAdvancedAudioController@@MAEXAAV?$RArray@I@@@Z @ 125 NONAME ; void CAdvancedAudioController::MacGetSupportedSinkBitRatesL(class RArray<unsigned int> &)
	?MacGetSupportedSinkBitRatesL@CAdvancedAudioPlayController@@MAEXAAV?$RArray@I@@@Z @ 126 NONAME ; void CAdvancedAudioPlayController::MacGetSupportedSinkBitRatesL(class RArray<unsigned int> &)
	?MacGetSupportedSinkBitRatesL@CAdvancedAudioRecordController@@MAEXAAV?$RArray@I@@@Z @ 127 NONAME ; void CAdvancedAudioRecordController::MacGetSupportedSinkBitRatesL(class RArray<unsigned int> &)
	?MacGetSupportedSinkDataTypesL@CAdvancedAudioController@@MAEXAAV?$RArray@VTFourCC@@@@@Z @ 128 NONAME ; void CAdvancedAudioController::MacGetSupportedSinkDataTypesL(class RArray<class TFourCC> &)
	?MacGetSupportedSinkDataTypesL@CAdvancedAudioPlayController@@MAEXAAV?$RArray@VTFourCC@@@@@Z @ 129 NONAME ; void CAdvancedAudioPlayController::MacGetSupportedSinkDataTypesL(class RArray<class TFourCC> &)
	?MacGetSupportedSinkDataTypesL@CAdvancedAudioRecordController@@MAEXAAV?$RArray@VTFourCC@@@@@Z @ 130 NONAME ; void CAdvancedAudioRecordController::MacGetSupportedSinkDataTypesL(class RArray<class TFourCC> &)
	?MacGetSupportedSinkNumChannelsL@CAdvancedAudioController@@MAEXAAV?$RArray@I@@@Z @ 131 NONAME ; void CAdvancedAudioController::MacGetSupportedSinkNumChannelsL(class RArray<unsigned int> &)
	?MacGetSupportedSinkNumChannelsL@CAdvancedAudioPlayController@@MAEXAAV?$RArray@I@@@Z @ 132 NONAME ; void CAdvancedAudioPlayController::MacGetSupportedSinkNumChannelsL(class RArray<unsigned int> &)
	?MacGetSupportedSinkNumChannelsL@CAdvancedAudioRecordController@@MAEXAAV?$RArray@I@@@Z @ 133 NONAME ; void CAdvancedAudioRecordController::MacGetSupportedSinkNumChannelsL(class RArray<unsigned int> &)
	?MacGetSupportedSinkSampleRatesL@CAdvancedAudioController@@MAEXAAV?$RArray@I@@@Z @ 134 NONAME ; void CAdvancedAudioController::MacGetSupportedSinkSampleRatesL(class RArray<unsigned int> &)
	?MacGetSupportedSinkSampleRatesL@CAdvancedAudioPlayController@@MAEXAAV?$RArray@I@@@Z @ 135 NONAME ; void CAdvancedAudioPlayController::MacGetSupportedSinkSampleRatesL(class RArray<unsigned int> &)
	?MacGetSupportedSinkSampleRatesL@CAdvancedAudioRecordController@@MAEXAAV?$RArray@I@@@Z @ 136 NONAME ; void CAdvancedAudioRecordController::MacGetSupportedSinkSampleRatesL(class RArray<unsigned int> &)
	?MacGetSupportedSourceBitRatesL@CAdvancedAudioController@@MAEXAAV?$RArray@I@@@Z @ 137 NONAME ; void CAdvancedAudioController::MacGetSupportedSourceBitRatesL(class RArray<unsigned int> &)
	?MacGetSupportedSourceBitRatesL@CAdvancedAudioPlayController@@MAEXAAV?$RArray@I@@@Z @ 138 NONAME ; void CAdvancedAudioPlayController::MacGetSupportedSourceBitRatesL(class RArray<unsigned int> &)
	?MacGetSupportedSourceBitRatesL@CAdvancedAudioRecordController@@MAEXAAV?$RArray@I@@@Z @ 139 NONAME ; void CAdvancedAudioRecordController::MacGetSupportedSourceBitRatesL(class RArray<unsigned int> &)
	?MacGetSupportedSourceDataTypesL@CAdvancedAudioController@@MAEXAAV?$RArray@VTFourCC@@@@@Z @ 140 NONAME ; void CAdvancedAudioController::MacGetSupportedSourceDataTypesL(class RArray<class TFourCC> &)
	?MacGetSupportedSourceDataTypesL@CAdvancedAudioPlayController@@MAEXAAV?$RArray@VTFourCC@@@@@Z @ 141 NONAME ; void CAdvancedAudioPlayController::MacGetSupportedSourceDataTypesL(class RArray<class TFourCC> &)
	?MacGetSupportedSourceDataTypesL@CAdvancedAudioRecordController@@MAEXAAV?$RArray@VTFourCC@@@@@Z @ 142 NONAME ; void CAdvancedAudioRecordController::MacGetSupportedSourceDataTypesL(class RArray<class TFourCC> &)
	?MacGetSupportedSourceNumChannelsL@CAdvancedAudioController@@MAEXAAV?$RArray@I@@@Z @ 143 NONAME ; void CAdvancedAudioController::MacGetSupportedSourceNumChannelsL(class RArray<unsigned int> &)
	?MacGetSupportedSourceNumChannelsL@CAdvancedAudioPlayController@@MAEXAAV?$RArray@I@@@Z @ 144 NONAME ; void CAdvancedAudioPlayController::MacGetSupportedSourceNumChannelsL(class RArray<unsigned int> &)
	?MacGetSupportedSourceNumChannelsL@CAdvancedAudioRecordController@@MAEXAAV?$RArray@I@@@Z @ 145 NONAME ; void CAdvancedAudioRecordController::MacGetSupportedSourceNumChannelsL(class RArray<unsigned int> &)
	?MacGetSupportedSourceSampleRatesL@CAdvancedAudioController@@MAEXAAV?$RArray@I@@@Z @ 146 NONAME ; void CAdvancedAudioController::MacGetSupportedSourceSampleRatesL(class RArray<unsigned int> &)
	?MacGetSupportedSourceSampleRatesL@CAdvancedAudioPlayController@@MAEXAAV?$RArray@I@@@Z @ 147 NONAME ; void CAdvancedAudioPlayController::MacGetSupportedSourceSampleRatesL(class RArray<unsigned int> &)
	?MacGetSupportedSourceSampleRatesL@CAdvancedAudioRecordController@@MAEXAAV?$RArray@I@@@Z @ 148 NONAME ; void CAdvancedAudioRecordController::MacGetSupportedSourceSampleRatesL(class RArray<unsigned int> &)
	?MacSetCodecL@CAdvancedAudioController@@MAEXVTFourCC@@0@Z @ 149 NONAME ; void CAdvancedAudioController::MacSetCodecL(class TFourCC, class TFourCC)
	?MacSetSinkBitRateL@CAdvancedAudioController@@MAEXI@Z @ 150 NONAME ; void CAdvancedAudioController::MacSetSinkBitRateL(unsigned int)
	?MacSetSinkBitRateL@CAdvancedAudioPlayController@@MAEXI@Z @ 151 NONAME ; void CAdvancedAudioPlayController::MacSetSinkBitRateL(unsigned int)
	?MacSetSinkDataTypeL@CAdvancedAudioController@@MAEXVTFourCC@@@Z @ 152 NONAME ; void CAdvancedAudioController::MacSetSinkDataTypeL(class TFourCC)
	?MacSetSinkDataTypeL@CAdvancedAudioPlayController@@MAEXVTFourCC@@@Z @ 153 NONAME ; void CAdvancedAudioPlayController::MacSetSinkDataTypeL(class TFourCC)
	?MacSetSinkFormatL@CAdvancedAudioController@@MAEXVTUid@@@Z @ 154 NONAME ; void CAdvancedAudioController::MacSetSinkFormatL(class TUid)
	?MacSetSinkFormatL@CAdvancedAudioPlayController@@MAEXVTUid@@@Z @ 155 NONAME ; void CAdvancedAudioPlayController::MacSetSinkFormatL(class TUid)
	?MacSetSinkNumChannelsL@CAdvancedAudioController@@MAEXI@Z @ 156 NONAME ; void CAdvancedAudioController::MacSetSinkNumChannelsL(unsigned int)
	?MacSetSinkNumChannelsL@CAdvancedAudioPlayController@@MAEXI@Z @ 157 NONAME ; void CAdvancedAudioPlayController::MacSetSinkNumChannelsL(unsigned int)
	?MacSetSinkSampleRateL@CAdvancedAudioController@@MAEXI@Z @ 158 NONAME ; void CAdvancedAudioController::MacSetSinkSampleRateL(unsigned int)
	?MacSetSinkSampleRateL@CAdvancedAudioPlayController@@MAEXI@Z @ 159 NONAME ; void CAdvancedAudioPlayController::MacSetSinkSampleRateL(unsigned int)
	?MacSetSourceBitRateL@CAdvancedAudioController@@MAEXI@Z @ 160 NONAME ; void CAdvancedAudioController::MacSetSourceBitRateL(unsigned int)
	?MacSetSourceDataTypeL@CAdvancedAudioController@@MAEXVTFourCC@@@Z @ 161 NONAME ; void CAdvancedAudioController::MacSetSourceDataTypeL(class TFourCC)
	?MacSetSourceFormatL@CAdvancedAudioController@@MAEXVTUid@@@Z @ 162 NONAME ; void CAdvancedAudioController::MacSetSourceFormatL(class TUid)
	?MacSetSourceNumChannelsL@CAdvancedAudioController@@MAEXI@Z @ 163 NONAME ; void CAdvancedAudioController::MacSetSourceNumChannelsL(unsigned int)
	?MacSetSourceSampleRateL@CAdvancedAudioController@@MAEXI@Z @ 164 NONAME ; void CAdvancedAudioController::MacSetSourceSampleRateL(unsigned int)
	?MapcDeletePlaybackWindowL@CAdvancedAudioPlayController@@MAEXXZ @ 165 NONAME ; void CAdvancedAudioPlayController::MapcDeletePlaybackWindowL(void)
	?MapcGetLoadingProgressL@CAdvancedAudioPlayController@@MAEXAAH@Z @ 166 NONAME ; void CAdvancedAudioPlayController::MapcGetLoadingProgressL(int &)
	?MapcSetPlaybackWindowL@CAdvancedAudioPlayController@@MAEXABVTTimeIntervalMicroSeconds@@0@Z @ 167 NONAME ; void CAdvancedAudioPlayController::MapcSetPlaybackWindowL(class TTimeIntervalMicroSeconds const &, class TTimeIntervalMicroSeconds const &)
	?MapdGetBalanceL@CAdvancedAudioPlayController@@MAEXAAH@Z @ 168 NONAME ; void CAdvancedAudioPlayController::MapdGetBalanceL(int &)
	?MapdGetMaxVolumeL@CAdvancedAudioPlayController@@MAEXAAH@Z @ 169 NONAME ; void CAdvancedAudioPlayController::MapdGetMaxVolumeL(int &)
	?MapdGetVolumeL@CAdvancedAudioPlayController@@MAEXAAH@Z @ 170 NONAME ; void CAdvancedAudioPlayController::MapdGetVolumeL(int &)
	?MapdSetBalanceL@CAdvancedAudioPlayController@@MAEXH@Z @ 171 NONAME ; void CAdvancedAudioPlayController::MapdSetBalanceL(int)
	?MapdSetVolumeL@CAdvancedAudioPlayController@@MAEXH@Z @ 172 NONAME ; void CAdvancedAudioPlayController::MapdSetVolumeL(int)
	?MapdSetVolumeRampL@CAdvancedAudioPlayController@@MAEXABVTTimeIntervalMicroSeconds@@@Z @ 173 NONAME ; void CAdvancedAudioPlayController::MapdSetVolumeRampL(class TTimeIntervalMicroSeconds const &)
	?MarcAddMetaDataEntryL@CAdvancedAudioRecordController@@MAEXABVCMMFMetaDataEntry@@@Z @ 174 NONAME ; void CAdvancedAudioRecordController::MarcAddMetaDataEntryL(class CMMFMetaDataEntry const &)
	?MarcCropL@CAdvancedAudioRecordController@@MAEXH@Z @ 175 NONAME ; void CAdvancedAudioRecordController::MarcCropL(int)
	?MarcGetRecordTimeAvailableL@CAdvancedAudioRecordController@@MAEXAAVTTimeIntervalMicroSeconds@@@Z @ 176 NONAME ; void CAdvancedAudioRecordController::MarcGetRecordTimeAvailableL(class TTimeIntervalMicroSeconds &)
	?MarcRemoveMetaDataEntryL@CAdvancedAudioRecordController@@MAEXH@Z @ 177 NONAME ; void CAdvancedAudioRecordController::MarcRemoveMetaDataEntryL(int)
	?MarcReplaceMetaDataEntryL@CAdvancedAudioRecordController@@MAEXHABVCMMFMetaDataEntry@@@Z @ 178 NONAME ; void CAdvancedAudioRecordController::MarcReplaceMetaDataEntryL(int, class CMMFMetaDataEntry const &)
	?MarcSetMaxDurationL@CAdvancedAudioRecordController@@MAEXABVTTimeIntervalMicroSeconds@@@Z @ 179 NONAME ; void CAdvancedAudioRecordController::MarcSetMaxDurationL(class TTimeIntervalMicroSeconds const &)
	?MarcSetMaxFileSizeL@CAdvancedAudioRecordController@@MAEXH@Z @ 180 NONAME ; void CAdvancedAudioRecordController::MarcSetMaxFileSizeL(int)
	?MardGetBalanceL@CAdvancedAudioRecordController@@MAEXAAH@Z @ 181 NONAME ; void CAdvancedAudioRecordController::MardGetBalanceL(int &)
	?MardGetGainL@CAdvancedAudioRecordController@@MAEXAAH@Z @ 182 NONAME ; void CAdvancedAudioRecordController::MardGetGainL(int &)
	?MardGetMaxGainL@CAdvancedAudioRecordController@@MAEXAAH@Z @ 183 NONAME ; void CAdvancedAudioRecordController::MardGetMaxGainL(int &)
	?MardSetBalanceL@CAdvancedAudioRecordController@@MAEXH@Z @ 184 NONAME ; void CAdvancedAudioRecordController::MardSetBalanceL(int)
	?MardSetGainL@CAdvancedAudioRecordController@@MAEXH@Z @ 185 NONAME ; void CAdvancedAudioRecordController::MardSetGainL(int)
	?MarkPlayEnd@CAdvancedAudioDecoder@@IAEXXZ @ 186 NONAME ; void CAdvancedAudioDecoder::MarkPlayEnd(void)
	?MdcDisableAutomaticIntent@CAdvancedAudioPlayController@@MAEHH@Z @ 187 NONAME ; int CAdvancedAudioPlayController::MdcDisableAutomaticIntent(int)
	?MdcEvaluateIntent@CAdvancedAudioPlayController@@MAEHW4TIntent@ContentAccess@@@Z @ 188 NONAME ; int CAdvancedAudioPlayController::MdcEvaluateIntent(enum ContentAccess::TIntent)
	?MdcExecuteIntent@CAdvancedAudioPlayController@@MAEHW4TIntent@ContentAccess@@@Z @ 189 NONAME ; int CAdvancedAudioPlayController::MdcExecuteIntent(enum ContentAccess::TIntent)
	?MdcSetAgentProperty@CAdvancedAudioPlayController@@MAEHW4TAgentProperty@ContentAccess@@H@Z @ 190 NONAME ; int CAdvancedAudioPlayController::MdcSetAgentProperty(enum ContentAccess::TAgentProperty, int)
	?MscEnableEvents@CAdvancedAudioPlayController@@MAEHH@Z @ 191 NONAME ; int CAdvancedAudioPlayController::MscEnableEvents(int)
	?MscGetRandomSeekingSupported@CAdvancedAudioPlayController@@MAEHAAH@Z @ 192 NONAME ; int CAdvancedAudioPlayController::MscGetRandomSeekingSupported(int &)
	?MscGetSeekingSupported@CAdvancedAudioPlayController@@MAEHAAH@Z @ 193 NONAME ; int CAdvancedAudioPlayController::MscGetSeekingSupported(int &)
	?NextSharedBufferL@CAdvancedAudioEncoder@@IAEXXZ @ 194 NONAME ; void CAdvancedAudioEncoder::NextSharedBufferL(void)
	?Panic@CAdvancedAudioController@@IAEXH@Z @ 195 NONAME ; void CAdvancedAudioController::Panic(int)
	?ParseL@CAdvancedAudioDecoder@@MAEXPAEAAH01@Z @ 196 NONAME ; void CAdvancedAudioDecoder::ParseL(unsigned char *, int &, unsigned char *, int &)
	?PauseL@CAdvancedAudioController@@MAEXXZ @ 197 NONAME ; void CAdvancedAudioController::PauseL(void)
	?PauseL@CAdvancedAudioPlayController@@MAEXXZ @ 198 NONAME ; void CAdvancedAudioPlayController::PauseL(void)
	?PlayL@CAdvancedAudioController@@MAEXXZ @ 199 NONAME ; void CAdvancedAudioController::PlayL(void)
	?PlayL@CAdvancedAudioPlayController@@MAEXXZ @ 200 NONAME ; void CAdvancedAudioPlayController::PlayL(void)
	?PlayL@CAdvancedAudioRecordController@@MAEXXZ @ 201 NONAME ; void CAdvancedAudioRecordController::PlayL(void)
	?PlayWindowEndPositionReached@CAdvancedAudioPlayController@@MAEXXZ @ 202 NONAME ; void CAdvancedAudioPlayController::PlayWindowEndPositionReached(void)
	?PlayWindowEndPositionReached@CAdvancedAudioUtility@@UAEXXZ @ 203 NONAME ; void CAdvancedAudioUtility::PlayWindowEndPositionReached(void)
	?PlaybackComplete@CAdvancedAudioPlayController@@MAEXXZ @ 204 NONAME ; void CAdvancedAudioPlayController::PlaybackComplete(void)
	?PositionL@CAdvancedAudioController@@MBE?AVTTimeIntervalMicroSeconds@@XZ @ 205 NONAME ; class TTimeIntervalMicroSeconds CAdvancedAudioController::PositionL(void) const
	?PositionL@CAdvancedAudioPlayController@@MBE?AVTTimeIntervalMicroSeconds@@XZ @ 206 NONAME ; class TTimeIntervalMicroSeconds CAdvancedAudioPlayController::PositionL(void) const
	?PositionL@CAdvancedAudioRecordController@@MBE?AVTTimeIntervalMicroSeconds@@XZ @ 207 NONAME ; class TTimeIntervalMicroSeconds CAdvancedAudioRecordController::PositionL(void) const
	?PrepareInFrame@CAdvancedAudioDecoder@@MAEPAEPAEHAAH@Z @ 208 NONAME ; unsigned char * CAdvancedAudioDecoder::PrepareInFrame(unsigned char *, int, int &)
	?PrimeL@CAdvancedAudioController@@MAEXXZ @ 209 NONAME ; void CAdvancedAudioController::PrimeL(void)
	?PrimeL@CAdvancedAudioPlayController@@MAEXXZ @ 210 NONAME ; void CAdvancedAudioPlayController::PrimeL(void)
	?PrimeL@CAdvancedAudioRecordController@@MAEXXZ @ 211 NONAME ; void CAdvancedAudioRecordController::PrimeL(void)
	?ProcessHwL@CAdvancedAudioDecoder@@MAE?AVTCodecProcessResult@@AAVCMMFBuffer@@0@Z @ 212 NONAME ; class TCodecProcessResult CAdvancedAudioDecoder::ProcessHwL(class CMMFBuffer &, class CMMFBuffer &)
	?ProcessL@CAdvancedAudioDecoder@@MAE?AVTCodecProcessResult@@AAVCMMFBuffer@@0@Z @ 213 NONAME ; class TCodecProcessResult CAdvancedAudioDecoder::ProcessL(class CMMFBuffer &, class CMMFBuffer &)
	?ProcessParseL@CAdvancedAudioDecoder@@MAEXPAVTMMFPtr8@@0@Z @ 214 NONAME ; void CAdvancedAudioDecoder::ProcessParseL(class TMMFPtr8 *, class TMMFPtr8 *)
	?PropertiesL@CAdvancedAudioResource@@QAEABVTAapProperties@@XZ @ 215 NONAME ; class TAapProperties const & CAdvancedAudioResource::PropertiesL(void)
	?ReadResourceFileL@CAdvancedAudioResource@@MAEXABVTDesC16@@H@Z @ 216 NONAME ; void CAdvancedAudioResource::ReadResourceFileL(class TDesC16 const &, int)
	?Ready@CAdvancedAudioEncoder@@IAEXH@Z @ 217 NONAME ; void CAdvancedAudioEncoder::Ready(int)
	?RecordComplete@CAdvancedAudioRecordController@@MAEXXZ @ 218 NONAME ; void CAdvancedAudioRecordController::RecordComplete(void)
	?RecordTimeStampL@CAdvancedAudioUtility@@MAEXH@Z @ 219 NONAME ; void CAdvancedAudioUtility::RecordTimeStampL(int)
	?RefillBuffer@CAdvancedAudioPlayController@@MAEHPAVCMMFBuffer@@@Z @ 220 NONAME ; int CAdvancedAudioPlayController::RefillBuffer(class CMMFBuffer *)
	?RefillPreceedingBuffersL@CAdvancedAudioPlayController@@IAEXXZ @ 221 NONAME ; void CAdvancedAudioPlayController::RefillPreceedingBuffersL(void)
	?RemoveDataSinkL@CAdvancedAudioController@@MAEXAAVMDataSink@@@Z @ 222 NONAME ; void CAdvancedAudioController::RemoveDataSinkL(class MDataSink &)
	?RemoveDataSinkL@CAdvancedAudioPlayController@@MAEXAAVMDataSink@@@Z @ 223 NONAME ; void CAdvancedAudioPlayController::RemoveDataSinkL(class MDataSink &)
	?RemoveDataSinkL@CAdvancedAudioRecordController@@MAEXAAVMDataSink@@@Z @ 224 NONAME ; void CAdvancedAudioRecordController::RemoveDataSinkL(class MDataSink &)
	?RemoveDataSourceL@CAdvancedAudioController@@MAEXAAVMDataSource@@@Z @ 225 NONAME ; void CAdvancedAudioController::RemoveDataSourceL(class MDataSource &)
	?RemoveDataSourceL@CAdvancedAudioPlayController@@MAEXAAVMDataSource@@@Z @ 226 NONAME ; void CAdvancedAudioPlayController::RemoveDataSourceL(class MDataSource &)
	?RemoveDataSourceL@CAdvancedAudioRecordController@@MAEXAAVMDataSource@@@Z @ 227 NONAME ; void CAdvancedAudioRecordController::RemoveDataSourceL(class MDataSource &)
	?RenderDisable@CAdvancedAudioDecoder@@UAEXXZ @ 228 NONAME ; void CAdvancedAudioDecoder::RenderDisable(void)
	?RenderEnable@CAdvancedAudioDecoder@@UAEXXZ @ 229 NONAME ; void CAdvancedAudioDecoder::RenderEnable(void)
	?ResetL@CAdvancedAudioController@@MAEXXZ @ 230 NONAME ; void CAdvancedAudioController::ResetL(void)
	?ResetL@CAdvancedAudioDecoder@@UAEXXZ @ 231 NONAME ; void CAdvancedAudioDecoder::ResetL(void)
	?ResetL@CAdvancedAudioPlayController@@MAEXXZ @ 232 NONAME ; void CAdvancedAudioPlayController::ResetL(void)
	?ResetL@CAdvancedAudioRecordController@@MAEXXZ @ 233 NONAME ; void CAdvancedAudioRecordController::ResetL(void)
	?ResetSharedBuffersL@CAdvancedAudioController@@IAEXHH@Z @ 234 NONAME ; void CAdvancedAudioController::ResetSharedBuffersL(int, int)
	?ResetTable@CAdvancedAudioDecoder@@UAEHXZ @ 235 NONAME ; int CAdvancedAudioDecoder::ResetTable(void)
	?ResetTable@CAdvancedAudioUtility@@UAEHXZ @ 236 NONAME ; int CAdvancedAudioUtility::ResetTable(void)
	?RunL@CAdvancedAudioDecoder@@MAEXXZ @ 237 NONAME ; void CAdvancedAudioDecoder::RunL(void)
	?RunL@CAdvancedAudioEncoder@@MAEXXZ @ 238 NONAME ; void CAdvancedAudioEncoder::RunL(void)
	?SampleRate@CAdvancedAudioUtility@@QAEHXZ @ 239 NONAME ; int CAdvancedAudioUtility::SampleRate(void)
	?ScanDuration@CAdvancedAudioUtility@@QAE_JXZ @ 240 NONAME ; long long CAdvancedAudioUtility::ScanDuration(void)
	?ScanFramesL@CAdvancedAudioUtility@@UAEHPAVCMMFClip@@PAVCMMFDataBuffer@@HH@Z @ 241 NONAME ; int CAdvancedAudioUtility::ScanFramesL(class CMMFClip *, class CMMFDataBuffer *, int, int)
	?ScanFramesL@CAdvancedAudioUtility@@UAEHPAVCMMFDataBuffer@@HH@Z @ 242 NONAME ; int CAdvancedAudioUtility::ScanFramesL(class CMMFDataBuffer *, int, int)
	?ScanHeaderL@CAdvancedAudioUtility@@UAEXPAVCMMFDataBuffer@@@Z @ 243 NONAME ; void CAdvancedAudioUtility::ScanHeaderL(class CMMFDataBuffer *)
	?SeekPositionReached@CAdvancedAudioPlayController@@MAEXI@Z @ 244 NONAME ; void CAdvancedAudioPlayController::SeekPositionReached(unsigned int)
	?SeekPositionReached@CAdvancedAudioUtility@@UAEXI@Z @ 245 NONAME ; void CAdvancedAudioUtility::SeekPositionReached(unsigned int)
	?SeekToTimeMs@CAdvancedAudioDecoder@@UAEHI@Z @ 246 NONAME ; int CAdvancedAudioDecoder::SeekToTimeMs(unsigned int)
	?SeekToTimeMs@CAdvancedAudioUtility@@UAEHI@Z @ 247 NONAME ; int CAdvancedAudioUtility::SeekToTimeMs(unsigned int)
	?SendEvent@CAdvancedAudioPlayController@@MAEXABVTMMFEvent@@@Z @ 248 NONAME ; void CAdvancedAudioPlayController::SendEvent(class TMMFEvent const &)
	?SendEvent@CAdvancedAudioRecordController@@MAEXABVTMMFEvent@@@Z @ 249 NONAME ; void CAdvancedAudioRecordController::SendEvent(class TMMFEvent const &)
	?SendEventToClient@CAdvancedAudioController@@MAEHABVTMMFEvent@@@Z @ 250 NONAME ; int CAdvancedAudioController::SendEventToClient(class TMMFEvent const &)
	?SendEventToClient@CAdvancedAudioPlayController@@MAEHABVTMMFEvent@@@Z @ 251 NONAME ; int CAdvancedAudioPlayController::SendEventToClient(class TMMFEvent const &)
	?SetClipSizeL@CAdvancedAudioUtility@@UAEXI@Z @ 252 NONAME ; void CAdvancedAudioUtility::SetClipSizeL(unsigned int)
	?SetCodecConfigData@CAdvancedAudioUtility@@UAEXAAV?$RArray@H@@@Z @ 253 NONAME ; void CAdvancedAudioUtility::SetCodecConfigData(class RArray<int> &)
	?SetConfigL@CAdvancedAudioDecoder@@UAEXIIIIABV?$RArray@H@@H@Z @ 254 NONAME ; void CAdvancedAudioDecoder::SetConfigL(unsigned int, unsigned int, unsigned int, unsigned int, class RArray<int> const &, int)
	?SetDecoder@CAdvancedAudioUtility@@QAEXAAVCAdvancedAudioDecoder@@@Z @ 255 NONAME ; void CAdvancedAudioUtility::SetDecoder(class CAdvancedAudioDecoder &)
	?SetDecoderUtilityObserver@CAdvancedAudioDecoder@@UAEXAAVMAdvancedAudioDecoderUtilityObserver@@@Z @ 256 NONAME ; void CAdvancedAudioDecoder::SetDecoderUtilityObserver(class MAdvancedAudioDecoderUtilityObserver &)
	?SetDevSound@CAdvancedAudioDecoder@@UAEXAAVCMMFDevSound@@@Z @ 257 NONAME ; void CAdvancedAudioDecoder::SetDevSound(class CMMFDevSound &)
	?SetDevSound@CAdvancedAudioEncoder@@UAEXAAVCMMFDevSound@@@Z @ 258 NONAME ; void CAdvancedAudioEncoder::SetDevSound(class CMMFDevSound &)
	?SetObserver@CAdvancedAudioDecoder@@UAEXAAVMAdvancedAudioDecoderObserver@@@Z @ 259 NONAME ; void CAdvancedAudioDecoder::SetObserver(class MAdvancedAudioDecoderObserver &)
	?SetObserver@CAdvancedAudioEncoder@@UAEXAAVMAdvancedAudioEncoderObserver@@@Z @ 260 NONAME ; void CAdvancedAudioEncoder::SetObserver(class MAdvancedAudioEncoderObserver &)
	?SetObserver@CAdvancedAudioUtility@@QAEXAAVMAdvancedAudioUtilityObserver@@@Z @ 261 NONAME ; void CAdvancedAudioUtility::SetObserver(class MAdvancedAudioUtilityObserver &)
	?SetPlayWindowEndTimeMs@CAdvancedAudioDecoder@@UAEHI@Z @ 262 NONAME ; int CAdvancedAudioDecoder::SetPlayWindowEndTimeMs(unsigned int)
	?SetPlayWindowEndTimeMs@CAdvancedAudioUtility@@UAEHI@Z @ 263 NONAME ; int CAdvancedAudioUtility::SetPlayWindowEndTimeMs(unsigned int)
	?SetPlaybackWindowBoundariesL@CAdvancedAudioPlayController@@MAEXABVTTimeIntervalMicroSeconds@@0@Z @ 264 NONAME ; void CAdvancedAudioPlayController::SetPlaybackWindowBoundariesL(class TTimeIntervalMicroSeconds const &, class TTimeIntervalMicroSeconds const &)
	?SetPositionInSharedBuffers@CAdvancedAudioPlayController@@MAEHIAAH0@Z @ 265 NONAME ; int CAdvancedAudioPlayController::SetPositionInSharedBuffers(unsigned int, int &, int &)
	?SetPositionL@CAdvancedAudioController@@MAEXABVTTimeIntervalMicroSeconds@@@Z @ 266 NONAME ; void CAdvancedAudioController::SetPositionL(class TTimeIntervalMicroSeconds const &)
	?SetPositionL@CAdvancedAudioPlayController@@MAEXABVTTimeIntervalMicroSeconds@@@Z @ 267 NONAME ; void CAdvancedAudioPlayController::SetPositionL(class TTimeIntervalMicroSeconds const &)
	?SetPositionL@CAdvancedAudioRecordController@@MAEXABVTTimeIntervalMicroSeconds@@@Z @ 268 NONAME ; void CAdvancedAudioRecordController::SetPositionL(class TTimeIntervalMicroSeconds const &)
	?SetPrioritySettings@CAdvancedAudioController@@MAEXABVTMMFPrioritySettings@@@Z @ 269 NONAME ; void CAdvancedAudioController::SetPrioritySettings(class TMMFPrioritySettings const &)
	?SetPrioritySettings@CAdvancedAudioPlayController@@MAEXABVTMMFPrioritySettings@@@Z @ 270 NONAME ; void CAdvancedAudioPlayController::SetPrioritySettings(class TMMFPrioritySettings const &)
	?SetSinkBuffers@CAdvancedAudioEncoder@@UAEXPAV?$RPointerArray@VCMMFDataBuffer@@@@@Z @ 271 NONAME ; void CAdvancedAudioEncoder::SetSinkBuffers(class RPointerArray<class CMMFDataBuffer> *)
	?SetSourceBuffers@CAdvancedAudioDecoder@@UAEXPAV?$RPointerArray@VCMMFDataBuffer@@@@@Z @ 272 NONAME ; void CAdvancedAudioDecoder::SetSourceBuffers(class RPointerArray<class CMMFDataBuffer> *)
	?SetSourceReference@CAdvancedAudioDecoder@@UAEHII@Z @ 273 NONAME ; int CAdvancedAudioDecoder::SetSourceReference(unsigned int, unsigned int)
	?SetSourceReference@CAdvancedAudioUtility@@UAEHII@Z @ 274 NONAME ; int CAdvancedAudioUtility::SetSourceReference(unsigned int, unsigned int)
	?SinkDataTypeCode@CAdvancedAudioController@@MAE?AVTFourCC@@VTMediaId@@@Z @ 275 NONAME ; class TFourCC CAdvancedAudioController::SinkDataTypeCode(class TMediaId)
	?SourceDataTypeCode@CAdvancedAudioController@@MAE?AVTFourCC@@VTMediaId@@@Z @ 276 NONAME ; class TFourCC CAdvancedAudioController::SourceDataTypeCode(class TMediaId)
	?SourceSinkStopL@CAdvancedAudioPlayController@@MAEXXZ @ 277 NONAME ; void CAdvancedAudioPlayController::SourceSinkStopL(void)
	?Stop@CAdvancedAudioDecoder@@UAEXXZ @ 278 NONAME ; void CAdvancedAudioDecoder::Stop(void)
	?Stop@CAdvancedAudioEncoder@@UAEXXZ @ 279 NONAME ; void CAdvancedAudioEncoder::Stop(void)
	?StopL@CAdvancedAudioController@@MAEXXZ @ 280 NONAME ; void CAdvancedAudioController::StopL(void)
	?StopL@CAdvancedAudioPlayController@@MAEXXZ @ 281 NONAME ; void CAdvancedAudioPlayController::StopL(void)
	?StopL@CAdvancedAudioRecordController@@MAEXXZ @ 282 NONAME ; void CAdvancedAudioRecordController::StopL(void)
	?SyncOffset@CAdvancedAudioUtility@@QAEHXZ @ 283 NONAME ; int CAdvancedAudioUtility::SyncOffset(void)
	?UnMarkPlayEnd@CAdvancedAudioDecoder@@IAEXXZ @ 284 NONAME ; void CAdvancedAudioDecoder::UnMarkPlayEnd(void)
	?UpdateBitRate@CAdvancedAudioPlayController@@MAEHXZ @ 285 NONAME ; int CAdvancedAudioPlayController::UpdateBitRate(void)
	?UpdateDuration@CAdvancedAudioPlayController@@MAEHH@Z @ 286 NONAME ; int CAdvancedAudioPlayController::UpdateDuration(int)
	?WriteIfEnoughSpaceL@CAdvancedAudioRecordController@@IAEXPAVCMMFBuffer@@HPAVMDataSource@@H@Z @ 287 NONAME ; void CAdvancedAudioRecordController::WriteIfEnoughSpaceL(class CMMFBuffer *, int, class MDataSource *, int)
	?WriteIfMaxFileSizeReachedL@CAdvancedAudioRecordController@@IAEXPAVCMMFBuffer@@@Z @ 288 NONAME ; void CAdvancedAudioRecordController::WriteIfMaxFileSizeReachedL(class CMMFBuffer *)
	?LastBufferSent@CAdvancedAudioPlayController@@MAEXXZ @ 289 NONAME ; void CAdvancedAudioPlayController::LastBufferSent(void)
	?MapcSetRepeats@CAdvancedAudioPlayController@@MAEHHABVTTimeIntervalMicroSeconds@@@Z @ 290 NONAME ; int CAdvancedAudioPlayController::MapcSetRepeats(int, class TTimeIntervalMicroSeconds const &)
	?TrailingSilenceTimerComplete@CAdvancedAudioPlayController@@UAEXXZ @ 291 NONAME ; void CAdvancedAudioPlayController::TrailingSilenceTimerComplete(void)
	?QueueThisBuffer@CAdvancedAudioDecoder@@UAEXI@Z @ 292 NONAME ; void CAdvancedAudioDecoder::QueueThisBuffer(unsigned int)

