EXPORTS
	_ZN4QTMS10QTMSFormat10GetBitRateERj @ 1 NONAME
	_ZN4QTMS10QTMSFormat10SetBitRateEj @ 2 NONAME
	_ZN4QTMS10QTMSFormat20GetSupportedBitRatesERSt6vectorIjSaIjEE @ 3 NONAME
	_ZN4QTMS10QTMSFormat7GetTypeERi @ 4 NONAME
	_ZN4QTMS10QTMSFormatC1Ev @ 5 NONAME
	_ZN4QTMS10QTMSFormatC2Ev @ 6 NONAME
	_ZN4QTMS10QTMSFormatD0Ev @ 7 NONAME
	_ZN4QTMS10QTMSFormatD1Ev @ 8 NONAME
	_ZN4QTMS10QTMSFormatD2Ev @ 9 NONAME
	_ZN4QTMS10QTMSStream10RemoveSinkEPNS_8QTMSSinkE @ 10 NONAME
	_ZN4QTMS10QTMSStream11GetStreamIdEv @ 11 NONAME
	_ZN4QTMS10QTMSStream11ResetFormatEPNS_10QTMSFormatE @ 12 NONAME
	_ZN4QTMS10QTMSStream11qt_metacallEN11QMetaObject4CallEiPPv @ 13 NONAME
	_ZN4QTMS10QTMSStream11qt_metacastEPKc @ 14 NONAME
	_ZN4QTMS10QTMSStream12RemoveEffectEPNS_10QTMSEffectE @ 15 NONAME
	_ZN4QTMS10QTMSStream12RemoveSourceEPNS_10QTMSSourceE @ 16 NONAME
	_ZN4QTMS10QTMSStream13GetStreamTypeEv @ 17 NONAME
	_ZN4QTMS10QTMSStream14TMSStreamEventERKS0_NS_15QTMSSignalEventE @ 18 NONAME
	_ZN4QTMS10QTMSStream16staticMetaObjectE @ 19 NONAME DATA 16
	_ZN4QTMS10QTMSStream19getStaticMetaObjectEv @ 20 NONAME
	_ZN4QTMS10QTMSStream4InitEi @ 21 NONAME
	_ZN4QTMS10QTMSStream4StopEv @ 22 NONAME
	_ZN4QTMS10QTMSStream5PauseEv @ 23 NONAME
	_ZN4QTMS10QTMSStream5StartEi @ 24 NONAME
	_ZN4QTMS10QTMSStream6DeinitEv @ 25 NONAME
	_ZN4QTMS10QTMSStream7AddSinkEPNS_8QTMSSinkE @ 26 NONAME
	_ZN4QTMS10QTMSStream8GetStateEv @ 27 NONAME
	_ZN4QTMS10QTMSStream9AddEffectEPNS_10QTMSEffectE @ 28 NONAME
	_ZN4QTMS10QTMSStream9AddSourceEPNS_10QTMSSourceE @ 29 NONAME
	_ZN4QTMS10QTMSStream9SetFormatEPNS_10QTMSFormatE @ 30 NONAME
	_ZN4QTMS10QTMSStreamC1Ev @ 31 NONAME
	_ZN4QTMS10QTMSStreamC2Ev @ 32 NONAME
	_ZN4QTMS10QTMSStreamD0Ev @ 33 NONAME
	_ZN4QTMS10QTMSStreamD1Ev @ 34 NONAME
	_ZN4QTMS10QTMSStreamD2Ev @ 35 NONAME
	_ZN4QTMS11QTMSFactory10CreateCallEiRPNS_8QTMSCallEj @ 36 NONAME
	_ZN4QTMS11QTMSFactory10CreateDTMFEiRPNS_8QTMSDTMFE @ 37 NONAME
	_ZN4QTMS11QTMSFactory10CreateSinkEiRPNS_8QTMSSinkE @ 38 NONAME
	_ZN4QTMS11QTMSFactory10DeleteCallERPNS_8QTMSCallE @ 39 NONAME
	_ZN4QTMS11QTMSFactory10DeleteDTMFERPNS_8QTMSDTMFE @ 40 NONAME
	_ZN4QTMS11QTMSFactory10DeleteSinkERPNS_8QTMSSinkE @ 41 NONAME
	_ZN4QTMS11QTMSFactory11qt_metacallEN11QMetaObject4CallEiPPv @ 42 NONAME
	_ZN4QTMS11QTMSFactory11qt_metacastEPKc @ 43 NONAME
	_ZN4QTMS11QTMSFactory12CreateBufferEijRPNS_10QTMSBufferE @ 44 NONAME
	_ZN4QTMS11QTMSFactory12CreateEffectEiRPNS_10QTMSEffectE @ 45 NONAME
	_ZN4QTMS11QTMSFactory12CreateFormatEiRPNS_10QTMSFormatE @ 46 NONAME
	_ZN4QTMS11QTMSFactory12CreateSourceEiRPNS_10QTMSSourceE @ 47 NONAME
	_ZN4QTMS11QTMSFactory12DeleteBufferERPNS_10QTMSBufferE @ 48 NONAME
	_ZN4QTMS11QTMSFactory12DeleteEffectERPNS_10QTMSEffectE @ 49 NONAME
	_ZN4QTMS11QTMSFactory12DeleteFormatERPNS_10QTMSFormatE @ 50 NONAME
	_ZN4QTMS11QTMSFactory12DeleteSourceERPNS_10QTMSSourceE @ 51 NONAME
	_ZN4QTMS11QTMSFactory13CreateFactoryERPS0_RNS_7QTMSVerE @ 52 NONAME
	_ZN4QTMS11QTMSFactory16staticMetaObjectE @ 53 NONAME DATA 16
	_ZN4QTMS11QTMSFactory19CreateGlobalRoutingERPNS_17QTMSGlobalRoutingE @ 54 NONAME
	_ZN4QTMS11QTMSFactory19DeleteGlobalRoutingERPNS_17QTMSGlobalRoutingE @ 55 NONAME
	_ZN4QTMS11QTMSFactory19GetSupportedFormatsEiRSt6vectorIPNS_10QTMSFormatESaIS3_EE @ 56 NONAME
	_ZN4QTMS11QTMSFactory19IsCallTypeSupportedEiRi @ 57 NONAME
	_ZN4QTMS11QTMSFactory19getStaticMetaObjectEv @ 58 NONAME
	_ZN4QTMS11QTMSFactory20CreateRingTonePlayerERPNS_12QTMSRingToneE @ 59 NONAME
	_ZN4QTMS11QTMSFactory20DeleteRingTonePlayerERPNS_12QTMSRingToneE @ 60 NONAME
	_ZN4QTMS11QTMSFactory22CreateInbandTonePlayerERPNS_14QTMSInbandToneE @ 61 NONAME
	_ZN4QTMS11QTMSFactory22DeleteInbandTonePlayerERPNS_14QTMSInbandToneE @ 62 NONAME
	_ZN4QTMS11QTMSFactoryC1ERNS_7QTMSVerE @ 63 NONAME
	_ZN4QTMS11QTMSFactoryC2ERNS_7QTMSVerE @ 64 NONAME
	_ZN4QTMS11QTMSFactoryD0Ev @ 65 NONAME
	_ZN4QTMS11QTMSFactoryD1Ev @ 66 NONAME
	_ZN4QTMS11QTMSFactoryD2Ev @ 67 NONAME
	_ZN4QTMS12QTMSRingTone11qt_metacallEN11QMetaObject4CallEiPPv @ 68 NONAME
	_ZN4QTMS12QTMSRingTone11qt_metacastEPKc @ 69 NONAME
	_ZN4QTMS12QTMSRingTone13RingtoneEventERKS0_NS_15QTMSSignalEventE @ 70 NONAME
	_ZN4QTMS12QTMSRingTone16staticMetaObjectE @ 71 NONAME DATA 16
	_ZN4QTMS12QTMSRingTone19getStaticMetaObjectEv @ 72 NONAME
	_ZN4QTMS12QTMSRingTone4InitEiP8_GStringS2_ @ 73 NONAME
	_ZN4QTMS12QTMSRingTone4MuteEv @ 74 NONAME
	_ZN4QTMS12QTMSRingTone4PlayEv @ 75 NONAME
	_ZN4QTMS12QTMSRingTone4StopEv @ 76 NONAME
	_ZN4QTMS12QTMSRingTone5PauseEv @ 77 NONAME
	_ZN4QTMS12QTMSRingTone6DeinitEv @ 78 NONAME
	_ZN4QTMS12QTMSRingToneC1Ev @ 79 NONAME
	_ZN4QTMS12QTMSRingToneC2Ev @ 80 NONAME
	_ZN4QTMS12QTMSRingToneD0Ev @ 81 NONAME
	_ZN4QTMS12QTMSRingToneD1Ev @ 82 NONAME
	_ZN4QTMS12QTMSRingToneD2Ev @ 83 NONAME
	_ZN4QTMS13QTMSAMRFormat11qt_metacallEN11QMetaObject4CallEiPPv @ 84 NONAME
	_ZN4QTMS13QTMSAMRFormat11qt_metacastEPKc @ 85 NONAME
	_ZN4QTMS13QTMSAMRFormat16staticMetaObjectE @ 86 NONAME DATA 16
	_ZN4QTMS13QTMSAMRFormat19getStaticMetaObjectEv @ 87 NONAME
	_ZN4QTMS13QTMSAMRFormatC1Ev @ 88 NONAME
	_ZN4QTMS13QTMSAMRFormatC2Ev @ 89 NONAME
	_ZN4QTMS13QTMSAMRFormatD0Ev @ 90 NONAME
	_ZN4QTMS13QTMSAMRFormatD1Ev @ 91 NONAME
	_ZN4QTMS13QTMSAMRFormatD2Ev @ 92 NONAME
	_ZN4QTMS13QTMSMicSource11qt_metacallEN11QMetaObject4CallEiPPv @ 93 NONAME
	_ZN4QTMS13QTMSMicSource11qt_metacastEPKc @ 94 NONAME
	_ZN4QTMS13QTMSMicSource16staticMetaObjectE @ 95 NONAME DATA 16
	_ZN4QTMS13QTMSMicSource19getStaticMetaObjectEv @ 96 NONAME
	_ZN4QTMS13QTMSMicSource7GetTypeERi @ 97 NONAME
	_ZN4QTMS13QTMSMicSourceC1Ev @ 98 NONAME
	_ZN4QTMS13QTMSMicSourceC2Ev @ 99 NONAME
	_ZN4QTMS13QTMSMicSourceD0Ev @ 100 NONAME
	_ZN4QTMS13QTMSMicSourceD1Ev @ 101 NONAME
	_ZN4QTMS13QTMSMicSourceD2Ev @ 102 NONAME
	_ZN4QTMS13QTMSModemSink11qt_metacallEN11QMetaObject4CallEiPPv @ 103 NONAME
	_ZN4QTMS13QTMSModemSink11qt_metacastEPKc @ 104 NONAME
	_ZN4QTMS13QTMSModemSink16staticMetaObjectE @ 105 NONAME DATA 16
	_ZN4QTMS13QTMSModemSink19getStaticMetaObjectEv @ 106 NONAME
	_ZN4QTMS13QTMSModemSink7GetTypeERi @ 107 NONAME
	_ZN4QTMS13QTMSModemSinkC1Ev @ 108 NONAME
	_ZN4QTMS13QTMSModemSinkC2Ev @ 109 NONAME
	_ZN4QTMS13QTMSModemSinkD0Ev @ 110 NONAME
	_ZN4QTMS13QTMSModemSinkD1Ev @ 111 NONAME
	_ZN4QTMS13QTMSModemSinkD2Ev @ 112 NONAME
	_ZN4QTMS13QTMSPCMFormat11qt_metacallEN11QMetaObject4CallEiPPv @ 113 NONAME
	_ZN4QTMS13QTMSPCMFormat11qt_metacastEPKc @ 114 NONAME
	_ZN4QTMS13QTMSPCMFormat16staticMetaObjectE @ 115 NONAME DATA 16
	_ZN4QTMS13QTMSPCMFormat19getStaticMetaObjectEv @ 116 NONAME
	_ZN4QTMS13QTMSPCMFormatC1Ev @ 117 NONAME
	_ZN4QTMS13QTMSPCMFormatC2Ev @ 118 NONAME
	_ZN4QTMS13QTMSPCMFormatD0Ev @ 119 NONAME
	_ZN4QTMS13QTMSPCMFormatD1Ev @ 120 NONAME
	_ZN4QTMS13QTMSPCMFormatD2Ev @ 121 NONAME
	_ZN4QTMS14QTMSClientSink11qt_metacallEN11QMetaObject4CallEiPPv @ 122 NONAME
	_ZN4QTMS14QTMSClientSink11qt_metacastEPKc @ 123 NONAME
	_ZN4QTMS14QTMSClientSink13ProcessBufferEPKNS_10QTMSBufferE @ 124 NONAME
	_ZN4QTMS14QTMSClientSink15BufferProcessedEPNS_10QTMSBufferE @ 125 NONAME
	_ZN4QTMS14QTMSClientSink16staticMetaObjectE @ 126 NONAME DATA 16
	_ZN4QTMS14QTMSClientSink19getStaticMetaObjectEv @ 127 NONAME
	_ZN4QTMS14QTMSClientSink7GetTypeERi @ 128 NONAME
	_ZN4QTMS14QTMSClientSinkC1Ev @ 129 NONAME
	_ZN4QTMS14QTMSClientSinkC2Ev @ 130 NONAME
	_ZN4QTMS14QTMSClientSinkD0Ev @ 131 NONAME
	_ZN4QTMS14QTMSClientSinkD1Ev @ 132 NONAME
	_ZN4QTMS14QTMSClientSinkD2Ev @ 133 NONAME
	_ZN4QTMS14QTMSG711Format10GetVADModeERi @ 134 NONAME
	_ZN4QTMS14QTMSG711Format10SetVADModeEi @ 135 NONAME
	_ZN4QTMS14QTMSG711Format11qt_metacallEN11QMetaObject4CallEiPPv @ 136 NONAME
	_ZN4QTMS14QTMSG711Format11qt_metacastEPKc @ 137 NONAME
	_ZN4QTMS14QTMSG711Format16staticMetaObjectE @ 138 NONAME DATA 16
	_ZN4QTMS14QTMSG711Format19getStaticMetaObjectEv @ 139 NONAME
	_ZN4QTMS14QTMSG711Format6GetCNGERi @ 140 NONAME
	_ZN4QTMS14QTMSG711Format6GetPlcERi @ 141 NONAME
	_ZN4QTMS14QTMSG711Format6SetCNGEi @ 142 NONAME
	_ZN4QTMS14QTMSG711Format6SetPlcEi @ 143 NONAME
	_ZN4QTMS14QTMSG711Format7GetModeERi @ 144 NONAME
	_ZN4QTMS14QTMSG711Format7SetModeEi @ 145 NONAME
	_ZN4QTMS14QTMSG711FormatC1Ev @ 146 NONAME
	_ZN4QTMS14QTMSG711FormatC2Ev @ 147 NONAME
	_ZN4QTMS14QTMSG711FormatD0Ev @ 148 NONAME
	_ZN4QTMS14QTMSG711FormatD1Ev @ 149 NONAME
	_ZN4QTMS14QTMSG711FormatD2Ev @ 150 NONAME
	_ZN4QTMS14QTMSG729Format10GetVADModeERi @ 151 NONAME
	_ZN4QTMS14QTMSG729Format10SetVADModeEi @ 152 NONAME
	_ZN4QTMS14QTMSG729Format11qt_metacallEN11QMetaObject4CallEiPPv @ 153 NONAME
	_ZN4QTMS14QTMSG729Format11qt_metacastEPKc @ 154 NONAME
	_ZN4QTMS14QTMSG729Format16staticMetaObjectE @ 155 NONAME DATA 16
	_ZN4QTMS14QTMSG729Format19getStaticMetaObjectEv @ 156 NONAME
	_ZN4QTMS14QTMSG729FormatC1Ev @ 157 NONAME
	_ZN4QTMS14QTMSG729FormatC2Ev @ 158 NONAME
	_ZN4QTMS14QTMSG729FormatD0Ev @ 159 NONAME
	_ZN4QTMS14QTMSG729FormatD1Ev @ 160 NONAME
	_ZN4QTMS14QTMSG729FormatD2Ev @ 161 NONAME
	_ZN4QTMS14QTMSGainEffect11GetMaxLevelERj @ 162 NONAME
	_ZN4QTMS14QTMSGainEffect11qt_metacallEN11QMetaObject4CallEiPPv @ 163 NONAME
	_ZN4QTMS14QTMSGainEffect11qt_metacastEPKc @ 164 NONAME
	_ZN4QTMS14QTMSGainEffect12EffectsEventERKNS_10QTMSEffectENS_15QTMSSignalEventE @ 165 NONAME
	_ZN4QTMS14QTMSGainEffect16staticMetaObjectE @ 166 NONAME DATA 16
	_ZN4QTMS14QTMSGainEffect19getStaticMetaObjectEv @ 167 NONAME
	_ZN4QTMS14QTMSGainEffect7GetTypeERi @ 168 NONAME
	_ZN4QTMS14QTMSGainEffect8GetLevelERj @ 169 NONAME
	_ZN4QTMS14QTMSGainEffect8SetLevelEj @ 170 NONAME
	_ZN4QTMS14QTMSGainEffectC1Ev @ 171 NONAME
	_ZN4QTMS14QTMSGainEffectC2Ev @ 172 NONAME
	_ZN4QTMS14QTMSGainEffectD0Ev @ 173 NONAME
	_ZN4QTMS14QTMSGainEffectD1Ev @ 174 NONAME
	_ZN4QTMS14QTMSGainEffectD2Ev @ 175 NONAME
	_ZN4QTMS14QTMSILBCFormat10GetVADModeERi @ 176 NONAME
	_ZN4QTMS14QTMSILBCFormat10SetVADModeEi @ 177 NONAME
	_ZN4QTMS14QTMSILBCFormat11qt_metacallEN11QMetaObject4CallEiPPv @ 178 NONAME
	_ZN4QTMS14QTMSILBCFormat11qt_metacastEPKc @ 179 NONAME
	_ZN4QTMS14QTMSILBCFormat16staticMetaObjectE @ 180 NONAME DATA 16
	_ZN4QTMS14QTMSILBCFormat19getStaticMetaObjectEv @ 181 NONAME
	_ZN4QTMS14QTMSILBCFormat6GetCNGERi @ 182 NONAME
	_ZN4QTMS14QTMSILBCFormat6SetCNGEi @ 183 NONAME
	_ZN4QTMS14QTMSILBCFormat7GetModeERi @ 184 NONAME
	_ZN4QTMS14QTMSILBCFormat7SetModeEi @ 185 NONAME
	_ZN4QTMS14QTMSILBCFormatC1Ev @ 186 NONAME
	_ZN4QTMS14QTMSILBCFormatC2Ev @ 187 NONAME
	_ZN4QTMS14QTMSILBCFormatD0Ev @ 188 NONAME
	_ZN4QTMS14QTMSILBCFormatD1Ev @ 189 NONAME
	_ZN4QTMS14QTMSILBCFormatD2Ev @ 190 NONAME
	_ZN4QTMS14QTMSInbandTone11qt_metacallEN11QMetaObject4CallEiPPv @ 191 NONAME
	_ZN4QTMS14QTMSInbandTone11qt_metacastEPKc @ 192 NONAME
	_ZN4QTMS14QTMSInbandTone15InbandToneEventERKS0_NS_15QTMSSignalEventE @ 193 NONAME
	_ZN4QTMS14QTMSInbandTone16staticMetaObjectE @ 194 NONAME DATA 16
	_ZN4QTMS14QTMSInbandTone19getStaticMetaObjectEv @ 195 NONAME
	_ZN4QTMS14QTMSInbandTone4StopEv @ 196 NONAME
	_ZN4QTMS14QTMSInbandTone5StartEi @ 197 NONAME
	_ZN4QTMS14QTMSInbandToneC1Ev @ 198 NONAME
	_ZN4QTMS14QTMSInbandToneC2Ev @ 199 NONAME
	_ZN4QTMS14QTMSInbandToneD0Ev @ 200 NONAME
	_ZN4QTMS14QTMSInbandToneD1Ev @ 201 NONAME
	_ZN4QTMS14QTMSInbandToneD2Ev @ 202 NONAME
	_ZN4QTMS15QTMSModemSource11qt_metacallEN11QMetaObject4CallEiPPv @ 203 NONAME
	_ZN4QTMS15QTMSModemSource11qt_metacastEPKc @ 204 NONAME
	_ZN4QTMS15QTMSModemSource16staticMetaObjectE @ 205 NONAME DATA 16
	_ZN4QTMS15QTMSModemSource19getStaticMetaObjectEv @ 206 NONAME
	_ZN4QTMS15QTMSModemSource7GetTypeERi @ 207 NONAME
	_ZN4QTMS15QTMSModemSourceC1Ev @ 208 NONAME
	_ZN4QTMS15QTMSModemSourceC2Ev @ 209 NONAME
	_ZN4QTMS15QTMSModemSourceD0Ev @ 210 NONAME
	_ZN4QTMS15QTMSModemSourceD1Ev @ 211 NONAME
	_ZN4QTMS15QTMSModemSourceD2Ev @ 212 NONAME
	_ZN4QTMS15QTMSSpeakerSink11qt_metacallEN11QMetaObject4CallEiPPv @ 213 NONAME
	_ZN4QTMS15QTMSSpeakerSink11qt_metacastEPKc @ 214 NONAME
	_ZN4QTMS15QTMSSpeakerSink16staticMetaObjectE @ 215 NONAME DATA 16
	_ZN4QTMS15QTMSSpeakerSink19getStaticMetaObjectEv @ 216 NONAME
	_ZN4QTMS15QTMSSpeakerSink7GetTypeERi @ 217 NONAME
	_ZN4QTMS15QTMSSpeakerSinkC1Ev @ 218 NONAME
	_ZN4QTMS15QTMSSpeakerSinkC2Ev @ 219 NONAME
	_ZN4QTMS15QTMSSpeakerSinkD0Ev @ 220 NONAME
	_ZN4QTMS15QTMSSpeakerSinkD1Ev @ 221 NONAME
	_ZN4QTMS15QTMSSpeakerSinkD2Ev @ 222 NONAME
	_ZN4QTMS16QTMSClientSource10FillBufferERNS_10QTMSBufferE @ 223 NONAME
	_ZN4QTMS16QTMSClientSource11qt_metacallEN11QMetaObject4CallEiPPv @ 224 NONAME
	_ZN4QTMS16QTMSClientSource11qt_metacastEPKc @ 225 NONAME
	_ZN4QTMS16QTMSClientSource12BufferFilledERNS_10QTMSBufferE @ 226 NONAME
	_ZN4QTMS16QTMSClientSource13ProcessBufferEPNS_10QTMSBufferE @ 227 NONAME
	_ZN4QTMS16QTMSClientSource14GetEnqueueModeERi @ 228 NONAME
	_ZN4QTMS16QTMSClientSource14SetEnqueueModeEi @ 229 NONAME
	_ZN4QTMS16QTMSClientSource15BufferProcessedEPKNS_10QTMSBufferEi @ 230 NONAME
	_ZN4QTMS16QTMSClientSource16staticMetaObjectE @ 231 NONAME DATA 16
	_ZN4QTMS16QTMSClientSource19getStaticMetaObjectEv @ 232 NONAME
	_ZN4QTMS16QTMSClientSource5FlushEv @ 233 NONAME
	_ZN4QTMS16QTMSClientSource7GetTypeERi @ 234 NONAME
	_ZN4QTMS16QTMSClientSourceC1Ev @ 235 NONAME
	_ZN4QTMS16QTMSClientSourceC2Ev @ 236 NONAME
	_ZN4QTMS16QTMSClientSourceD0Ev @ 237 NONAME
	_ZN4QTMS16QTMSClientSourceD1Ev @ 238 NONAME
	_ZN4QTMS16QTMSClientSourceD2Ev @ 239 NONAME
	_ZN4QTMS16QTMSVolumeEffect11GetMaxLevelERj @ 240 NONAME
	_ZN4QTMS16QTMSVolumeEffect11qt_metacallEN11QMetaObject4CallEiPPv @ 241 NONAME
	_ZN4QTMS16QTMSVolumeEffect11qt_metacastEPKc @ 242 NONAME
	_ZN4QTMS16QTMSVolumeEffect12EffectsEventERKNS_10QTMSEffectENS_15QTMSSignalEventE @ 243 NONAME
	_ZN4QTMS16QTMSVolumeEffect16staticMetaObjectE @ 244 NONAME DATA 16
	_ZN4QTMS16QTMSVolumeEffect19getStaticMetaObjectEv @ 245 NONAME
	_ZN4QTMS16QTMSVolumeEffect7GetTypeERi @ 246 NONAME
	_ZN4QTMS16QTMSVolumeEffect8GetLevelERj @ 247 NONAME
	_ZN4QTMS16QTMSVolumeEffect8SetLevelEj @ 248 NONAME
	_ZN4QTMS16QTMSVolumeEffectC1Ev @ 249 NONAME
	_ZN4QTMS16QTMSVolumeEffectC2Ev @ 250 NONAME
	_ZN4QTMS16QTMSVolumeEffectD0Ev @ 251 NONAME
	_ZN4QTMS16QTMSVolumeEffectD1Ev @ 252 NONAME
	_ZN4QTMS16QTMSVolumeEffectD2Ev @ 253 NONAME
	_ZN4QTMS17QTMSGlobalRouting11qt_metacallEN11QMetaObject4CallEiPPv @ 254 NONAME
	_ZN4QTMS17QTMSGlobalRouting11qt_metacastEPKc @ 255 NONAME
	_ZN4QTMS17QTMSGlobalRouting16staticMetaObjectE @ 256 NONAME DATA 16
	_ZN4QTMS17QTMSGlobalRouting17GetPreviousOutputERi @ 257 NONAME
	_ZN4QTMS17QTMSGlobalRouting18GlobalRoutingEventERKS0_NS_15QTMSSignalEventEi @ 258 NONAME
	_ZN4QTMS17QTMSGlobalRouting19GetAvailableOutputsERSt6vectorIjSaIjEE @ 259 NONAME
	_ZN4QTMS17QTMSGlobalRouting19getStaticMetaObjectEv @ 260 NONAME
	_ZN4QTMS17QTMSGlobalRouting9GetOutputERi @ 261 NONAME
	_ZN4QTMS17QTMSGlobalRouting9SetOutputEi @ 262 NONAME
	_ZN4QTMS17QTMSGlobalRoutingC1Ev @ 263 NONAME
	_ZN4QTMS17QTMSGlobalRoutingC2Ev @ 264 NONAME
	_ZN4QTMS17QTMSGlobalRoutingD0Ev @ 265 NONAME
	_ZN4QTMS17QTMSGlobalRoutingD1Ev @ 266 NONAME
	_ZN4QTMS17QTMSGlobalRoutingD2Ev @ 267 NONAME
	_ZN4QTMS19QTMSGlobalVolEffect11GetMaxLevelERj @ 268 NONAME
	_ZN4QTMS19QTMSGlobalVolEffect11qt_metacallEN11QMetaObject4CallEiPPv @ 269 NONAME
	_ZN4QTMS19QTMSGlobalVolEffect11qt_metacastEPKc @ 270 NONAME
	_ZN4QTMS19QTMSGlobalVolEffect12EffectsEventERKNS_10QTMSEffectENS_15QTMSSignalEventE @ 271 NONAME
	_ZN4QTMS19QTMSGlobalVolEffect16staticMetaObjectE @ 272 NONAME DATA 16
	_ZN4QTMS19QTMSGlobalVolEffect19getStaticMetaObjectEv @ 273 NONAME
	_ZN4QTMS19QTMSGlobalVolEffect7GetTypeERi @ 274 NONAME
	_ZN4QTMS19QTMSGlobalVolEffect8GetLevelERj @ 275 NONAME
	_ZN4QTMS19QTMSGlobalVolEffect8SetLevelEj @ 276 NONAME
	_ZN4QTMS19QTMSGlobalVolEffectC1Ev @ 277 NONAME
	_ZN4QTMS19QTMSGlobalVolEffectC2Ev @ 278 NONAME
	_ZN4QTMS19QTMSGlobalVolEffectD0Ev @ 279 NONAME
	_ZN4QTMS19QTMSGlobalVolEffectD1Ev @ 280 NONAME
	_ZN4QTMS19QTMSGlobalVolEffectD2Ev @ 281 NONAME
	_ZN4QTMS20QTMSGlobalGainEffect11GetMaxLevelERj @ 282 NONAME
	_ZN4QTMS20QTMSGlobalGainEffect11qt_metacallEN11QMetaObject4CallEiPPv @ 283 NONAME
	_ZN4QTMS20QTMSGlobalGainEffect11qt_metacastEPKc @ 284 NONAME
	_ZN4QTMS20QTMSGlobalGainEffect12EffectsEventERKNS_10QTMSEffectENS_15QTMSSignalEventE @ 285 NONAME
	_ZN4QTMS20QTMSGlobalGainEffect16staticMetaObjectE @ 286 NONAME DATA 16
	_ZN4QTMS20QTMSGlobalGainEffect19getStaticMetaObjectEv @ 287 NONAME
	_ZN4QTMS20QTMSGlobalGainEffect7GetTypeERi @ 288 NONAME
	_ZN4QTMS20QTMSGlobalGainEffect8GetLevelERj @ 289 NONAME
	_ZN4QTMS20QTMSGlobalGainEffect8SetLevelEj @ 290 NONAME
	_ZN4QTMS20QTMSGlobalGainEffectC1Ev @ 291 NONAME
	_ZN4QTMS20QTMSGlobalGainEffectC2Ev @ 292 NONAME
	_ZN4QTMS20QTMSGlobalGainEffectD0Ev @ 293 NONAME
	_ZN4QTMS20QTMSGlobalGainEffectD1Ev @ 294 NONAME
	_ZN4QTMS20QTMSGlobalGainEffectD2Ev @ 295 NONAME
	_ZN4QTMS8QTMSCall11GetCallTypeEv @ 296 NONAME
	_ZN4QTMS8QTMSCall11qt_metacallEN11QMetaObject4CallEiPPv @ 297 NONAME
	_ZN4QTMS8QTMSCall11qt_metacastEPKc @ 298 NONAME
	_ZN4QTMS8QTMSCall12CreateStreamEiRPNS_10QTMSStreamE @ 299 NONAME
	_ZN4QTMS8QTMSCall12DeleteStreamERPNS_10QTMSStreamE @ 300 NONAME
	_ZN4QTMS8QTMSCall16GetCallContextIdERj @ 301 NONAME
	_ZN4QTMS8QTMSCall16staticMetaObjectE @ 302 NONAME DATA 16
	_ZN4QTMS8QTMSCall19getStaticMetaObjectEv @ 303 NONAME
	_ZN4QTMS8QTMSCallC1Ev @ 304 NONAME
	_ZN4QTMS8QTMSCallC2Ev @ 305 NONAME
	_ZN4QTMS8QTMSCallD0Ev @ 306 NONAME
	_ZN4QTMS8QTMSCallD1Ev @ 307 NONAME
	_ZN4QTMS8QTMSCallD2Ev @ 308 NONAME
	_ZN4QTMS8QTMSDTMF11qt_metacallEN11QMetaObject4CallEiPPv @ 309 NONAME
	_ZN4QTMS8QTMSDTMF11qt_metacastEPKc @ 310 NONAME
	_ZN4QTMS8QTMSDTMF16staticMetaObjectE @ 311 NONAME DATA 16
	_ZN4QTMS8QTMSDTMF19getStaticMetaObjectEv @ 312 NONAME
	_ZN4QTMS8QTMSDTMF25ContinueDTMFStringSendingEi @ 313 NONAME
	_ZN4QTMS8QTMSDTMF4StopEv @ 314 NONAME
	_ZN4QTMS8QTMSDTMF5StartEv @ 315 NONAME
	_ZN4QTMS8QTMSDTMF7SetToneEP8_GString @ 316 NONAME
	_ZN4QTMS8QTMSDTMF9DTMFEventERKS0_NS_15QTMSSignalEventE @ 317 NONAME
	_ZN4QTMS8QTMSDTMFC1Ev @ 318 NONAME
	_ZN4QTMS8QTMSDTMFC2Ev @ 319 NONAME
	_ZN4QTMS8QTMSDTMFD0Ev @ 320 NONAME
	_ZN4QTMS8QTMSDTMFD1Ev @ 321 NONAME
	_ZN4QTMS8QTMSDTMFD2Ev @ 322 NONAME
	_ZNK4QTMS10QTMSStream10metaObjectEv @ 323 NONAME
	_ZNK4QTMS11QTMSFactory10metaObjectEv @ 324 NONAME
	_ZNK4QTMS12QTMSRingTone10metaObjectEv @ 325 NONAME
	_ZNK4QTMS13QTMSAMRFormat10metaObjectEv @ 326 NONAME
	_ZNK4QTMS13QTMSMicSource10metaObjectEv @ 327 NONAME
	_ZNK4QTMS13QTMSModemSink10metaObjectEv @ 328 NONAME
	_ZNK4QTMS13QTMSPCMFormat10metaObjectEv @ 329 NONAME
	_ZNK4QTMS14QTMSClientSink10metaObjectEv @ 330 NONAME
	_ZNK4QTMS14QTMSG711Format10metaObjectEv @ 331 NONAME
	_ZNK4QTMS14QTMSG729Format10metaObjectEv @ 332 NONAME
	_ZNK4QTMS14QTMSGainEffect10metaObjectEv @ 333 NONAME
	_ZNK4QTMS14QTMSILBCFormat10metaObjectEv @ 334 NONAME
	_ZNK4QTMS14QTMSInbandTone10metaObjectEv @ 335 NONAME
	_ZNK4QTMS15QTMSModemSource10metaObjectEv @ 336 NONAME
	_ZNK4QTMS15QTMSSpeakerSink10metaObjectEv @ 337 NONAME
	_ZNK4QTMS16QTMSClientSource10metaObjectEv @ 338 NONAME
	_ZNK4QTMS16QTMSVolumeEffect10metaObjectEv @ 339 NONAME
	_ZNK4QTMS17QTMSGlobalRouting10metaObjectEv @ 340 NONAME
	_ZNK4QTMS19QTMSGlobalVolEffect10metaObjectEv @ 341 NONAME
	_ZNK4QTMS20QTMSGlobalGainEffect10metaObjectEv @ 342 NONAME
	_ZNK4QTMS8QTMSCall10metaObjectEv @ 343 NONAME
	_ZNK4QTMS8QTMSDTMF10metaObjectEv @ 344 NONAME
	_ZTIN4QTMS10QTMSFormatE @ 345 NONAME
	_ZTIN4QTMS10QTMSStreamE @ 346 NONAME
	_ZTIN4QTMS11QTMSFactoryE @ 347 NONAME
	_ZTIN4QTMS12QTMSRingToneE @ 348 NONAME
	_ZTIN4QTMS13QTMSAMRFormatE @ 349 NONAME
	_ZTIN4QTMS13QTMSMicSourceE @ 350 NONAME
	_ZTIN4QTMS13QTMSModemSinkE @ 351 NONAME
	_ZTIN4QTMS13QTMSPCMFormatE @ 352 NONAME
	_ZTIN4QTMS14QTMSClientSinkE @ 353 NONAME
	_ZTIN4QTMS14QTMSG711FormatE @ 354 NONAME
	_ZTIN4QTMS14QTMSG729FormatE @ 355 NONAME
	_ZTIN4QTMS14QTMSGainEffectE @ 356 NONAME
	_ZTIN4QTMS14QTMSILBCFormatE @ 357 NONAME
	_ZTIN4QTMS14QTMSInbandToneE @ 358 NONAME
	_ZTIN4QTMS15QTMSModemSourceE @ 359 NONAME
	_ZTIN4QTMS15QTMSSpeakerSinkE @ 360 NONAME
	_ZTIN4QTMS16QTMSClientSourceE @ 361 NONAME
	_ZTIN4QTMS16QTMSVolumeEffectE @ 362 NONAME
	_ZTIN4QTMS17QTMSGlobalRoutingE @ 363 NONAME
	_ZTIN4QTMS19QTMSGlobalVolEffectE @ 364 NONAME
	_ZTIN4QTMS20QTMSGlobalGainEffectE @ 365 NONAME
	_ZTIN4QTMS8QTMSCallE @ 366 NONAME
	_ZTIN4QTMS8QTMSDTMFE @ 367 NONAME
	_ZTVN4QTMS10QTMSFormatE @ 368 NONAME
	_ZTVN4QTMS10QTMSStreamE @ 369 NONAME
	_ZTVN4QTMS11QTMSFactoryE @ 370 NONAME
	_ZTVN4QTMS12QTMSRingToneE @ 371 NONAME
	_ZTVN4QTMS13QTMSAMRFormatE @ 372 NONAME
	_ZTVN4QTMS13QTMSMicSourceE @ 373 NONAME
	_ZTVN4QTMS13QTMSModemSinkE @ 374 NONAME
	_ZTVN4QTMS13QTMSPCMFormatE @ 375 NONAME
	_ZTVN4QTMS14QTMSClientSinkE @ 376 NONAME
	_ZTVN4QTMS14QTMSG711FormatE @ 377 NONAME
	_ZTVN4QTMS14QTMSG729FormatE @ 378 NONAME
	_ZTVN4QTMS14QTMSGainEffectE @ 379 NONAME
	_ZTVN4QTMS14QTMSILBCFormatE @ 380 NONAME
	_ZTVN4QTMS14QTMSInbandToneE @ 381 NONAME
	_ZTVN4QTMS15QTMSModemSourceE @ 382 NONAME
	_ZTVN4QTMS15QTMSSpeakerSinkE @ 383 NONAME
	_ZTVN4QTMS16QTMSClientSourceE @ 384 NONAME
	_ZTVN4QTMS16QTMSVolumeEffectE @ 385 NONAME
	_ZTVN4QTMS17QTMSGlobalRoutingE @ 386 NONAME
	_ZTVN4QTMS19QTMSGlobalVolEffectE @ 387 NONAME
	_ZTVN4QTMS20QTMSGlobalGainEffectE @ 388 NONAME
	_ZTVN4QTMS8QTMSCallE @ 389 NONAME
	_ZTVN4QTMS8QTMSDTMFE @ 390 NONAME
	_ZThn8_N4QTMS13QTMSAMRFormatD0Ev @ 391 NONAME
	_ZThn8_N4QTMS13QTMSAMRFormatD1Ev @ 392 NONAME
	_ZThn8_N4QTMS13QTMSMicSource7GetTypeERi @ 393 NONAME
	_ZThn8_N4QTMS13QTMSModemSink7GetTypeERi @ 394 NONAME
	_ZThn8_N4QTMS13QTMSPCMFormatD0Ev @ 395 NONAME
	_ZThn8_N4QTMS13QTMSPCMFormatD1Ev @ 396 NONAME
	_ZThn8_N4QTMS14QTMSClientSink7GetTypeERi @ 397 NONAME
	_ZThn8_N4QTMS14QTMSG711FormatD0Ev @ 398 NONAME
	_ZThn8_N4QTMS14QTMSG711FormatD1Ev @ 399 NONAME
	_ZThn8_N4QTMS14QTMSG729FormatD0Ev @ 400 NONAME
	_ZThn8_N4QTMS14QTMSG729FormatD1Ev @ 401 NONAME
	_ZThn8_N4QTMS14QTMSGainEffect7GetTypeERi @ 402 NONAME
	_ZThn8_N4QTMS14QTMSILBCFormatD0Ev @ 403 NONAME
	_ZThn8_N4QTMS14QTMSILBCFormatD1Ev @ 404 NONAME
	_ZThn8_N4QTMS15QTMSModemSource7GetTypeERi @ 405 NONAME
	_ZThn8_N4QTMS15QTMSSpeakerSink7GetTypeERi @ 406 NONAME
	_ZThn8_N4QTMS16QTMSClientSource7GetTypeERi @ 407 NONAME
	_ZThn8_N4QTMS16QTMSVolumeEffect7GetTypeERi @ 408 NONAME
	_ZThn8_N4QTMS19QTMSGlobalVolEffect7GetTypeERi @ 409 NONAME
	_ZThn8_N4QTMS20QTMSGlobalGainEffect7GetTypeERi @ 410 NONAME

