EXPORTS
	??1CLocationRecord@@UAE@XZ @ 1 NONAME ; CLocationRecord::~CLocationRecord(void)
	??1CNetworkInfo@@UAE@XZ @ 2 NONAME ; CNetworkInfo::~CNetworkInfo(void)
	??1CPositionInfo@@UAE@XZ @ 3 NONAME ; CPositionInfo::~CPositionInfo(void)
	??1CTrackLog@@UAE@XZ @ 4 NONAME ; CTrackLog::~CTrackLog(void)
	?AddGpxObserver@CTrackLog@@QAEXPAVMGpxConversionObserver@@@Z @ 5 NONAME ; void CTrackLog::AddGpxObserver(class MGpxConversionObserver *)
	?CancelLocationRequest@CLocationRecord@@QAEXXZ @ 6 NONAME ; void CLocationRecord::CancelLocationRequest(void)
	?CancelRecording@CTrackLog@@QAEXXZ @ 7 NONAME ; void CTrackLog::CancelRecording(void)
	?CreateLocationObjectL@CLocationRecord@@QAEXABUTLocationData@@ABI@Z @ 8 NONAME ; void CLocationRecord::CreateLocationObjectL(struct TLocationData const &, unsigned int const &)
	?CreateLocationTagL@CLocationRecord@@QAEKXZ @ 9 NONAME ABSENT ; unsigned long CLocationRecord::CreateLocationTagL(void)
	?GetLocationByTimeL@CLocationRecord@@QAEXVTTime@@AAUTLocationData@@AAW4TTrailState@RLocationTrail@@@Z @ 10 NONAME ; void CLocationRecord::GetLocationByTimeL(class TTime, struct TLocationData &, enum RLocationTrail::TTrailState &)
	?GetNetworkInfo@CLocationRecord@@QAEXAAVTNetworkInfoV1@CTelephony@@@Z @ 11 NONAME ; void CLocationRecord::GetNetworkInfo(class CTelephony::TNetworkInfoV1 &)
	?GetStatus@CTrackLog@@QAEHAAHAAVTPositionSatelliteInfo@@@Z @ 12 NONAME ; int CTrackLog::GetStatus(int &, class TPositionSatelliteInfo &)
	?GetTagId@CTrackLog@@QAEKXZ @ 13 NONAME ABSENT ; unsigned long CTrackLog::GetTagId(void)
	?GetTrackLogName@CTrackLog@@QAEXAAV?$TBuf@$0BAA@@@@Z @ 14 NONAME ; void CTrackLog::GetTrackLogName(class TBuf<256> &)
	?IsRecording@CTrackLog@@QAEHXZ @ 15 NONAME ; int CTrackLog::IsRecording(void)
	?LocationTrailState@CLocationRecord@@QAEXAAW4TTrailState@RLocationTrail@@@Z @ 16 NONAME ; void CLocationRecord::LocationTrailState(enum RLocationTrail::TTrailState &)
	?NewL@CLocationRecord@@SAPAV1@AAVMGeoTaggerObserver@@AAVRMobilePhone@@@Z @ 17 NONAME ; class CLocationRecord * CLocationRecord::NewL(class MGeoTaggerObserver &, class RMobilePhone &)
	?NewL@CNetworkInfo@@SAPAV1@PAVMNetworkInfoObserver@@@Z @ 18 NONAME ; class CNetworkInfo * CNetworkInfo::NewL(class MNetworkInfoObserver *)
	?NewL@CPositionInfo@@SAPAV1@PAVMPositionInfoObserver@@@Z @ 19 NONAME ; class CPositionInfo * CPositionInfo::NewL(class MPositionInfoObserver *)
	?NewL@CTrackLog@@SAPAV1@XZ @ 20 NONAME ; class CTrackLog * CTrackLog::NewL(void)
	?RequestLocationL@CLocationRecord@@QAEXXZ @ 21 NONAME ; void CLocationRecord::RequestLocationL(void)
	?SetAddObserver@CLocationRecord@@QAEXPAVMLocationAddObserver@@@Z @ 22 NONAME ; void CLocationRecord::SetAddObserver(class MLocationAddObserver *)
	?SetMdeSession@CLocationRecord@@QAEXPAVCMdESession@@@Z @ 23 NONAME ; void CLocationRecord::SetMdeSession(class CMdESession *)
	?SetObserver@CLocationRecord@@QAEXPAVMLocationTrailObserver@@@Z @ 24 NONAME ; void CLocationRecord::SetObserver(class MLocationTrailObserver *)
	?StartL@CLocationRecord@@QAEXW4TTrailCaptureSetting@RLocationTrail@@@Z @ 25 NONAME ; void CLocationRecord::StartL(enum RLocationTrail::TTrailCaptureSetting)
	?StartRecordingL@CTrackLog@@QAEXK@Z @ 26 NONAME ; void CTrackLog::StartRecordingL(unsigned long)
	?StartRecoveryL@CTrackLog@@QAEXXZ @ 27 NONAME ; void CTrackLog::StartRecoveryL(void)
	?Stop@CLocationRecord@@QAEXXZ @ 28 NONAME ; void CLocationRecord::Stop(void)
	?StopRecordingL@CTrackLog@@QAEXXZ @ 29 NONAME ; void CTrackLog::StopRecordingL(void)
	?SetStateToStopping@CLocationRecord@@QAEXXZ @ 30 NONAME ; void CLocationRecord::SetStateToStopping(void)
	?LocationSnapshotL@CLocationRecord@@QAEXABI@Z @ 31 NONAME ; void CLocationRecord::LocationSnapshotL(unsigned int const &)
	?RemappingNeeded@CLocationRecord@@QAEHXZ @ 32 NONAME ; int CLocationRecord::RemappingNeeded(void)
	?StartGeoTagging@CLocationRecord@@QAEHW4TConnectionOption@@@Z @ 33 NONAME ; int CLocationRecord::StartGeoTagging(enum TConnectionOption)
	?StartNwInfoChangeNotifier@CNetworkInfo@@QAEXXZ @ 34 NONAME ; void CNetworkInfo::StartNwInfoChangeNotifier(void)
	?StopNwInfoChangeNotifier@CNetworkInfo@@QAEXXZ @ 35 NONAME ; void CNetworkInfo::StopNwInfoChangeNotifier(void)
	?CancelGeoTagging@CLocationRecord@@QAEXXZ @ 36 NONAME ; void CLocationRecord::CancelGeoTagging(void)
	?TaggingInProgress@CLocationRecord@@QAEHXZ @ 37 NONAME ; int CLocationRecord::TaggingInProgress(void)
	?MapNetworkInfo@CNetworkInfo@@SAXPAVTNetworkInfoV1@CTelephony@@PAVTMobilePhoneNetworkInfoV2@RMobilePhone@@PAVTMobilePhoneLocationAreaV1@5@@Z @ 38 NONAME ; void CNetworkInfo::MapNetworkInfo(class CTelephony::TNetworkInfoV1 *, class RMobilePhone::TMobilePhoneNetworkInfoV2 *, class RMobilePhone::TMobilePhoneLocationAreaV1 *)
	?GetCurrentRegisteredNw@CLocationRecord@@QAEAAVTMobilePhoneNetworkInfoV2@RMobilePhone@@XZ @ 39 NONAME ; class RMobilePhone::TMobilePhoneNetworkInfoV2 & CLocationRecord::GetCurrentRegisteredNw(void)
	?IsLowBattery@CLocationRecord@@QAEHXZ @ 40 NONAME ; int CLocationRecord::IsLowBattery(void)

