EXPORTS
	?BadLsfNextBuffer@RVoIPAudioSession@@QAEHXZ @ 1 NONAME ; int RVoIPAudioSession::BadLsfNextBuffer(void)
	?BufferEmptied@RVoIPAudioSession@@QAEHVTPtr8@@@Z @ 2 NONAME ; int RVoIPAudioSession::BufferEmptied(class TPtr8)
	?BufferFilled@RVoIPAudioSession@@QAEHVTPtr8@@I@Z @ 3 NONAME ; int RVoIPAudioSession::BufferFilled(class TPtr8, unsigned int)
	?Close@RVoIPAudioSession@@QAEXXZ @ 4 NONAME ; void RVoIPAudioSession::Close(void)
	?CloseDTMFTonePlayer@RVoIPAudioSession@@QAEXXZ @ 5 NONAME ; void RVoIPAudioSession::CloseDTMFTonePlayer(void)
	?CloseDownlink@RVoIPAudioSession@@QAEXXZ @ 6 NONAME ; void RVoIPAudioSession::CloseDownlink(void)
	?CloseRingTonePlayer@RVoIPAudioSession@@QAEXXZ @ 7 NONAME ; void RVoIPAudioSession::CloseRingTonePlayer(void)
	?CloseUplink@RVoIPAudioSession@@QAEXXZ @ 8 NONAME ; void RVoIPAudioSession::CloseUplink(void)
	?ConcealErrorForNextBuffer@RVoIPAudioSession@@QAEHXZ @ 9 NONAME ; int RVoIPAudioSession::ConcealErrorForNextBuffer(void)
	?ConfigureJitterBuffer@RVoIPAudioSession@@QAEHABVTVoIPJBConfig@@@Z @ 10 NONAME ; int RVoIPAudioSession::ConfigureJitterBuffer(class TVoIPJBConfig const &)
	?Connect@RVoIPAudioSession@@QAEHXZ @ 11 NONAME ; int RVoIPAudioSession::Connect(void)
	?DelayDown@RVoIPAudioSession@@QAEHXZ @ 12 NONAME ; int RVoIPAudioSession::DelayDown(void)
	?DelayUp@RVoIPAudioSession@@QAEHXZ @ 13 NONAME ; int RVoIPAudioSession::DelayUp(void)
	?FrameModeRequiredForEC@RVoIPAudioSession@@QAEHAAH@Z @ 14 NONAME ; int RVoIPAudioSession::FrameModeRequiredForEC(int &)
	?GetAudioDevice@RVoIPAudioSession@@QAEHAAW4TVoIPOutputDevice@CVoIPAudioDownlinkStream@@@Z @ 15 NONAME ; int RVoIPAudioSession::GetAudioDevice(enum CVoIPAudioDownlinkStream::TVoIPOutputDevice &)
	?GetBitRate@RVoIPAudioSession@@QAEHAAI@Z @ 16 NONAME ; int RVoIPAudioSession::GetBitRate(unsigned int &)
	?GetCNG@RVoIPAudioSession@@QAEHAAH@Z @ 17 NONAME ; int RVoIPAudioSession::GetCNG(int &)
	?GetFrameMode@RVoIPAudioSession@@QAEHAAH@Z @ 18 NONAME ; int RVoIPAudioSession::GetFrameMode(int &)
	?GetGain@RVoIPAudioSession@@QAEHXZ @ 19 NONAME ; int RVoIPAudioSession::GetGain(void)
	?GetMaxGain@RVoIPAudioSession@@QAEHXZ @ 20 NONAME ; int RVoIPAudioSession::GetMaxGain(void)
	?GetMaxVolume@RVoIPAudioSession@@QAEHXZ @ 21 NONAME ; int RVoIPAudioSession::GetMaxVolume(void)
	?GetMode@RVoIPAudioSession@@QAEHAAW4TG711CodecMode@CVoIPFormatIntfc@@@Z @ 22 NONAME ; int RVoIPAudioSession::GetMode(enum CVoIPFormatIntfc::TG711CodecMode &)
	?GetMode@RVoIPAudioSession@@QAEHAAW4TILBCCodecMode@CVoIPFormatIntfc@@@Z @ 23 NONAME ; int RVoIPAudioSession::GetMode(enum CVoIPFormatIntfc::TILBCCodecMode &)
	?GetPLC@RVoIPAudioSession@@QAEHAAH@Z @ 24 NONAME ; int RVoIPAudioSession::GetPLC(int &)
	?GetSupportedBitRatesL@RVoIPAudioSession@@QAEXAAV?$RArray@I@@@Z @ 25 NONAME ; void RVoIPAudioSession::GetSupportedBitRatesL(class RArray<unsigned int> &)
	?GetSupportedDecoders@RVoIPAudioSession@@QAEHVTMMFPrioritySettings@@AAV?$RArray@K@@AAH@Z @ 26 NONAME ; int RVoIPAudioSession::GetSupportedDecoders(class TMMFPrioritySettings, class RArray<unsigned long> &, int &)
	?GetSupportedEncoders@RVoIPAudioSession@@QAEHVTMMFPrioritySettings@@AAV?$RArray@K@@AAH@Z @ 27 NONAME ; int RVoIPAudioSession::GetSupportedEncoders(class TMMFPrioritySettings, class RArray<unsigned long> &, int &)
	?GetVAD@RVoIPAudioSession@@QAEHAAH@Z @ 28 NONAME ; int RVoIPAudioSession::GetVAD(int &)
	?GetVolume@RVoIPAudioSession@@QAEHXZ @ 29 NONAME ; int RVoIPAudioSession::GetVolume(void)
	?OpenDTMFTonePlayer@RVoIPAudioSession@@QAEHXZ @ 30 NONAME ; int RVoIPAudioSession::OpenDTMFTonePlayer(void)
	?OpenDownlink@RVoIPAudioSession@@QAEHVTMMFPrioritySettings@@@Z @ 31 NONAME ; int RVoIPAudioSession::OpenDownlink(class TMMFPrioritySettings)
	?OpenRingTonePlayer@RVoIPAudioSession@@QAEHABVRFile@@@Z @ 32 NONAME ; int RVoIPAudioSession::OpenRingTonePlayer(class RFile const &)
	?OpenRingTonePlayer@RVoIPAudioSession@@QAEHABVTDesC16@@@Z @ 33 NONAME ; int RVoIPAudioSession::OpenRingTonePlayer(class TDesC16 const &)
	?OpenRingTonePlayer@RVoIPAudioSession@@QAEHABVTDesC8@@@Z @ 34 NONAME ; int RVoIPAudioSession::OpenRingTonePlayer(class TDesC8 const &)
	?OpenRingTonePlayer@RVoIPAudioSession@@QAEHXZ @ 35 NONAME ; int RVoIPAudioSession::OpenRingTonePlayer(void)
	?OpenUplink@RVoIPAudioSession@@QAEHVTMMFPrioritySettings@@@Z @ 36 NONAME ; int RVoIPAudioSession::OpenUplink(class TMMFPrioritySettings)
	?PauseRingTone@RVoIPAudioSession@@QAEHXZ @ 37 NONAME ; int RVoIPAudioSession::PauseRingTone(void)
	?PlayDTMFTone@RVoIPAudioSession@@QAEHABVTDesC16@@@Z @ 38 NONAME ; int RVoIPAudioSession::PlayDTMFTone(class TDesC16 const &)
	?PlayRingTone@RVoIPAudioSession@@QAEHXZ @ 39 NONAME ; int RVoIPAudioSession::PlayRingTone(void)
	?ResetJitterBuffer@RVoIPAudioSession@@QAEHH@Z @ 40 NONAME ; int RVoIPAudioSession::ResetJitterBuffer(int)
	?ResumeRingTone@RVoIPAudioSession@@QAEHXZ @ 41 NONAME ; int RVoIPAudioSession::ResumeRingTone(void)
	?SetAudioDevice@RVoIPAudioSession@@QAEHW4TVoIPOutputDevice@CVoIPAudioDownlinkStream@@@Z @ 42 NONAME ; int RVoIPAudioSession::SetAudioDevice(enum CVoIPAudioDownlinkStream::TVoIPOutputDevice)
	?SetBitRate@RVoIPAudioSession@@QAEHI@Z @ 43 NONAME ; int RVoIPAudioSession::SetBitRate(unsigned int)
	?SetCNG@RVoIPAudioSession@@QAEHH@Z @ 44 NONAME ; int RVoIPAudioSession::SetCNG(int)
	?SetDecoder@RVoIPAudioSession@@QAEHK@Z @ 45 NONAME ; int RVoIPAudioSession::SetDecoder(unsigned long)
	?SetEncoder@RVoIPAudioSession@@QAEHK@Z @ 46 NONAME ; int RVoIPAudioSession::SetEncoder(unsigned long)
	?SetFrameMode@RVoIPAudioSession@@QAEHH@Z @ 47 NONAME ; int RVoIPAudioSession::SetFrameMode(int)
	?SetGain@RVoIPAudioSession@@QAEHH@Z @ 48 NONAME ; int RVoIPAudioSession::SetGain(int)
	?SetMode@RVoIPAudioSession@@QAEHW4TG711CodecMode@CVoIPFormatIntfc@@@Z @ 49 NONAME ; int RVoIPAudioSession::SetMode(enum CVoIPFormatIntfc::TG711CodecMode)
	?SetMode@RVoIPAudioSession@@QAEHW4TILBCCodecMode@CVoIPFormatIntfc@@@Z @ 50 NONAME ; int RVoIPAudioSession::SetMode(enum CVoIPFormatIntfc::TILBCCodecMode)
	?SetPLC@RVoIPAudioSession@@QAEHH@Z @ 51 NONAME ; int RVoIPAudioSession::SetPLC(int)
	?SetVAD@RVoIPAudioSession@@QAEHH@Z @ 52 NONAME ; int RVoIPAudioSession::SetVAD(int)
	?SetVolume@RVoIPAudioSession@@QAEHH@Z @ 53 NONAME ; int RVoIPAudioSession::SetVolume(int)
	?StartDownlink@RVoIPAudioSession@@QAEHXZ @ 54 NONAME ; int RVoIPAudioSession::StartDownlink(void)
	?StartUplink@RVoIPAudioSession@@QAEHXZ @ 55 NONAME ; int RVoIPAudioSession::StartUplink(void)
	?StopDTMFTonePlay@RVoIPAudioSession@@QAEHXZ @ 56 NONAME ; int RVoIPAudioSession::StopDTMFTonePlay(void)
	?StopDownlink@RVoIPAudioSession@@QAEHXZ @ 57 NONAME ; int RVoIPAudioSession::StopDownlink(void)
	?StopRingTone@RVoIPAudioSession@@QAEHXZ @ 58 NONAME ; int RVoIPAudioSession::StopRingTone(void)
	?StopUplink@RVoIPAudioSession@@QAEHXZ @ 59 NONAME ; int RVoIPAudioSession::StopUplink(void)
	?Version@RVoIPAudioSession@@QBE?AVTVersion@@XZ @ 60 NONAME ; class TVersion RVoIPAudioSession::Version(void) const

