EXPORTS
	_Z7CreateLR18MNWMessageObserverR7TNWInfo @ 1 NONAME
	_ZN17CNWMessageHandler11SendMessageEN18MNWMessageObserver11TNWMessagesE @ 2 NONAME
	_ZN17CNWMessageHandlerC1ER10CNWSessionR18MNWMessageObserverR7TNWInfo @ 3 NONAME
	_ZN17CNWMessageHandlerC2ER10CNWSessionR18MNWMessageObserverR7TNWInfo @ 4 NONAME
	_ZN17CNWMessageHandlerD0Ev @ 5 NONAME
	_ZN17CNWMessageHandlerD1Ev @ 6 NONAME
	_ZN17CNWMessageHandlerD2Ev @ 7 NONAME
	_ZN21CNWNetworkModeMonitor4NewLER17CNWMessageHandlerR12RMobilePhoneR7TNWInfoR12RMmCustomAPI @ 8 NONAME
	_ZN27CNWGsmSessionImplementation4NewLER18MNWMessageObserverR7TNWInfo @ 9 NONAME
	_ZN27CNWGsmSessionImplementationD0Ev @ 10 NONAME
	_ZN27CNWGsmSessionImplementationD1Ev @ 11 NONAME
	_ZN27CNWGsmSessionImplementationD2Ev @ 12 NONAME
	_ZN35CNWNetworkRegistrationStatusMonitor4NewLER17CNWMessageHandlerR12RMobilePhoneR7TNWInfoR12RMmCustomAPI @ 13 NONAME
	_ZTI10CNWSession @ 14 NONAME ; #<TI>#
	_ZTI17CNWMessageHandler @ 15 NONAME ; #<TI>#
	_ZTI18CNWNetworkMcnTimer @ 16 NONAME ; #<TI>#
	_ZTI19CNWNetworkMcnEngine @ 17 NONAME ; #<TI>#
	_ZTI19CNWNetworkViagTimer @ 18 NONAME ; #<TI>#
	_ZTI20CNWGsmMessageHandler @ 19 NONAME ; #<TI>#
	_ZTI21CNWNetworkModeMonitor @ 20 NONAME ; #<TI>#
	_ZTI21CNWNetworkMonitorBase @ 21 NONAME ; #<TI>#
	_ZTI21CNWNetworkViagRefresh @ 22 NONAME ; #<TI>#
	_ZTI22CNWNetworkViagCbEngine @ 23 NONAME ; #<TI>#
	_ZTI22CNWNetworkViagLcEngine @ 24 NONAME ; #<TI>#
	_ZTI22CNWSubscriberIdCommand @ 25 NONAME ; #<TI>#
	_ZTI23CNWNetworkViagSimReader @ 26 NONAME ; #<TI>#
	_ZTI24CNWNetworkFailureMonitor @ 27 NONAME ; #<TI>#
	_ZTI24CNWNetworkViagBaseEngine @ 28 NONAME ; #<TI>#
	_ZTI27CNWGsmSessionImplementation @ 29 NONAME ; #<TI>#
	_ZTI28CNWNetworkSystemEventMonitor @ 30 NONAME ; #<TI>#
	_ZTI29CNWNetworkProviderNameCommand @ 31 NONAME ; #<TI>#
	_ZTI29CNWServiceProviderNameCommand @ 32 NONAME ; #<TI>#
	_ZTI31CNWNetworkCurrentNetworkMonitor @ 33 NONAME ; #<TI>#
	_ZTI32CNWNetworkCurrentNetworkReceiver @ 34 NONAME ; #<TI>#
	_ZTI33CNWNetworkSelectionSettingMonitor @ 35 NONAME ; #<TI>#
	_ZTI34CNWProgrammableOperatorNameCommand @ 36 NONAME ; #<TI>#
	_ZTI35CNWGsmNetworkCellReselectionHandler @ 37 NONAME ; #<TI>#
	_ZTI35CNWNetworkRegistrationStatusMonitor @ 38 NONAME ; #<TI>#
	_ZTI36CNWNetworkRegistrationStatusReceiver @ 39 NONAME ; #<TI>#
	_ZTV10CNWSession @ 40 NONAME ; #<VT>#
	_ZTV17CNWMessageHandler @ 41 NONAME ; #<VT>#
	_ZTV18CNWNetworkMcnTimer @ 42 NONAME ; #<VT>#
	_ZTV19CNWNetworkMcnEngine @ 43 NONAME ; #<VT>#
	_ZTV19CNWNetworkViagTimer @ 44 NONAME ; #<VT>#
	_ZTV20CNWGsmMessageHandler @ 45 NONAME ; #<VT>#
	_ZTV21CNWNetworkModeMonitor @ 46 NONAME ; #<VT>#
	_ZTV21CNWNetworkMonitorBase @ 47 NONAME ; #<VT>#
	_ZTV21CNWNetworkViagRefresh @ 48 NONAME ; #<VT>#
	_ZTV22CNWNetworkViagCbEngine @ 49 NONAME ; #<VT>#
	_ZTV22CNWNetworkViagLcEngine @ 50 NONAME ; #<VT>#
	_ZTV22CNWSubscriberIdCommand @ 51 NONAME ; #<VT>#
	_ZTV23CNWNetworkViagSimReader @ 52 NONAME ; #<VT>#
	_ZTV24CNWNetworkFailureMonitor @ 53 NONAME ; #<VT>#
	_ZTV24CNWNetworkViagBaseEngine @ 54 NONAME ; #<VT>#
	_ZTV27CNWGsmSessionImplementation @ 55 NONAME ; #<VT>#
	_ZTV28CNWNetworkSystemEventMonitor @ 56 NONAME ; #<VT>#
	_ZTV29CNWNetworkProviderNameCommand @ 57 NONAME ; #<VT>#
	_ZTV29CNWServiceProviderNameCommand @ 58 NONAME ; #<VT>#
	_ZTV31CNWNetworkCurrentNetworkMonitor @ 59 NONAME ; #<VT>#
	_ZTV32CNWNetworkCurrentNetworkReceiver @ 60 NONAME ; #<VT>#
	_ZTV33CNWNetworkSelectionSettingMonitor @ 61 NONAME ; #<VT>#
	_ZTV34CNWProgrammableOperatorNameCommand @ 62 NONAME ; #<VT>#
	_ZTV35CNWGsmNetworkCellReselectionHandler @ 63 NONAME ; #<VT>#
	_ZTV35CNWNetworkRegistrationStatusMonitor @ 64 NONAME ; #<VT>#
	_ZTV36CNWNetworkRegistrationStatusReceiver @ 65 NONAME ; #<VT>#
	_ZN10CNWSessionD0Ev @ 66 NONAME
	_ZN10CNWSessionD1Ev @ 67 NONAME
	_ZN10CNWSessionD2Ev @ 68 NONAME
	_ZN20CNWGsmMessageHandlerD0Ev @ 69 NONAME
	_ZN20CNWGsmMessageHandlerD1Ev @ 70 NONAME
	_ZN20CNWGsmMessageHandlerD2Ev @ 71 NONAME

