EXPORTS
	??0CBaseMtm@@IAE@AAVCRegisteredMtmDll@@AAVCMsvSession@@@Z @ 1 NONAME ; protected: __thiscall CBaseMtm::CBaseMtm(class CRegisteredMtmDll &,class CMsvSession &)
	??0CBaseServerMtm@@IAE@AAVCRegisteredMtmDll@@PAVCMsvServerEntry@@@Z @ 2 NONAME ; protected: __thiscall CBaseServerMtm::CBaseServerMtm(class CRegisteredMtmDll &,class CMsvServerEntry *)
	??0CMsgActive@@IAE@H@Z @ 3 NONAME ; protected: __thiscall CMsgActive::CMsgActive(int)
	??0CMsvDefaultServices@@QAE@XZ @ 4 NONAME ; public: __thiscall CMsvDefaultServices::CMsvDefaultServices(void)
	??0CMsvEntrySelection@@QAE@XZ @ 5 NONAME ; public: __thiscall CMsvEntrySelection::CMsvEntrySelection(void)
	??0CMsvOperation@@QAE@AAVCMsvSession@@HAAVTRequestStatus@@@Z @ 6 NONAME ; public: __thiscall CMsvOperation::CMsvOperation(class CMsvSession &,int,class TRequestStatus &)
	??0CMsvRecipient@@IAE@XZ @ 7 NONAME ; protected: __thiscall CMsvRecipient::CMsvRecipient(void)
	??0CMsvStore@@IAE@AAVMMsvStoreObserver@@AAVRFs@@J@Z @ 8 NONAME ; protected: __thiscall CMsvStore::CMsvStore(class MMsvStoreObserver &,class RFs &,long)
	??0CMtmDllInfoArray@@QAE@XZ @ 9 NONAME ; public: __thiscall CMtmDllInfoArray::CMtmDllInfoArray(void)
	??0CMtmDllRegistry@@IAE@AAVRFs@@VTUid@@VTTimeIntervalMicroSeconds32@@@Z @ 10 NONAME ; protected: __thiscall CMtmDllRegistry::CMtmDllRegistry(class RFs &,class TUid,class TTimeIntervalMicroSeconds32)
	??0CObserverRegistry@@IAE@AAVCMsvSession@@VTUid@@VTTimeIntervalMicroSeconds32@@@Z @ 11 NONAME ; protected: __thiscall CObserverRegistry::CObserverRegistry(class CMsvSession &,class TUid,class TTimeIntervalMicroSeconds32)
	??0CRegisteredMtmDllArray@@QAE@XZ @ 12 NONAME ; public: __thiscall CRegisteredMtmDllArray::CRegisteredMtmDllArray(void)
	??0RMsvServerSession@@QAE@XZ @ 13 NONAME ; public: __thiscall RMsvServerSession::RMsvServerSession(void)
	??0TMsvChildrenDetails@@QAE@XZ @ 14 NONAME ; public: __thiscall TMsvChildrenDetails::TMsvChildrenDetails(void)
	??0TMsvEntry@@QAE@ABV0@@Z @ 15 NONAME ; public: __thiscall TMsvEntry::TMsvEntry(class TMsvEntry const &)
	??0TMsvEntry@@QAE@XZ @ 16 NONAME ; public: __thiscall TMsvEntry::TMsvEntry(void)
	??0TMsvLocalOperationProgress@@QAE@XZ @ 17 NONAME ; public: __thiscall TMsvLocalOperationProgress::TMsvLocalOperationProgress(void)
	??0TMsvPackedChangeNotification@@QAE@AAV?$TBuf8@$0IA@@@@Z @ 18 NONAME ; public: __thiscall TMsvPackedChangeNotification::TMsvPackedChangeNotification(class TBuf8<128> &)
	??0TMsvPackedEntry@@QAE@AAPAVHBufC8@@@Z @ 19 NONAME ; public: __thiscall TMsvPackedEntry::TMsvPackedEntry(class HBufC8 * &)
	??0TMsvPackedEntryArray@@QAE@AAPAVHBufC8@@H@Z @ 20 NONAME ; public: __thiscall TMsvPackedEntryArray::TMsvPackedEntryArray(class HBufC8 * &,int)
	??0TMsvPackedMtmGroupData@@QAE@AAPAVHBufC8@@@Z @ 21 NONAME ; public: __thiscall TMsvPackedMtmGroupData::TMsvPackedMtmGroupData(class HBufC8 * &)
	??0TMsvPackedOperation@@QAE@AAPAVHBufC8@@@Z @ 22 NONAME ; public: __thiscall TMsvPackedOperation::TMsvPackedOperation(class HBufC8 * &)
	??0TMsvPackedRegisteredMtmDllArray@@QAE@AAPAVHBufC8@@@Z @ 23 NONAME ; public: __thiscall TMsvPackedRegisteredMtmDllArray::TMsvPackedRegisteredMtmDllArray(class HBufC8 * &)
	??0TMsvSelectionOrdering@@QAE@HW4TMsvSorting@@H@Z @ 24 NONAME ; public: __thiscall TMsvSelectionOrdering::TMsvSelectionOrdering(int,enum TMsvSorting,int)
	??0TMsvSelectionOrdering@@QAE@XZ @ 25 NONAME ; public: __thiscall TMsvSelectionOrdering::TMsvSelectionOrdering(void)
	?NullFunction1@@YAXXZ @ 26 NONAME ; void __cdecl NullFunction1(void)
	??1CBaseMtm@@UAE@XZ @ 27 NONAME ; public: virtual __thiscall CBaseMtm::~CBaseMtm(void)
	??1CBaseServerMtm@@UAE@XZ @ 28 NONAME ; public: virtual __thiscall CBaseServerMtm::~CBaseServerMtm(void)
	??1CClientMtmRegistry@@UAE@XZ @ 29 NONAME ; public: virtual __thiscall CClientMtmRegistry::~CClientMtmRegistry(void)
	??1CMsgActive@@UAE@XZ @ 30 NONAME ; public: virtual __thiscall CMsgActive::~CMsgActive(void)
	??1CMsvCompletedOperation@@UAE@XZ @ 31 NONAME ; public: virtual __thiscall CMsvCompletedOperation::~CMsvCompletedOperation(void)
	??1CMsvDefaultServices@@UAE@XZ @ 32 NONAME ; public: virtual __thiscall CMsvDefaultServices::~CMsvDefaultServices(void)
	??1CMsvEntry@@UAE@XZ @ 33 NONAME ; public: virtual __thiscall CMsvEntry::~CMsvEntry(void)
	??1CMsvEntryArray@@UAE@XZ @ 34 NONAME ; public: virtual __thiscall CMsvEntryArray::~CMsvEntryArray(void)
	??1CMsvOperation@@UAE@XZ @ 35 NONAME ; public: virtual __thiscall CMsvOperation::~CMsvOperation(void)
	??1CMsvOperationWait@@UAE@XZ @ 36 NONAME ; public: virtual __thiscall CMsvOperationWait::~CMsvOperationWait(void)
	??1CMsvStore@@UAE@XZ @ 37 NONAME ; public: virtual __thiscall CMsvStore::~CMsvStore(void)
	??1CMtmDllInfo@@UAE@XZ @ 38 NONAME ; public: virtual __thiscall CMtmDllInfo::~CMtmDllInfo(void)
	??1CMtmDllInfoArray@@UAE@XZ @ 39 NONAME ; public: virtual __thiscall CMtmDllInfoArray::~CMtmDllInfoArray(void)
	??1CMtmDllRegistry@@UAE@XZ @ 40 NONAME ; public: virtual __thiscall CMtmDllRegistry::~CMtmDllRegistry(void)
	??1CMtmGroupData@@UAE@XZ @ 41 NONAME ; public: virtual __thiscall CMtmGroupData::~CMtmGroupData(void)
	??1CMtmRegistryControl@@UAE@XZ @ 42 NONAME ; public: virtual __thiscall CMtmRegistryControl::~CMtmRegistryControl(void)
	??1CObserverRegistry@@UAE@XZ @ 43 NONAME ; public: virtual __thiscall CObserverRegistry::~CObserverRegistry(void)
	??1CRegisteredMtmDll@@UAE@XZ @ 44 NONAME ; public: virtual __thiscall CRegisteredMtmDll::~CRegisteredMtmDll(void)
	??1CRegisteredMtmDllArray@@UAE@XZ @ 45 NONAME ; public: virtual __thiscall CRegisteredMtmDllArray::~CRegisteredMtmDllArray(void)
	??1CServerMtmDllRegistry@@UAE@XZ @ 46 NONAME ; public: virtual __thiscall CServerMtmDllRegistry::~CServerMtmDllRegistry(void)
	??1RMsvServerSession@@UAE@XZ @ 47 NONAME ; public: virtual __thiscall RMsvServerSession::~RMsvServerSession(void)
	??4TMsvEntry@@QAEAAV0@ABV0@@Z @ 48 NONAME ; public: class TMsvEntry & __thiscall TMsvEntry::operator=(class TMsvEntry const &)
	??8CMtmDllInfo@@QBEHABV0@@Z @ 49 NONAME ; public: int __thiscall CMtmDllInfo::operator==(class CMtmDllInfo const &)const 
	??8CMtmGroupData@@QBEHABV0@@Z @ 50 NONAME ; public: int __thiscall CMtmGroupData::operator==(class CMtmGroupData const &)const 
	??8TMsvEntry@@QBEHABV0@@Z @ 51 NONAME ; public: int __thiscall TMsvEntry::operator==(class TMsvEntry const &)const 
	??8TMsvSelectionOrdering@@QBEHABV0@@Z @ 52 NONAME ; public: int __thiscall TMsvSelectionOrdering::operator==(class TMsvSelectionOrdering const &)const 
	??ACMsvEntry@@QBEABVTMsvEntry@@H@Z @ 53 NONAME ; public: class TMsvEntry const & __thiscall CMsvEntry::operator[](int)const 
	?AddEntry@CMsvServerIndex@@QAEHAAVTMsvEntry@@H@Z @ 54 NONAME ; public: int __thiscall CMsvServerIndex::AddEntry(class TMsvEntry &,int)
	?AddMtmDllInfoL@CMtmDllInfoArray@@QAEXPAVCMtmDllInfo@@@Z @ 55 NONAME ; public: void __thiscall CMtmDllInfoArray::AddMtmDllInfoL(class CMtmDllInfo *)
	?AddObserverL@CMsvEntry@@QAEXAAVMMsvEntryObserver@@@Z @ 56 NONAME ; public: void __thiscall CMsvEntry::AddObserverL(class MMsvEntryObserver &)
	?AddObserverL@CMsvSession@@QAEXAAVMMsvSessionObserver@@@Z @ 57 NONAME ; public: void __thiscall CMsvSession::AddObserverL(class MMsvSessionObserver &)
	?AddRegisteredMtmDll@CMtmDllRegistry@@IAEHVTUid@@0ABVCMtmDllInfo@@AAVMRegisteredMtmDllObserver@@@Z @ 58 NONAME ; protected: int __thiscall CMtmDllRegistry::AddRegisteredMtmDll(class TUid,class TUid,class CMtmDllInfo const &,class MRegisteredMtmDllObserver &)
	?AddRegisteredMtmDllL@CRegisteredMtmDllArray@@QAEXPAVCRegisteredMtmDll@@@Z @ 59 NONAME ; public: void __thiscall CRegisteredMtmDllArray::AddRegisteredMtmDllL(class CRegisteredMtmDll *)
	?AssignL@RMsvWriteStream@@QAEXAAVCMsvStore@@VTUid@@@Z @ 60 NONAME ; public: void __thiscall RMsvWriteStream::AssignL(class CMsvStore &,class TUid)
	?AssignLC@RMsvWriteStream@@QAEXAAVCMsvStore@@VTUid@@@Z @ 61 NONAME ; public: void __thiscall RMsvWriteStream::AssignLC(class CMsvStore &,class TUid)
	?At@TKeyArrayFixPtr@@UBEPAXH@Z @ 62 NONAME ; public: virtual void * __thiscall TKeyArrayFixPtr::At(int)const 
	?CancelOperation@RMsvServerSession@@QAEHJAAVTDes8@@@Z @ 63 NONAME ; public: int __thiscall RMsvServerSession::CancelOperation(long,class TDes8 &)
	?CancelSessionEventRequest@RMsvServerSession@@QAEHXZ @ 64 NONAME ; public: int __thiscall RMsvServerSession::CancelSessionEventRequest(void)
	?ChangeAttributes@CMsvServerEntry@@QAEHABVCMsvEntrySelection@@II@Z @ 65 NONAME ; public: int __thiscall CMsvServerEntry::ChangeAttributes(class CMsvEntrySelection const &,unsigned int,unsigned int)
	?ChangeAttributes@CMsvServerIndex@@QAEHAAVCMsvEntrySelection@@II@Z @ 66 NONAME ; public: int __thiscall CMsvServerIndex::ChangeAttributes(class CMsvEntrySelection &,unsigned int,unsigned int)
	?ChangeDefaultServiceL@CMsvDefaultServices@@QAEXABVTMsvDefaultService@@@Z @ 67 NONAME ; public: void __thiscall CMsvDefaultServices::ChangeDefaultServiceL(class TMsvDefaultService const &)
	?ChangeEntry@CMsvServerEntry@@QAEHABVTMsvEntry@@@Z @ 68 NONAME ; public: int __thiscall CMsvServerEntry::ChangeEntry(class TMsvEntry const &)
	?ChangeEntry@CMsvServerIndex@@QAEHABVTMsvEntry@@@Z @ 69 NONAME ; public: int __thiscall CMsvServerIndex::ChangeEntry(class TMsvEntry const &)
	?ChangeEntryL@RMsvServerSession@@QAEXABVTMsvEntry@@JAAVTRequestStatus@@@Z @ 70 NONAME ; public: void __thiscall RMsvServerSession::ChangeEntryL(class TMsvEntry const &,long,class TRequestStatus &)
	?ChangeL@CMsvEntry@@QAEPAVCMsvOperation@@ABVTMsvEntry@@AAVTRequestStatus@@@Z @ 71 NONAME ; public: class CMsvOperation * __thiscall CMsvEntry::ChangeL(class TMsvEntry const &,class TRequestStatus &)
	?ChangeTemporaryData@CMsvServerIndex@@QAEHABVTMsvEntry@@@Z @ 72 NONAME ; public: int __thiscall CMsvServerIndex::ChangeTemporaryData(class TMsvEntry const &)
	?ChildDataL@CMsvEntry@@QBEABVTMsvEntry@@J@Z @ 73 NONAME ; public: class TMsvEntry const & __thiscall CMsvEntry::ChildDataL(long)const 
	?ChildEntryL@CMsvEntry@@QBEPAV1@J@Z @ 74 NONAME ; public: class CMsvEntry * __thiscall CMsvEntry::ChildEntryL(long)const 
	?ChildrenL@CMsvEntry@@QBEPAVCMsvEntrySelection@@XZ @ 75 NONAME ; public: class CMsvEntrySelection * __thiscall CMsvEntry::ChildrenL(void)const 
	?ChildrenWithMtmL@CMsvEntry@@QBEPAVCMsvEntrySelection@@VTUid@@@Z @ 76 NONAME ; public: class CMsvEntrySelection * __thiscall CMsvEntry::ChildrenWithMtmL(class TUid)const 
	?ChildrenWithServiceL@CMsvEntry@@QBEPAVCMsvEntrySelection@@J@Z @ 77 NONAME ; public: class CMsvEntrySelection * __thiscall CMsvEntry::ChildrenWithServiceL(long)const 
	?ChildrenWithTypeL@CMsvEntry@@QBEPAVCMsvEntrySelection@@VTUid@@@Z @ 78 NONAME ; public: class CMsvEntrySelection * __thiscall CMsvEntry::ChildrenWithTypeL(class TUid)const 
	?CleanupEntry@CMsvSession@@SAXPAX@Z @ 79 NONAME ; public: static void __cdecl CMsvSession::CleanupEntry(void *)
	?CleanupEntryPop@CMsvSession@@QAEXH@Z @ 80 NONAME ; public: void __thiscall CMsvSession::CleanupEntryPop(int)
	?CleanupEntryPushL@CMsvSession@@QAEXJ@Z @ 81 NONAME ; public: void __thiscall CMsvSession::CleanupEntryPushL(long)
	?CloseMessageServer@RMsvServerSession@@QAEXXZ @ 82 NONAME ; public: void __thiscall RMsvServerSession::CloseMessageServer(void)
	?Commit@CMsvStore@@QAEHXZ @ 83 NONAME ; public: int __thiscall CMsvStore::Commit(void)
	?CommitL@CMsvStore@@QAEXXZ @ 84 NONAME ; public: void __thiscall CMsvStore::CommitL(void)
	?Complete@CMsgActive@@IAEXH@Z @ 85 NONAME ; protected: void __thiscall CMsgActive::Complete(int)
	?Connect@RMsvServerSession@@QAEHAAVRFs@@@Z @ 86 NONAME ; public: int __thiscall RMsvServerSession::Connect(class RFs &)
	?ConstructEntryName@MsvUtils@@SAXJJAAVTDes16@@W4TNameMode@1@@Z @ 87 NONAME ; public: static void __cdecl MsvUtils::ConstructEntryName(long,long,class TDes16 &,enum MsvUtils::TNameMode)
	?ConstructL@CObserverRegistry@@IAEXXZ @ 88 NONAME ; protected: void __thiscall CObserverRegistry::ConstructL(void)
	?CopyEntriesL@RMsvServerSession@@QAEXABVCMsvEntrySelection@@JJAAVTRequestStatus@@@Z @ 89 NONAME ; public: void __thiscall RMsvServerSession::CopyEntriesL(class CMsvEntrySelection const &,long,long,class TRequestStatus &)
	?CopyL@CMsvEntry@@QAEPAVCMsvOperation@@ABVCMsvEntrySelection@@JAAVTRequestStatus@@@Z @ 90 NONAME ; public: class CMsvOperation * __thiscall CMsvEntry::CopyL(class CMsvEntrySelection const &,long,class TRequestStatus &)
	?CopyL@CMsvEntry@@QAEPAVCMsvOperation@@JJAAVTRequestStatus@@@Z @ 91 NONAME ; public: class CMsvOperation * __thiscall CMsvEntry::CopyL(long,long,class TRequestStatus &)
	?CopyL@CMsvEntrySelection@@QBEPAV1@XZ @ 92 NONAME ; public: class CMsvEntrySelection * __thiscall CMsvEntrySelection::CopyL(void)const 
	?CopyLC@CMsvEntrySelection@@QBEPAV1@XZ @ 93 NONAME ; public: class CMsvEntrySelection * __thiscall CMsvEntrySelection::CopyLC(void)const 
	?CreateEntry@CMsvServerEntry@@QAEHAAVTMsvEntry@@@Z @ 94 NONAME ; public: int __thiscall CMsvServerEntry::CreateEntry(class TMsvEntry &)
	?CreateEntryL@RMsvServerSession@@QAEXABVTMsvEntry@@JAAVTRequestStatus@@@Z @ 95 NONAME ; public: void __thiscall RMsvServerSession::CreateEntryL(class TMsvEntry const &,long,class TRequestStatus &)
	?CreateIndexL@CMsvServer@@QAEXH@Z @ 96 NONAME ; public: void __thiscall CMsvServer::CreateIndexL(int)
	?CreateL@CMsvEntry@@QAEPAVCMsvOperation@@ABVTMsvEntry@@AAVTRequestStatus@@@Z @ 97 NONAME ; public: class CMsvOperation * __thiscall CMsvEntry::CreateL(class TMsvEntry const &,class TRequestStatus &)
	?DeInstallMtmGroup@CMtmRegistryControl@@QAEHVTUid@@@Z @ 98 NONAME ; public: int __thiscall CMtmRegistryControl::DeInstallMtmGroup(class TUid)
	?DeInstallMtmGroup@RMsvServerSession@@QAEHABVTDesC16@@@Z @ 99 NONAME ; public: int __thiscall RMsvServerSession::DeInstallMtmGroup(class TDesC16 const &)
	?DefaultService@CMsvDefaultServices@@QBEHVTUid@@AAJ@Z @ 100 NONAME ; public: int __thiscall CMsvDefaultServices::DefaultService(class TUid,long &)const 
	?DeleteBodyTextL@CMsvStore@@QAEXXZ @ 101 NONAME ; public: void __thiscall CMsvStore::DeleteBodyTextL(void)
	?DeleteEntriesL@RMsvServerSession@@QAEXABVCMsvEntrySelection@@JAAVTRequestStatus@@@Z @ 102 NONAME ; public: void __thiscall RMsvServerSession::DeleteEntriesL(class CMsvEntrySelection const &,long,class TRequestStatus &)
	?DeleteEntry@CMsvServerEntry@@QAEHJ@Z @ 103 NONAME ; public: int __thiscall CMsvServerEntry::DeleteEntry(long)
	?DeleteEntry@CMsvServerIndex@@QAEHJ@Z @ 104 NONAME ; public: int __thiscall CMsvServerIndex::DeleteEntry(long)
	?DeleteL@CMsvEntry@@QAEPAVCMsvOperation@@ABVCMsvEntrySelection@@AAVTRequestStatus@@@Z @ 105 NONAME ; public: class CMsvOperation * __thiscall CMsvEntry::DeleteL(class CMsvEntrySelection const &,class TRequestStatus &)
	?DeleteL@CMsvEntry@@QAEPAVCMsvOperation@@JAAVTRequestStatus@@@Z @ 106 NONAME ; public: class CMsvOperation * __thiscall CMsvEntry::DeleteL(long,class TRequestStatus &)
	?DeleteL@CMsvStore@@QAEXXZ @ 107 NONAME ; public: void __thiscall CMsvStore::DeleteL(void)
	?DeleteSelection@CMsvServerIndex@@QAEHABVCMsvEntrySelection@@@Z @ 108 NONAME ; public: int __thiscall CMsvServerIndex::DeleteSelection(class CMsvEntrySelection const &)
	?DoCancel@CMsgActive@@MAEXXZ @ 109 NONAME ; protected: virtual void __thiscall CMsgActive::DoCancel(void)
	?DoComplete@CMsgActive@@EAEXAAH@Z @ 110 NONAME ; private: virtual void __thiscall CMsgActive::DoComplete(int &)
	?EditStoreL@CMsvEntry@@QAEPAVCMsvStore@@XZ @ 111 NONAME ; public: class CMsvStore * __thiscall CMsvEntry::EditStoreL(void)
	?EditStoreL@CMsvServerEntry@@QAEPAVCMsvStore@@XZ @ 112 NONAME ; public: class CMsvStore * __thiscall CMsvServerEntry::EditStoreL(void)
	?EntryExists@CMsvServerIndex@@QBEHJ@Z @ 113 NONAME ; public: int __thiscall CMsvServerIndex::EntryExists(long)const 
	?ExpandSelectionRecursively@CMsvServerIndex@@QAEHAAVCMsvEntrySelection@@@Z @ 114 NONAME ; public: int __thiscall CMsvServerIndex::ExpandSelectionRecursively(class CMsvEntrySelection &)
	?ExternalizeL@CMsvRecipient@@UBEXAAVRWriteStream@@@Z @ 115 NONAME ; public: virtual void __thiscall CMsvRecipient::ExternalizeL(class RWriteStream &)const 
	?ExternalizeL@CMtmDllInfo@@QBEXAAVRWriteStream@@@Z @ 116 NONAME ; public: void __thiscall CMtmDllInfo::ExternalizeL(class RWriteStream &)const 
	?ExternalizeL@CMtmGroupData@@QBEXAAVRWriteStream@@@Z @ 117 NONAME ; public: void __thiscall CMtmGroupData::ExternalizeL(class RWriteStream &)const 
	?ExternalizeL@CMtmRegistryControl@@QBEXAAVRWriteStream@@@Z @ 118 NONAME ; public: void __thiscall CMtmRegistryControl::ExternalizeL(class RWriteStream &)const 
	?ExternalizeL@TMsvEntry@@QBEXAAVRWriteStream@@@Z @ 119 NONAME ; public: void __thiscall TMsvEntry::ExternalizeL(class RWriteStream &)const 
	?ExternalizeL@TMsvSelectionOrdering@@QBEXAAVRWriteStream@@@Z @ 120 NONAME ; public: void __thiscall TMsvSelectionOrdering::ExternalizeL(class RWriteStream &)const 
	?ExternalizeL@CMsvIndexEntry@@QBEXAAVRWriteStream@@@Z @ 121 NONAME ; public: void __thiscall CMsvIndexEntry::ExternalizeL(class RWriteStream &)const 
	?FillRegisteredMtmDllArray@CMtmRegistryControl@@QAEHVTUid@@AAVCRegisteredMtmDllArray@@VTTimeIntervalMicroSeconds32@@@Z @ 122 NONAME ; public: int __thiscall CMtmRegistryControl::FillRegisteredMtmDllArray(class TUid,class CRegisteredMtmDllArray &,class TTimeIntervalMicroSeconds32)
	?FillRegisteredMtmDllArray@RMsvServerSession@@QAEHVTUid@@AAVCRegisteredMtmDllArray@@VTTimeIntervalMicroSeconds32@@@Z @ 123 NONAME ; public: int __thiscall RMsvServerSession::FillRegisteredMtmDllArray(class TUid,class CRegisteredMtmDllArray &,class TTimeIntervalMicroSeconds32)
	?Find@CMsvEntrySelection@@QBEHJ@Z @ 124 NONAME ; public: int __thiscall CMsvEntrySelection::Find(long)const 
	?FullNameToMtmTypeUid@CMtmRegistryControl@@QBEHABVTDesC16@@AAVTUid@@@Z @ 125 NONAME ; public: int __thiscall CMtmRegistryControl::FullNameToMtmTypeUid(class TDesC16 const &,class TUid &)const 
	?GetChildren@CMsvServerEntry@@QAEHAAVCMsvEntrySelection@@@Z @ 126 NONAME ; public: int __thiscall CMsvServerEntry::GetChildren(class CMsvEntrySelection &)
	?GetChildrenL@CMsvServerIndex@@QBEXJAAV?$CArrayPtr@$$CBVTMsvEntry@@@@ABVTMsvSelectionOrdering@@VTUid@@@Z @ 127 NONAME ; public: void __thiscall CMsvServerIndex::GetChildrenL(long,class CArrayPtr<class TMsvEntry const > &,class TMsvSelectionOrdering const &,class TUid)const 
	?GetChildren@RMsvServerSession@@QAEHJAAV?$CArrayPtrFlat@VCMsvClientEntry@@@@ABVTMsvSelectionOrdering@@@Z @ 128 NONAME ; public: int __thiscall RMsvServerSession::GetChildren(long,class CArrayPtrFlat<class CMsvClientEntry> &,class TMsvSelectionOrdering const &)
	?GetChildrenId@CMsvServerIndex@@QBEHJABVCMsvEntryFilter@@AAVCMsvEntrySelection@@@Z @ 129 NONAME ; public: int __thiscall CMsvServerIndex::GetChildrenId(long,class CMsvEntryFilter const &,class CMsvEntrySelection &)const 
	?GetEntry@CMsvServerIndex@@QBEHJAAPAVTMsvEntry@@@Z @ 130 NONAME ; public: int __thiscall CMsvServerIndex::GetEntry(long,class TMsvEntry * &)const 
	?GetEntry@RMsvServerSession@@QAEHJAAJAAVTMsvEntry@@@Z @ 131 NONAME ; public: int __thiscall RMsvServerSession::GetEntry(long,long &,class TMsvEntry &)
	?GetFilePath@CMsvEntry@@QBEHAAV?$TBuf@$0BAA@@@@Z @ 132 NONAME ; public: int __thiscall CMsvEntry::GetFilePath(class TBuf<256> &)const 
	?GetFilePath@CMsvServerEntry@@QAEHAAV?$TBuf@$0BAA@@@@Z @ 133 NONAME ; public: int __thiscall CMsvServerEntry::GetFilePath(class TBuf<256> &)
	?NullFunction2@@YAXXZ @ 134 NONAME ; void __cdecl NullFunction2(void)
	?GetLibrary@CRegisteredMtmDll@@QAEHAAVRFs@@AAVRLibrary@@@Z @ 135 NONAME ; public: int __thiscall CRegisteredMtmDll::GetLibrary(class RFs &,class RLibrary &)
	?GetLocalProgressL@McliUtils@@SA?AVTMsvLocalOperationProgress@@AAVCMsvOperation@@@Z @ 136 NONAME ; public: static class TMsvLocalOperationProgress  __cdecl McliUtils::GetLocalProgressL(class CMsvOperation &)
	?GetMessageDirectory@RMsvServerSession@@QAEHAAVTDes16@@@Z @ 137 NONAME ; int RMsvServerSession::GetMessageDirectory(class TDes16 &)	
	?GetMtmGroupDataL@CMtmRegistryControl@@QBEPAVCMtmGroupData@@VTUid@@@Z @ 138 NONAME ; public: class CMtmGroupData * __thiscall CMtmRegistryControl::GetMtmGroupDataL(class TUid)const 
	?GetMtmGroupDataL@RMsvServerSession@@QAEPAVCMtmGroupData@@VTUid@@@Z @ 139 NONAME ; public: class CMtmGroupData * __thiscall RMsvServerSession::GetMtmGroupDataL(class TUid)
	?HandleEntryEventL@CBaseMtm@@MAEXW4TMsvEntryEvent@MMsvEntryObserver@@PAX11@Z @ 140 NONAME ; protected: virtual void __thiscall CBaseMtm::HandleEntryEventL(enum MMsvEntryObserver::TMsvEntryEvent,void *,void *,void *)
	?HandleSessionEventL@CObserverRegistry@@UAEXW4TMsvSessionEvent@MMsvSessionObserver@@PAX11@Z @ 141 NONAME ; public: virtual void __thiscall CObserverRegistry::HandleSessionEventL(enum MMsvSessionObserver::TMsvSessionEvent,void *,void *,void *)
	?HasDirectoryL@CMsvEntry@@QBEHXZ @ 142 NONAME ; public: int __thiscall CMsvEntry::HasDirectoryL(void)const 
	?HasDirectoryL@CMsvServerEntry@@QBEHXZ @ 143 NONAME ; public: int __thiscall CMsvServerEntry::HasDirectoryL(void)const 
	?HasDirectory@MsvUtils@@SAHABVRFs@@ABVTDesC16@@JJ@Z @ 144 NONAME ; public: static int __cdecl MsvUtils::HasDirectory(class RFs const &,class TDesC16 const &,long,long)
	?HasStoreL@CMsvEntry@@QBEHXZ @ 145 NONAME ; public: int __thiscall CMsvEntry::HasStoreL(void)const 
	?HasStoreL@CMsvServerEntry@@QBEHXZ @ 146 NONAME ; public: int __thiscall CMsvServerEntry::HasStoreL(void)const 
	?HasStore@MsvUtils@@SAHABVRFs@@ABVTDesC16@@JJ@Z @ 147 NONAME ; public: static int __cdecl MsvUtils::HasStore(class RFs const &,class TDesC16 const &,long,long)
	?InstallMtmGroup@CMtmRegistryControl@@QAEHABVTDesC16@@AAVTUid@@@Z @ 148 NONAME ; public: int __thiscall CMtmRegistryControl::InstallMtmGroup(class TDesC16 const &,class TUid &)
	?InstallMtmGroup@RMsvServerSession@@QAEHABVTDesC16@@@Z @ 149 NONAME ; public: int __thiscall RMsvServerSession::InstallMtmGroup(class TDesC16 const &)
	?InternalizeL@CMsvRecipient@@UAEXAAVRReadStream@@@Z @ 150 NONAME ; public: virtual void __thiscall CMsvRecipient::InternalizeL(class RReadStream &)
	?InternalizeL@CMtmDllInfo@@QAEXAAVRReadStream@@@Z @ 151 NONAME ; public: void __thiscall CMtmDllInfo::InternalizeL(class RReadStream &)
	?InternalizeL@CMtmGroupData@@QAEXAAVRReadStream@@@Z @ 152 NONAME ; public: void __thiscall CMtmGroupData::InternalizeL(class RReadStream &)
	?InternalizeL@CMtmRegistryControl@@QAEXAAVRReadStream@@@Z @ 153 NONAME ; public: void __thiscall CMtmRegistryControl::InternalizeL(class RReadStream &)
	?InternalizeL@TMsvEntry@@QAEXAAVRReadStream@@@Z @ 154 NONAME ; public: void __thiscall TMsvEntry::InternalizeL(class RReadStream &)
	?InternalizeL@TMsvSelectionOrdering@@QAEXAAVRReadStream@@@Z @ 155 NONAME ; public: void __thiscall TMsvSelectionOrdering::InternalizeL(class RReadStream &)
	?InternalizeL@CMsvIndexEntry@@QAEXAAVRReadStream@@@Z @ 156 NONAME ; public: void __thiscall CMsvIndexEntry::InternalizeL(class RReadStream &)
	?IsADescendent@CMsvServerIndex@@QBEHJJAAH@Z @ 157 NONAME ; public: int __thiscall CMsvServerIndex::IsADescendent(long,long,int &)const 
	?IsEntryLocked@CMsvServerIndex@@QBEHJAAH@Z @ 158 NONAME ; public: int __thiscall CMsvServerIndex::IsEntryLocked(long,int &)const 
	?IsEntryOrStoreLocked@CMsvServerIndex@@QBEHJAAH@Z @ 159 NONAME ; public: int __thiscall CMsvServerIndex::IsEntryOrStoreLocked(long,int &)const 
	?IsInUse@CMtmDllRegistry@@QBEHVTUid@@@Z @ 160 NONAME ; public: int __thiscall CMtmDllRegistry::IsInUse(class TUid)const 
	?IsInUse@CMtmDllRegistry@@QBEHXZ @ 161 NONAME ; public: int __thiscall CMtmDllRegistry::IsInUse(void)const 
	?IsInUse@CMtmRegistryControl@@QBEHVTUid@@@Z @ 162 NONAME ; public: int __thiscall CMtmRegistryControl::IsInUse(class TUid)const 
	?IsLocal@CMsvServerIndex@@QBEHJAAH@Z @ 163 NONAME ; public: int __thiscall CMsvServerIndex::IsLocal(long,int &)const 
	?IsStoreLocked@CMsvServerIndex@@QBEHJAAH@Z @ 164 NONAME ; public: int __thiscall CMsvServerIndex::IsStoreLocked(long,int &)const 
	?LocalStoreDeleted@RMsvServerSession@@QAEHJ@Z @ 165 NONAME ; public: int __thiscall RMsvServerSession::LocalStoreDeleted(long)
	?LockEntry@CMsvServerIndex@@QAEHJ@Z @ 166 NONAME ; public: int __thiscall CMsvServerIndex::LockEntry(long)
	?LockEntry@RMsvServerSession@@QAEHJ@Z @ 167 NONAME ; public: int __thiscall RMsvServerSession::LockEntry(long)
	?LockEntryAndStore@CMsvServerIndex@@QAEHJ@Z @ 168 NONAME ; public: int __thiscall CMsvServerIndex::LockEntryAndStore(long)
	?LockStore@CMsvServerIndex@@QAEHJ@Z @ 169 NONAME ; public: int __thiscall CMsvServerIndex::LockStore(long)
	?LockStore@RMsvServerSession@@QAEHJ@Z @ 170 NONAME ; public: int __thiscall RMsvServerSession::LockStore(long)
	?MoveEntriesL@RMsvServerSession@@QAEXABVCMsvEntrySelection@@JJAAVTRequestStatus@@@Z @ 171 NONAME ; public: void __thiscall RMsvServerSession::MoveEntriesL(class CMsvEntrySelection const &,long,long,class TRequestStatus &)
	?MoveEntry@CMsvServerIndex@@QAEHJJ@Z @ 172 NONAME ; public: int __thiscall CMsvServerIndex::MoveEntry(long,long)
	?MoveEntryL@CMsvServerEntry@@QAEXJJAAVTRequestStatus@@@Z @ 173 NONAME ; public: void __thiscall CMsvServerEntry::MoveEntryL(long,long,class TRequestStatus &)
	?MoveEntryWithinService@CMsvServerEntry@@QAEHJJ@Z @ 174 NONAME ; public: int __thiscall CMsvServerEntry::MoveEntryWithinService(long,long)
	?MoveL@CMsvEntry@@QAEPAVCMsvOperation@@ABVCMsvEntrySelection@@JAAVTRequestStatus@@@Z @ 175 NONAME ; public: class CMsvOperation * __thiscall CMsvEntry::MoveL(class CMsvEntrySelection const &,long,class TRequestStatus &)
	?MoveL@CMsvEntry@@QAEPAVCMsvOperation@@JJAAVTRequestStatus@@@Z @ 176 NONAME ; public: class CMsvOperation * __thiscall CMsvEntry::MoveL(long,long,class TRequestStatus &)
	?MtmTypeUid@CMtmDllRegistry@@QBE?AVTUid@@H@Z @ 177 NONAME ; public: class TUid  __thiscall CMtmDllRegistry::MtmTypeUid(int)const 
	?MtmTypeUidToIndex@CMtmDllRegistry@@IBEHVTUid@@@Z @ 178 NONAME ; protected: int __thiscall CMtmDllRegistry::MtmTypeUidToIndex(class TUid)const 
	?NewEntryL@CMsvServerEntry@@QAEPAV1@J@Z @ 179 NONAME ; public: class CMsvServerEntry * __thiscall CMsvServerEntry::NewEntryL(long)
	?NewL@CClientMtmRegistry@@SAPAV1@AAVCMsvSession@@VTTimeIntervalMicroSeconds32@@@Z @ 180 NONAME ; public: static class CClientMtmRegistry * __cdecl CClientMtmRegistry::NewL(class CMsvSession &,class TTimeIntervalMicroSeconds32)
	?NewL@CMsvCompletedOperation@@SAPAV1@AAVCMsvSession@@VTUid@@ABVTDesC8@@JAAVTRequestStatus@@H@Z @ 181 NONAME ; public: static class CMsvCompletedOperation * __cdecl CMsvCompletedOperation::NewL(class CMsvSession &,class TUid,class TDesC8 const &,long,class TRequestStatus &,int)
	?NewL@CMsvEntry@@SAPAV1@AAVCMsvSession@@JABVTMsvSelectionOrdering@@@Z @ 182 NONAME ; public: static class CMsvEntry * __cdecl CMsvEntry::NewL(class CMsvSession &,long,class TMsvSelectionOrdering const &)
	?NewL@CMsvEntryArray@@SAPAV1@ABV?$CArrayFix@VTUid@@@@@Z @ 183 NONAME ; public: static class CMsvEntryArray * __cdecl CMsvEntryArray::NewL(class CArrayFix<class TUid> const &)
	?NewL@CMsvServer@@SAPAV1@ABVTDesC16@@@Z @ 184 NONAME ; public: static class CMsvServer * __cdecl CMsvServer::NewL(class TDesC16 const &)
	?NewL@CMsvServerEntry@@SAPAV1@AAVCMsvServer@@J@Z @ 185 NONAME ; public: static class CMsvServerEntry * __cdecl CMsvServerEntry::NewL(class CMsvServer &,long)
	?NewL@CMsvServerIndex@@SAPAV1@AAVCPermanentFileStore@@@Z @ 186 NONAME ; public: static class CMsvServerIndex * __cdecl CMsvServerIndex::NewL(class CPermanentFileStore &)
	?NewL@CMtmDllInfo@@SAPAV1@AAVRReadStream@@@Z @ 187 NONAME ; public: static class CMtmDllInfo * __cdecl CMtmDllInfo::NewL(class RReadStream &)
	?NewL@CMtmDllInfo@@SAPAV1@ABVTDesC16@@ABVTUidType@@HVTVersion@@@Z @ 188 NONAME ; public: static class CMtmDllInfo * __cdecl CMtmDllInfo::NewL(class TDesC16 const &,class TUidType const &,int,class TVersion)
	?NewL@CMtmGroupData@@SAPAV1@AAVRReadStream@@@Z @ 189 NONAME ; public: static class CMtmGroupData * __cdecl CMtmGroupData::NewL(class RReadStream &)
	?NewL@CMtmGroupData@@SAPAV1@VTUid@@0ABVCMtmDllInfoArray@@@Z @ 190 NONAME ; public: static class CMtmGroupData * __cdecl CMtmGroupData::NewL(class TUid,class TUid,class CMtmDllInfoArray const &)
	?NewL@CMtmRegistryControl@@SAPAV1@AAVRFs@@AAVCServerMtmDllRegistry@@@Z @ 191 NONAME ; public: static class CMtmRegistryControl * __cdecl CMtmRegistryControl::NewL(class RFs &,class CServerMtmDllRegistry &)
	?NewL@CRegisteredMtmDll@@SAPAV1@VTUid@@0ABVCMtmDllInfo@@VTTimeIntervalMicroSeconds32@@AAVMRegisteredMtmDllObserver@@@Z @ 192 NONAME ; public: static class CRegisteredMtmDll * __cdecl CRegisteredMtmDll::NewL(class TUid,class TUid,class CMtmDllInfo const &,class TTimeIntervalMicroSeconds32,class MRegisteredMtmDllObserver &)
	?NewL@CServerMtmDllRegistry@@SAPAV1@AAVRFs@@VTTimeIntervalMicroSeconds32@@@Z @ 193 NONAME ; public: static class CServerMtmDllRegistry * __cdecl CServerMtmDllRegistry::NewL(class RFs &,class TTimeIntervalMicroSeconds32)
	?NewLC@CMsvEntryArray@@SAPAV1@ABV?$CArrayFix@VTUid@@@@@Z @ 194 NONAME ; public: static class CMsvEntryArray * __cdecl CMsvEntryArray::NewLC(class CArrayFix<class TUid> const &)
	?NewLC@CMsvOperationWait@@SAPAV1@H@Z @ 195 NONAME ; public: static class CMsvOperationWait * __cdecl CMsvOperationWait::NewLC(int)
	?NewMtmL@CClientMtmRegistry@@QAEPAVCBaseMtm@@VTUid@@@Z @ 196 NONAME ; public: class CBaseMtm * __thiscall CClientMtmRegistry::NewMtmL(class TUid)
	?NewServerMtmL@CServerMtmDllRegistry@@QAEPAVCBaseServerMtm@@VTUid@@PAVCMsvServerEntry@@@Z @ 197 NONAME ; public: class CBaseServerMtm * __thiscall CServerMtmDllRegistry::NewServerMtmL(class TUid,class CMsvServerEntry *)
	?OpenAsyncL@CMsvSession@@SAPAV1@AAVMMsvSessionObserver@@@Z @ 198 NONAME ; public: static class CMsvSession * __cdecl CMsvSession::OpenAsyncL(class MMsvSessionObserver &)
	?OpenForReadL@CMsvStore@@KAPAV1@AAVMMsvStoreObserver@@AAVRFs@@ABVTDesC16@@J@Z @ 199 NONAME ; protected: static class CMsvStore * __cdecl CMsvStore::OpenForReadL(class MMsvStoreObserver &,class RFs &,class TDesC16 const &,long)
	?OpenForWriteL@CMsvStore@@KAPAV1@AAVMMsvStoreObserver@@AAVRFs@@ABVTDesC16@@J@Z @ 200 NONAME ; protected: static class CMsvStore * __cdecl CMsvStore::OpenForWriteL(class MMsvStoreObserver &,class RFs &,class TDesC16 const &,long)
	?OpenL@CMsvCachedStore@@SAPAV1@AAVRFs@@ABVTDesC16@@@Z @ 201 NONAME ; public: static class CMsvCachedStore * __cdecl CMsvCachedStore::OpenL(class RFs &,class TDesC16 const &)
	?OpenL@CMsvServerIndex@@SAPAV1@AAVCPermanentFileStore@@@Z @ 202 NONAME ; public: static class CMsvServerIndex * __cdecl CMsvServerIndex::OpenL(class CPermanentFileStore &)
	?OpenL@CMsvServerIndex@@SAPAV1@AAVCPermanentFileStore@@AAVMMsvIndexObserver@@@Z @ 203 NONAME ; public: static class CMsvServerIndex * __cdecl CMsvServerIndex::OpenL(class CPermanentFileStore &,class MMsvIndexObserver &)
	?OpenL@RMsvReadStream@@QAEXABVCMsvStore@@VTUid@@@Z @ 204 NONAME ; public: void __thiscall RMsvReadStream::OpenL(class CMsvStore const &,class TUid)
	?OpenLC@RMsvReadStream@@QAEXABVCMsvStore@@VTUid@@@Z @ 205 NONAME ; public: void __thiscall RMsvReadStream::OpenLC(class CMsvStore const &,class TUid)
	?OpenSyncL@CMsvSession@@SAPAV1@AAVMMsvSessionObserver@@@Z @ 206 NONAME ; public: static class CMsvSession * __cdecl CMsvSession::OpenSyncL(class MMsvSessionObserver &)
	?OperationCompletion@RMsvServerSession@@QAEHJAAVTDes8@@@Z @ 207 NONAME ; public: int __thiscall RMsvServerSession::OperationCompletion(long,class TDes8 &)
	?OperationMtmL@RMsvServerSession@@QAEHJJAAVTUid@@AAJ@Z @ 208 NONAME ; public: int __thiscall RMsvServerSession::OperationMtmL(long,long,class TUid &,long &)
	?OperationProgress@RMsvServerSession@@QAEHJAAVTDes8@@@Z @ 209 NONAME ; public: int __thiscall RMsvServerSession::OperationProgress(long,class TDes8 &)
	?OwningService@CMsvServerEntry@@QBEJXZ @ 210 NONAME ; public: long __thiscall CMsvServerEntry::OwningService(void)const 
	?OwningService@CMsvServerIndex@@QBEHJAAJ@Z @ 211 NONAME ; public: int __thiscall CMsvServerIndex::OwningService(long,long &)const 
	?Pack@TMsvPackedChangeNotification@@QAEXW4TMsvServerChangeNotificationType@@ABVCMsvEntrySelection@@HHHH@Z @ 212 NONAME ; public: void __thiscall TMsvPackedChangeNotification::Pack(enum TMsvServerChangeNotificationType,class CMsvEntrySelection const &,int,int,int,int)
	?Pack@TMsvPackedChangeNotification@@QAEXW4TMsvServerChangeNotificationType@@JHH@Z @ 213 NONAME ; public: void __thiscall TMsvPackedChangeNotification::Pack(enum TMsvServerChangeNotificationType,long,int,int)
	?Pack@TMsvPackedOperation@@QAEHABVCMsvEntrySelection@@HH@Z @ 214 NONAME ; public: int __thiscall TMsvPackedOperation::Pack(class CMsvEntrySelection const &,int,int)
	?PackEntry@TMsvPackedEntry@@QAEHABVTMsvEntry@@@Z @ 215 NONAME ; public: int __thiscall TMsvPackedEntry::PackEntry(class TMsvEntry const &)
	?PackEntry@TMsvPackedEntryArray@@QAEHABVTMsvEntry@@@Z @ 216 NONAME ; public: int __thiscall TMsvPackedEntryArray::PackEntry(class TMsvEntry const &)
	?PackMtmGroupData@TMsvPackedMtmGroupData@@QAEHABVCMtmGroupData@@@Z @ 217 NONAME ; public: int __thiscall TMsvPackedMtmGroupData::PackMtmGroupData(class CMtmGroupData const &)
	?PackRegisteredMtmDllArray@TMsvPackedRegisteredMtmDllArray@@QAEHABVCRegisteredMtmDllArray@@@Z @ 218 NONAME ; public: int __thiscall TMsvPackedRegisteredMtmDllArray::PackRegisteredMtmDllArray(class CRegisteredMtmDllArray const &)
	?PermanentDataUnchanged@TMsvEntry@@QBEHABV1@@Z @ 219 NONAME ; public: int __thiscall TMsvEntry::PermanentDataUnchanged(class TMsvEntry const &)const 
	?Priority@TMsvEntry@@QBE?AW4TMsvPriority@@XZ @ 220 NONAME ; public: enum TMsvPriority  __thiscall TMsvEntry::Priority(void)const 
	?QueryCapability@CBaseMtm@@UAEHVTUid@@AAH@Z @ 221 NONAME ; public: virtual int __thiscall CBaseMtm::QueryCapability(class TUid,int &)
	?Queue@CMsgActive@@IAEXAAVTRequestStatus@@@Z @ 222 NONAME ; protected: void __thiscall CMsgActive::Queue(class TRequestStatus &)
	?QueueSessionEventRequest@RMsvServerSession@@QAEXAAVTDes8@@0AAVTRequestStatus@@@Z @ 223 NONAME ; void RMsvServerSession::QueueSessionEventRequest(class TDes8 &, class TDes8 &, class TRequestStatus &)
	?ReadStore@RMsvServerSession@@QAEHJ@Z @ 224 NONAME ; public: int __thiscall RMsvServerSession::ReadStore(long)
	?ReadStoreL@CMsvEntry@@QAEPAVCMsvStore@@XZ @ 225 NONAME ; public: class CMsvStore * __thiscall CMsvEntry::ReadStoreL(void)
	?ReadStoreL@CMsvServerEntry@@QAEPAVCMsvStore@@XZ @ 226 NONAME ; public: class CMsvStore * __thiscall CMsvServerEntry::ReadStoreL(void)
	?RegisteredMtmDllInfo@CMtmDllRegistry@@QBEABVCMtmDllInfo@@VTUid@@@Z @ 227 NONAME ; public: class CMtmDllInfo const & __thiscall CMtmDllRegistry::RegisteredMtmDllInfo(class TUid)const 
	?ReleaseEntry@CMsvServerIndex@@QAEHJ@Z @ 228 NONAME ; public: int __thiscall CMsvServerIndex::ReleaseEntry(long)
	?ReleaseEntry@RMsvServerSession@@QAEHJ@Z @ 229 NONAME ; public: int __thiscall RMsvServerSession::ReleaseEntry(long)
	?ReleaseEntryAndStore@CMsvServerIndex@@QAEHJ@Z @ 230 NONAME ; public: int __thiscall CMsvServerIndex::ReleaseEntryAndStore(long)
	?ReleaseLibrary@CRegisteredMtmDll@@QAEXXZ @ 231 NONAME ; public: void __thiscall CRegisteredMtmDll::ReleaseLibrary(void)
	?ReleaseMtmGroup@CMtmRegistryControl@@UAEHVTUid@@@Z @ 232 NONAME ; public: virtual int __thiscall CMtmRegistryControl::ReleaseMtmGroup(class TUid)
	?ReleaseMtmGroup@RMsvServerSession@@UAEHVTUid@@@Z @ 233 NONAME ; public: virtual int __thiscall RMsvServerSession::ReleaseMtmGroup(class TUid)
	?ReleaseStore@CMsvServerIndex@@QAEHJ@Z @ 234 NONAME ; public: int __thiscall CMsvServerIndex::ReleaseStore(long)
	?ReleaseStore@RMsvServerSession@@QAEHJ@Z @ 235 NONAME ; public: int __thiscall RMsvServerSession::ReleaseStore(long)
	?Remove@CMsvStore@@QAEXVTUid@@@Z @ 236 NONAME ; public: void __thiscall CMsvStore::Remove(class TUid)
	?RemoveAllRegisteredMtmDlls@CMtmDllRegistry@@IAEXXZ @ 237 NONAME ; protected: void __thiscall CMtmDllRegistry::RemoveAllRegisteredMtmDlls(void)
	?RemoveDefaultService@CMsvDefaultServices@@QAEHVTUid@@@Z @ 238 NONAME ; public: int __thiscall CMsvDefaultServices::RemoveDefaultService(class TUid)
	?RemoveEntry@RMsvServerSession@@QAEXJ@Z @ 239 NONAME ; public: void __thiscall RMsvServerSession::RemoveEntry(long)
	?RemoveL@CMsvStore@@QAEXVTUid@@@Z @ 240 NONAME ; public: void __thiscall CMsvStore::RemoveL(class TUid)
	?RemoveObserver@CMsvEntry@@QAEXAAVMMsvEntryObserver@@@Z @ 241 NONAME ; public: void __thiscall CMsvEntry::RemoveObserver(class MMsvEntryObserver &)
	?RemoveObserver@CMsvSession@@QAEXAAVMMsvSessionObserver@@@Z @ 242 NONAME ; public: void __thiscall CMsvSession::RemoveObserver(class MMsvSessionObserver &)
	?RemoveRegisteredMtmDll@CMtmDllRegistry@@IAEXVTUid@@@Z @ 243 NONAME ; protected: void __thiscall CMtmDllRegistry::RemoveRegisteredMtmDll(class TUid)
	?Reset@TMsvPackedEntryArray@@QAEXXZ @ 244 NONAME ; public: void __thiscall TMsvPackedEntryArray::Reset(void)
	?RestoreBodyL@CBaseMtm@@IAEXAAVCMsvStore@@@Z @ 245 NONAME ; protected: void __thiscall CBaseMtm::RestoreBodyL(class CMsvStore &)
	?RestoreBodyTextL@CMsvStore@@QAEXAAVCRichText@@@Z @ 246 NONAME ; public: void __thiscall CMsvStore::RestoreBodyTextL(class CRichText &)
	?RestoreL@CMsvDefaultServices@@QAEXAAVCMsvStore@@@Z @ 247 NONAME ; public: void __thiscall CMsvDefaultServices::RestoreL(class CMsvStore &)
	?RestoreRegistryL@CMtmRegistryControl@@QAEXXZ @ 248 NONAME ; public: void __thiscall CMtmRegistryControl::RestoreRegistryL(void)
	?Revert@CMsvStore@@QAEXXZ @ 249 NONAME ; public: void __thiscall CMsvStore::Revert(void)
	?RevertL@CMsvStore@@QAEXXZ @ 250 NONAME ; public: void __thiscall CMsvStore::RevertL(void)
	?RunL@CBaseServerMtm@@EAEXXZ @ 251 NONAME ; private: virtual void __thiscall CBaseServerMtm::RunL(void)
	?RunL@CMsgActive@@EAEXXZ @ 252 NONAME ; private: virtual void __thiscall CMsgActive::RunL(void)
	?ServiceActive@RMsvServerSession@@QAEHJ@Z @ 253 NONAME ; public: int __thiscall RMsvServerSession::ServiceActive(long)
	?ServiceProgress@RMsvServerSession@@QAEHJAAVTDes8@@@Z @ 254 NONAME ; public: int __thiscall RMsvServerSession::ServiceProgress(long,class TDes8 &)
	?SetCurrentEntryL@CBaseMtm@@QAEXPAVCMsvEntry@@@Z @ 255 NONAME ; public: void __thiscall CBaseMtm::SetCurrentEntryL(class CMsvEntry *)
	?SetEntry@CMsvServerEntry@@QAEHJ@Z @ 256 NONAME ; public: int __thiscall CMsvServerEntry::SetEntry(long)
	?SetEntryL@CMsvEntry@@QAEXJ@Z @ 257 NONAME ; public: void __thiscall CMsvEntry::SetEntryL(long)
	?SetHumanReadableNameL@CMtmDllInfo@@QAEXABVTDesC16@@@Z @ 258 NONAME ; public: void __thiscall CMtmDllInfo::SetHumanReadableNameL(class TDesC16 const &)
	?SetMtmListL@CMsvEntry@@QAEXABV?$CArrayFix@VTUid@@@@@Z @ 259 NONAME ; public: void __thiscall CMsvEntry::SetMtmListL(class CArrayFix<class TUid> const &)
	?SetPriority@TMsvEntry@@QAEXW4TMsvPriority@@@Z @ 260 NONAME ; public: void __thiscall TMsvEntry::SetPriority(enum TMsvPriority)
	?SetSortTypeL@CMsvEntry@@QAEXABVTMsvSelectionOrdering@@@Z @ 261 NONAME ; public: void __thiscall CMsvEntry::SetSortTypeL(class TMsvSelectionOrdering const &)
	?SetSubjectL@CBaseMtm@@UAEXABVTDesC16@@@Z @ 262 NONAME ; public: virtual void __thiscall CBaseMtm::SetSubjectL(class TDesC16 const &)
	?SizeL@CMsvStore@@QAEHXZ @ 263 NONAME ; public: int __thiscall CMsvStore::SizeL(void)
	?SortL@CMsvEntryArray@@QAEXVTMsvSelectionOrdering@@@Z @ 264 NONAME ; public: void __thiscall CMsvEntryArray::SortL(class TMsvSelectionOrdering)
	?Start@CMsvOperationWait@@QAEXXZ @ 265 NONAME ; public: void __thiscall CMsvOperationWait::Start(void)
	?StartMessageServer@@YAHPAX@Z @ 266 NONAME ; int __cdecl StartMessageServer(void *)
	?StopService@RMsvServerSession@@QAEHJ@Z @ 267 NONAME ; public: int __thiscall RMsvServerSession::StopService(long)
	?StoreBodyL@CBaseMtm@@IAEXAAVCMsvStore@@@Z @ 268 NONAME ; protected: void __thiscall CBaseMtm::StoreBodyL(class CMsvStore &)
	?StoreBodyTextL@CMsvStore@@QAEXABVCRichText@@@Z @ 269 NONAME ; public: void __thiscall CMsvStore::StoreBodyTextL(class CRichText const &)
	?StoreL@CMsvDefaultServices@@QBEXAAVCMsvStore@@@Z @ 270 NONAME ; public: void __thiscall CMsvDefaultServices::StoreL(class CMsvStore &)const 
	?StoreRegistryL@CMtmRegistryControl@@QBEXXZ @ 271 NONAME ; public: void __thiscall CMtmRegistryControl::StoreRegistryL(void)const 
	?SubjectL@CBaseMtm@@UBE?BVTPtrC16@@XZ @ 272 NONAME ; public: virtual class TPtrC16 const  __thiscall CBaseMtm::SubjectL(void)const 
	?SwitchCurrentEntryL@CBaseMtm@@QAEXJ@Z @ 273 NONAME ; public: void __thiscall CBaseMtm::SwitchCurrentEntryL(long)
	?TechnologyTypeUid@CMtmDllRegistry@@QBE?AVTUid@@V2@@Z @ 274 NONAME ; public: class TUid  __thiscall CMtmDllRegistry::TechnologyTypeUid(class TUid)const 
	?TransferCommandL@CMsvSession@@QAEPAVCMsvOperation@@ABVCMsvEntrySelection@@HABVTDesC8@@AAVTRequestStatus@@@Z @ 275 NONAME ; public: class CMsvOperation * __thiscall CMsvSession::TransferCommandL(class CMsvEntrySelection const &,int,class TDesC8 const &,class TRequestStatus &)
	?TransferCommandL@RMsvServerSession@@QAEXABVCMsvEntrySelection@@HABVTDesC8@@JAAVTRequestStatus@@@Z @ 276 NONAME ; public: void __thiscall RMsvServerSession::TransferCommandL(class CMsvEntrySelection const &,int,class TDesC8 const &,long,class TRequestStatus &)
	?UnpackEntry@TMsvPackedEntry@@QAEXAAVTMsvEntry@@@Z @ 277 NONAME ; public: void __thiscall TMsvPackedEntry::UnpackEntry(class TMsvEntry &)
	?UnpackEntry@TMsvPackedEntryArray@@QAEHHAAVTMsvEntry@@@Z @ 278 NONAME ; public: int __thiscall TMsvPackedEntryArray::UnpackEntry(int,class TMsvEntry &)
	?UnpackL@TMsvPackedChangeNotification@@QAEXAAW4TMsvServerChangeNotificationType@@AAVCMsvEntrySelection@@AAH2@Z @ 279 NONAME ; public: void __thiscall TMsvPackedChangeNotification::UnpackL(enum TMsvServerChangeNotificationType &,class CMsvEntrySelection &,int &,int &)
	?UnpackL@TMsvPackedOperation@@QAEXAAVCMsvEntrySelection@@AAH1@Z @ 280 NONAME ; public: void __thiscall TMsvPackedOperation::UnpackL(class CMsvEntrySelection &,int &,int &)
	?UnpackMtmGroupDataL@TMsvPackedMtmGroupData@@QBEPAVCMtmGroupData@@XZ @ 281 NONAME ; public: class CMtmGroupData * __thiscall TMsvPackedMtmGroupData::UnpackMtmGroupDataL(void)const 
	?UnpackRegisteredMtmDllArrayL@TMsvPackedRegisteredMtmDllArray@@QAEXAAVCRegisteredMtmDllArray@@VTTimeIntervalMicroSeconds32@@AAVMRegisteredMtmDllObserver@@@Z @ 282 NONAME ; public: void __thiscall TMsvPackedRegisteredMtmDllArray::UnpackRegisteredMtmDllArrayL(class CRegisteredMtmDllArray &,class TTimeIntervalMicroSeconds32,class MRegisteredMtmDllObserver &)
	?UseMtmGroup@CMtmRegistryControl@@UAEHVTUid@@@Z @ 283 NONAME ; public: virtual int __thiscall CMtmRegistryControl::UseMtmGroup(class TUid)
	?UseMtmGroup@RMsvServerSession@@UAEHVTUid@@@Z @ 284 NONAME ; public: virtual int __thiscall RMsvServerSession::UseMtmGroup(class TUid)
	?ValidEntry@MsvUtils@@SAHABVTMsvEntry@@@Z @ 285 NONAME ; public: static int __cdecl MsvUtils::ValidEntry(class TMsvEntry const &)
	?Version@RMsvServerSession@@QBE?AVTVersion@@XZ @ 286 NONAME ; public: class TVersion  __thiscall RMsvServerSession::Version(void)const 
	?__DbgTestInvariant@CMsvServerIndex@@QBEXXZ @ 287 NONAME ; public: void __thiscall CMsvServerIndex::__DbgTestInvariant(void)const 
	?ChangeEntryL@RMsvServerSession@@QAEXABVTMsvEntry@@J@Z @ 288 NONAME ; public: void __thiscall RMsvServerSession::ChangeEntryL(class TMsvEntry const &,long)
	?ChangeL@CMsvEntry@@QAEXABVTMsvEntry@@@Z @ 289 NONAME ; public: void __thiscall CMsvEntry::ChangeL(class TMsvEntry const &)
	?CreateEntryL@RMsvServerSession@@QAEXABVTMsvEntry@@J@Z @ 290 NONAME ; public: void __thiscall RMsvServerSession::CreateEntryL(class TMsvEntry const &,long)
	?CreateL@CMsvEntry@@QAEXAAVTMsvEntry@@@Z @ 291 NONAME ; public: void __thiscall CMsvEntry::CreateL(class TMsvEntry &)
	?FileSession@CMsvServerEntry@@QAEAAVRFs@@XZ @ 292 NONAME ; public: class RFs & __thiscall CMsvServerEntry::FileSession(void)
	?GetFinalLocalProgress@McliUtils@@SA?AVTMsvLocalOperationProgress@@AAVCMsvOperation@@@Z @ 293 NONAME ; public: static class TMsvLocalOperationProgress  __cdecl McliUtils::GetFinalLocalProgress(class CMsvOperation &)
	?NullUidValue@MessageServer@@SAJXZ @ 294 NONAME ; public: static long __cdecl MessageServer::NullUidValue(void)
	?OpenAsObserverL@CMsvSession@@SAPAV1@AAVMMsvSessionObserver@@@Z @ 295 NONAME ; public: static class CMsvSession * __cdecl CMsvSession::OpenAsObserverL(class MMsvSessionObserver &)
	?SetFailure@RMsvServerSession@@QAEXHHHH@Z @ 296 NONAME ; public: void __thiscall RMsvServerSession::SetFailure(int,int,int,int)
	?Version@MessageServer@@SA?AVTVersion@@XZ @ 297 NONAME ; public: static class TVersion  __cdecl MessageServer::Version(void)
	?FinalProgress@CMsvOperation@@UAEABVTDesC8@@XZ @ 298 NONAME ; public: virtual class TDesC8 const & __thiscall CMsvOperation::FinalProgress(void)
	?DeleteEntriesL@RMsvServerSession@@QAEXABVCMsvEntrySelection@@J@Z @ 299 NONAME ; public: void __thiscall RMsvServerSession::DeleteEntriesL(class CMsvEntrySelection const &,long)
	?DeleteL@CMsvEntry@@QAEXABVCMsvEntrySelection@@AAVTMsvLocalOperationProgress@@@Z @ 300 NONAME ; public: void __thiscall CMsvEntry::DeleteL(class CMsvEntrySelection const &,class TMsvLocalOperationProgress &)
	?DeleteL@CMsvEntry@@QAEXJ@Z @ 301 NONAME ; public: void __thiscall CMsvEntry::DeleteL(long)
	?TransferCommandL@CMsvSession@@QAEXABVCMsvEntrySelection@@HABVTDesC8@@AAVTDes8@@@Z @ 302 NONAME ; public: void __thiscall CMsvSession::TransferCommandL(class CMsvEntrySelection const &,int,class TDesC8 const &,class TDes8 &)
	?TransferCommandL@RMsvServerSession@@QAEHABVCMsvEntrySelection@@HABVTDesC8@@J@Z @ 303 NONAME ; public: int __thiscall RMsvServerSession::TransferCommandL(class CMsvEntrySelection const &,int,class TDesC8 const &,long)
	?ChangeAttributesL@CMsvEntry@@QAEXABVCMsvEntrySelection@@II@Z @ 304 NONAME ; public: void __thiscall CMsvEntry::ChangeAttributesL(class CMsvEntrySelection const &,unsigned int,unsigned int)
	?ChangeAttributesL@RMsvServerSession@@QAEXABVCMsvEntrySelection@@II@Z @ 305 NONAME ; public: void __thiscall RMsvServerSession::ChangeAttributesL(class CMsvEntrySelection const &,unsigned int,unsigned int)
	?CopyEntriesL@CMsvServerEntry@@QAEXABVCMsvEntrySelection@@JAAVTRequestStatus@@@Z @ 306 NONAME ; public: void __thiscall CMsvServerEntry::CopyEntriesL(class CMsvEntrySelection const &,long,class TRequestStatus &)
	?CopyEntryL@CMsvServerEntry@@QAEXJJAAVTRequestStatus@@@Z @ 307 NONAME ; public: void __thiscall CMsvServerEntry::CopyEntryL(long,long,class TRequestStatus &)
	?DecPcSyncCountL@CMsvSession@@QAEXABVCMsvEntrySelection@@@Z @ 308 NONAME ; public: void __thiscall CMsvSession::DecPcSyncCountL(class CMsvEntrySelection const &)
	?DeleteEntries@CMsvServerEntry@@QAEHAAVCMsvEntrySelection@@@Z @ 309 NONAME ; public: int __thiscall CMsvServerEntry::DeleteEntries(class CMsvEntrySelection &)
	?IncPcSyncCountL@CMsvSession@@QAEXABVCMsvEntrySelection@@@Z @ 310 NONAME ; public: void __thiscall CMsvSession::IncPcSyncCountL(class CMsvEntrySelection const &)
	?MoveEntriesL@CMsvServerEntry@@QAEXABVCMsvEntrySelection@@JAAVTRequestStatus@@@Z @ 311 NONAME ; public: void __thiscall CMsvServerEntry::MoveEntriesL(class CMsvEntrySelection const &,long,class TRequestStatus &)
	?MoveEntriesWithinService@CMsvServerEntry@@QAEHAAVCMsvEntrySelection@@J@Z @ 312 NONAME ; public: int __thiscall CMsvServerEntry::MoveEntriesWithinService(class CMsvEntrySelection &,long)
	??0CMsvFindOperation@@IAE@AAVCMsvSession@@ABVTDesC16@@IAAVTRequestStatus@@@Z @ 313 NONAME ; protected: __thiscall CMsvFindOperation::CMsvFindOperation(class CMsvSession &,class TDesC16 const &,unsigned int,class TRequestStatus &)
	??0CMsvFindResultSelection@@QAE@XZ @ 314 NONAME ; public: __thiscall CMsvFindResultSelection::CMsvFindResultSelection(void)
	??0TMsvFindOperationProgress@@QAE@XZ @ 315 NONAME ; public: __thiscall TMsvFindOperationProgress::TMsvFindOperationProgress(void)
	??0TMsvFindResult@@QAE@IJ@Z @ 316 NONAME ; public: __thiscall TMsvFindResult::TMsvFindResult(unsigned int,long)
	??0TMsvFindResult@@QAE@XZ @ 317 NONAME ; public: __thiscall TMsvFindResult::TMsvFindResult(void)
	??1CMsvFindOperation@@UAE@XZ @ 318 NONAME ; public: virtual __thiscall CMsvFindOperation::~CMsvFindOperation(void)
	??1CMsvFindText@@UAE@XZ @ 319 NONAME ; public: virtual __thiscall CMsvFindText::~CMsvFindText(void)
	?ConstructFindInChildrenL@CMsvFindOperation@@IAEXJ@Z @ 320 NONAME ; protected: void __thiscall CMsvFindOperation::ConstructFindInChildrenL(long)
	?ConstructFindInSelectionL@CMsvFindOperation@@IAEXABVCMsvEntrySelection@@@Z @ 321 NONAME ; protected: void __thiscall CMsvFindOperation::ConstructFindInSelectionL(class CMsvEntrySelection const &)
	?CopyL@CMsvFindResultSelection@@QBEPAV1@XZ @ 322 NONAME ; public: class CMsvFindResultSelection * __thiscall CMsvFindResultSelection::CopyL(void)const 
	?CopyLC@CMsvFindResultSelection@@QBEPAV1@XZ @ 323 NONAME ; public: class CMsvFindResultSelection * __thiscall CMsvFindResultSelection::CopyLC(void)const 
	?DoCancel@CMsvFindOperation@@EAEXXZ @ 324 NONAME ; private: virtual void __thiscall CMsvFindOperation::DoCancel(void)
	?FinalProgress@CMsvFindOperation@@UAEABVTDesC8@@XZ @ 325 NONAME ; public: virtual class TDesC8 const & __thiscall CMsvFindOperation::FinalProgress(void)
	?Find@CMsvFindResultSelection@@QBEHJ@Z @ 326 NONAME ; public: int __thiscall CMsvFindResultSelection::Find(long)const 
	?FindInChildrenL@CMsvFindOperation@@SAPAV1@AAVCMsvSession@@ABVTDesC16@@JIAAVTRequestStatus@@@Z @ 327 NONAME ; public: static class CMsvFindOperation * __cdecl CMsvFindOperation::FindInChildrenL(class CMsvSession &,class TDesC16 const &,long,unsigned int,class TRequestStatus &)
	?FindInSelectionL@CMsvFindOperation@@SAPAV1@AAVCMsvSession@@ABVTDesC16@@ABVCMsvEntrySelection@@IAAVTRequestStatus@@@Z @ 328 NONAME ; public: static class CMsvFindOperation * __cdecl CMsvFindOperation::FindInSelectionL(class CMsvSession &,class TDesC16 const &,class CMsvEntrySelection const &,unsigned int,class TRequestStatus &)
	?FindRichTextL@CMsvFindText@@QAEHABVTDesC16@@ABVCRichText@@I@Z @ 329 NONAME ; public: int __thiscall CMsvFindText::FindRichTextL(class TDesC16 const &,class CRichText const &,unsigned int)
	?FindRichTextL@CMsvFindText@@QAEXABVTDesC16@@ABVCRichText@@IAAVTRequestStatus@@@Z @ 330 NONAME ; public: void __thiscall CMsvFindText::FindRichTextL(class TDesC16 const &,class CRichText const &,unsigned int,class TRequestStatus &)
	?FindTextL@CMsvFindText@@QAEHABVTDesC16@@0I@Z @ 331 NONAME ; public: int __thiscall CMsvFindText::FindTextL(class TDesC16 const &,class TDesC16 const &,unsigned int)
	?FindTextL@CMsvFindText@@QAEXABVTDesC16@@0IAAVTRequestStatus@@@Z @ 332 NONAME ; public: void __thiscall CMsvFindText::FindTextL(class TDesC16 const &,class TDesC16 const &,unsigned int,class TRequestStatus &)
	?NewL@CMsvEntryFilter@@SAPAV1@XZ @ 333 NONAME ; public: static class CMsvEntryFilter * __cdecl CMsvEntryFilter::NewL(void)
	?GetChildIdsL@CMsvSession@@QAEXJABVCMsvEntryFilter@@AAVCMsvEntrySelection@@@Z @ 334 NONAME ; public: void __thiscall CMsvSession::GetChildIdsL(long,class CMsvEntryFilter const &,class CMsvEntrySelection &)
	?GetChildIdsL@RMsvServerSession@@QAEXJABVCMsvEntryFilter@@AAVCMsvEntrySelection@@@Z @ 335 NONAME ; public: void __thiscall RMsvServerSession::GetChildIdsL(long,class CMsvEntryFilter const &,class CMsvEntrySelection &)
	?NewL@CMsvFindText@@SAPAV1@H@Z @ 336 NONAME ; public: static class CMsvFindText * __cdecl CMsvFindText::NewL(int)
	?ProgressL@CMsvFindOperation@@UAEABVTDesC8@@XZ @ 337 NONAME ; public: virtual class TDesC8 const & __thiscall CMsvFindOperation::ProgressL(void)
	?RunL@CMsvFindOperation@@EAEXXZ @ 338 NONAME ; private: virtual void __thiscall CMsvFindOperation::RunL(void)
	?GetChildrenWithMtm@CMsvServerEntry@@QAEHVTUid@@AAVCMsvEntrySelection@@@Z @ 339 NONAME ; public: int __thiscall CMsvServerEntry::GetChildrenWithMtm(class TUid,class CMsvEntrySelection &)
	?GetChildrenWithService@CMsvServerEntry@@QAEHJAAVCMsvEntrySelection@@@Z @ 340 NONAME ; public: int __thiscall CMsvServerEntry::GetChildrenWithService(long,class CMsvEntrySelection &)
	?GetChildrenWithType@CMsvServerEntry@@QAEHVTUid@@AAVCMsvEntrySelection@@@Z @ 341 NONAME ; public: int __thiscall CMsvServerEntry::GetChildrenWithType(class TUid,class CMsvEntrySelection &)
	?NewLC@CMsvEntryFilter@@SAPAV1@XZ @ 342 NONAME ; public: static class CMsvEntryFilter * __cdecl CMsvEntryFilter::NewLC(void)
	?NewLC@CMsvFindText@@SAPAV1@H@Z @ 343 NONAME ; public: static class CMsvFindText * __cdecl CMsvFindText::NewLC(int)
	?ChangeAttributesL@CMsvSession@@QAEXABVCMsvEntrySelection@@II@Z @ 344 NONAME ; public: void __thiscall CMsvSession::ChangeAttributesL(class CMsvEntrySelection const &,unsigned int,unsigned int)
	??0TMsvIndexLoadProgress@@QAE@XZ @ 345 NONAME ; public: __thiscall TMsvIndexLoadProgress::TMsvIndexLoadProgress(void)
	??0TMsvIndexProgress@@QAE@XZ @ 346 NONAME ; public: __thiscall TMsvIndexProgress::TMsvIndexProgress(void)
	?ChangeDrive@CMsvServer@@QAEHHPAVTRequestStatus@@@Z @ 347 NONAME ; public: int __thiscall CMsvServer::ChangeDrive(int,class TRequestStatus *)
	?ChangeDriveL@CMsvSession@@QAEPAVCMsvOperation@@HAAVTRequestStatus@@@Z @ 348 NONAME ; public: class CMsvOperation * __thiscall CMsvSession::ChangeDriveL(int,class TRequestStatus &)
	?CurrentDriveL@MessageServer@@SAHAAVRFs@@@Z @ 349 NONAME ; public: static int __cdecl MessageServer::CurrentDriveL(class RFs &)
	?DriveContainsStore@MessageServer@@SAHAAVRFs@@H@Z @ 350 NONAME ; public: static int __cdecl MessageServer::DriveContainsStore(class RFs &,int)
	?OutstandingOperationsL@CMsvSession@@QAEHXZ @ 351 NONAME ; public: int __thiscall CMsvSession::OutstandingOperationsL(void)
	??0TMsvServerOperationProgress@@QAE@XZ @ 352 NONAME ; public: __thiscall TMsvServerOperationProgress::TMsvServerOperationProgress(void)
	?CreateAttachmentL@CBaseMtm@@UAEXAAJAAV?$TBuf@$0BAA@@@@Z @ 353 NONAME ; public: virtual void __thiscall CBaseMtm::CreateAttachmentL(long &,class TBuf<256> &)
	?CreateMessageL@CBaseMtm@@UAEXJ@Z @ 354 NONAME ; public: virtual void __thiscall CBaseMtm::CreateMessageL(long)
	?DeleteAttachmentL@CBaseMtm@@UAEXJJ@Z @ 355 NONAME ; public: virtual void __thiscall CBaseMtm::DeleteAttachmentL(long,long)
	?BioTypeChangedL@CBaseMtm@@UAEXVTUid@@@Z @ 356 NONAME ; public: virtual void __thiscall CBaseMtm::BioTypeChangedL(class TUid)
	?CreateMessageServerL@@YAPAVCServer2@@AAPAVCMsvServerEntry@@@Z @ 357 NONAME ; class CServer2 * CreateMessageServerL(class CMsvServerEntry * &)	
	?Mtm@CMsvOperation@@UBE?AVTUid@@XZ @ 358 NONAME ; public: virtual class TUid  __thiscall CMsvOperation::Mtm(void)const 
	?DelMtmPath@RMsvServerSession@@UAEHABVTUidType@@@Z @ 359 NONAME ; public: virtual int __thiscall RMsvServerSession::DelMtmPath(class TUidType const &)
	?GetMtmPath@RMsvServerSession@@UBEHABVTUidType@@AAVTDes16@@@Z @ 360 NONAME ; public: virtual int __thiscall RMsvServerSession::GetMtmPath(class TUidType const &,class TDes16 &)const 
	?SetMtmPath@RMsvServerSession@@UAEHABVTUidType@@ABVTDesC16@@@Z @ 361 NONAME ; public: virtual int __thiscall RMsvServerSession::SetMtmPath(class TUidType const &,class TDesC16 const &)
	?GetEntryFromId@CMsvServerEntry@@QAEHJAAPAVTMsvEntry@@@Z @ 362 NONAME ; public: int __thiscall CMsvServerEntry::GetEntryFromId(long,class TMsvEntry * &)
	?HasBodyTextL@CMsvStore@@QBEHXZ @ 363 NONAME ; public: int __thiscall CMsvStore::HasBodyTextL(void)const 
	?IsNullL@CMsvStore@@QBEHXZ @ 364 NONAME ; public: int __thiscall CMsvStore::IsNullL(void)const 
	?IsPresentL@CMsvStore@@QBEHVTUid@@@Z @ 365 NONAME ; public: int __thiscall CMsvStore::IsPresentL(class TUid)const 
	?MoveEntriesL@RMsvServerSession@@QAEXABVCMsvEntrySelection@@JJ@Z @ 366 NONAME ; public: void __thiscall RMsvServerSession::MoveEntriesL(class CMsvEntrySelection const &,long,long)
	?MoveL@CMsvEntry@@QAEXABVCMsvEntrySelection@@JAAVTMsvLocalOperationProgress@@@Z @ 367 NONAME ; public: void __thiscall CMsvEntry::MoveL(class CMsvEntrySelection const &,long,class TMsvLocalOperationProgress &)
	?MoveL@CMsvEntry@@QAEXJJ@Z @ 368 NONAME ; public: void __thiscall CMsvEntry::MoveL(long,long)
	?CopyEntriesL@RMsvServerSession@@QAEXABVCMsvEntrySelection@@JJ@Z @ 369 NONAME ; public: void __thiscall RMsvServerSession::CopyEntriesL(class CMsvEntrySelection const &,long,long)
	?CopyL@CMsvEntry@@QAEXABVCMsvEntrySelection@@JAAVTMsvLocalOperationProgress@@@Z @ 370 NONAME ; public: void __thiscall CMsvEntry::CopyL(class CMsvEntrySelection const &,long,class TMsvLocalOperationProgress &)
	?CopyL@CMsvEntry@@QAEXJJ@Z @ 371 NONAME ; public: void __thiscall CMsvEntry::CopyL(long,long)
	?SetReceiveEntryEvents@CMsvSession@@QAEHH@Z @ 372 NONAME ; public: int __thiscall CMsvSession::SetReceiveEntryEvents(int)
	?SetReceiveEntryEvents@RMsvServerSession@@QAEHH@Z @ 373 NONAME ; public: int __thiscall RMsvServerSession::SetReceiveEntryEvents(int)
	?CapabilitiesAvailable@CMtmDllInfo@@QBEHXZ @ 374 NONAME ; public: int __thiscall CMtmDllInfo::CapabilitiesAvailable(void)const 
	?MessagingCapability@CMtmDllInfo@@QBEHXZ @ 375 NONAME ; public: int __thiscall CMtmDllInfo::MessagingCapability(void)const 
	?SendBodyCapability@CMtmDllInfo@@QBEHXZ @ 376 NONAME ; public: int __thiscall CMtmDllInfo::SendBodyCapability(void)const 
	??1CMsvOperationActiveSchedulerWait@@UAE@XZ @ 377 NONAME ; public: virtual __thiscall CMsvOperationActiveSchedulerWait::~CMsvOperationActiveSchedulerWait(void)
	?NewLC@CMsvOperationActiveSchedulerWait@@SAPAV1@H@Z @ 378 NONAME ; public: static class CMsvOperationActiveSchedulerWait * __cdecl CMsvOperationActiveSchedulerWait::NewLC(int)
	?Start@CMsvOperationActiveSchedulerWait@@QAEXXZ @ 379 NONAME ; public: void __thiscall CMsvOperationActiveSchedulerWait::Start(void)
	?CopyEntriesL@CMsvServerEntry@@QAEXABVCMsvEntrySelection@@JAAV2@AAVTRequestStatus@@@Z @ 380 NONAME ; public: void __thiscall CMsvServerEntry::CopyEntriesL(class CMsvEntrySelection const &,long,class CMsvEntrySelection &,class TRequestStatus &)
	?CopyEntryL@CMsvServerEntry@@QAEXJJAAJAAVTRequestStatus@@@Z @ 381 NONAME ; public: void __thiscall CMsvServerEntry::CopyEntryL(long,long,long &,class TRequestStatus &)
	??1CMsvBodyText@@UAE@XZ @ 382 NONAME ; CMsvBodyText::~CMsvBodyText(void)
	?CharacterSet@CMsvBodyText@@QBEIXZ @ 383 NONAME ; unsigned int CMsvBodyText::CharacterSet(void) const
	?DefaultCharacterSet@CMsvBodyText@@QBEIXZ @ 384 NONAME ; unsigned int CMsvBodyText::DefaultCharacterSet(void) const
	?GetBodyTextL@CMsvBodyText@@QAEXAAVRFs@@AAVCMsvStore@@AAVCRichText@@@Z @ 385 NONAME ; void CMsvBodyText::GetBodyTextL(class RFs &, class CMsvStore &, class CRichText &)
	?IsPresentL@CMsvBodyText@@QBEHABVCMsvStore@@@Z @ 386 NONAME ; int CMsvBodyText::IsPresentL(class CMsvStore const &) const
	?NewL@CMsvBodyText@@SAPAV1@XZ @ 387 NONAME ; class CMsvBodyText * CMsvBodyText::NewL(void)
	?NewLC@CMsvBodyText@@SAPAV1@XZ @ 388 NONAME ; class CMsvBodyText * CMsvBodyText::NewLC(void)
	?RemoveL@CMsvBodyText@@QAEXAAVCMsvStore@@@Z @ 389 NONAME ; void CMsvBodyText::RemoveL(class CMsvStore &)
	?RestoreL@CMsvBodyText@@QAEXAAVCMsvStore@@@Z @ 390 NONAME ; void CMsvBodyText::RestoreL(class CMsvStore &)
	?SetCharacterSet@CMsvBodyText@@QAEXI@Z @ 391 NONAME ; void CMsvBodyText::SetCharacterSet(unsigned int)
	?SetDefaultCharacterSet@CMsvBodyText@@QAEXI@Z @ 392 NONAME ; void CMsvBodyText::SetDefaultCharacterSet(unsigned int)
	?StoreL@CMsvBodyText@@QAEXAAVCMsvStore@@@Z @ 393 NONAME ; void CMsvBodyText::StoreL(class CMsvStore &)
	?StoreL@CMsvBodyText@@QAEXAAVCMsvStore@@ABVCBufBase@@@Z @ 394 NONAME ; public: void __thiscall CMsvBodyText::StoreL(class CMsvStore &,class CBufBase const &)
	?AddPathAndExtensionToResFileL@MsvUtils@@SAXAAV?$TBuf@$0BAA@@@@Z @ 395 NONAME ; public: static void __cdecl MsvUtils::AddPathAndExtensionToResFileL(class TBuf<256> &)
	?PendingConditions@TMsvEntry@@QBEHXZ @ 396 NONAME ; int TMsvEntry::PendingConditions(void) const
	?SetPendingConditions@TMsvEntry@@QAEXH@Z @ 397 NONAME ; void TMsvEntry::SetPendingConditions(int)
	?AddEntryNoCommit@CMsvServerIndex@@QAEHAAVTMsvEntry@@H@Z @ 398 NONAME ; int CMsvServerIndex::AddEntryNoCommit(class TMsvEntry &, int)
	?ChangeEntryBulk@CMsvServerEntry@@QAEHABVTMsvEntry@@@Z @ 399 NONAME ; int CMsvServerEntry::ChangeEntryBulk(class TMsvEntry const &)
	?ChangeEntryNoCommit@CMsvServerIndex@@QAEHABVTMsvEntry@@@Z @ 400 NONAME ; int CMsvServerIndex::ChangeEntryNoCommit(class TMsvEntry const &)
	?CommitNonCommitedEntries@CMsvServerIndex@@QAEXXZ @ 401 NONAME ; void CMsvServerIndex::CommitNonCommitedEntries(void)
	?CompleteBulk@CMsvServerEntry@@QAEXXZ @ 402 NONAME ; void CMsvServerEntry::CompleteBulk(void)
	?CreateEntryBulk@CMsvServerEntry@@QAEHAAVTMsvEntry@@@Z @ 403 NONAME ; int CMsvServerEntry::CreateEntryBulk(class TMsvEntry &)
	?DoChangeEntry@CMsvServerEntry@@AAEHABVTMsvEntry@@H@Z @ 404 NONAME ; int CMsvServerEntry::DoChangeEntry(class TMsvEntry const &, int)
	?DoCreateEntry@CMsvServerEntry@@AAEHAAVTMsvEntry@@H@Z @ 405 NONAME ; int CMsvServerEntry::DoCreateEntry(class TMsvEntry &, int)

