EXPORTS
	_ZN16TSuplTerminalQop17SetMaxLocationAgeEi @ 1 NONAME
	_ZN16TSuplTerminalQop19SetVerticalAccuracyEf @ 2 NONAME
	_ZN16TSuplTerminalQop21SetHorizontalAccuracyEf @ 3 NONAME
	_ZN16TSuplTerminalQop3SetEffii @ 4 NONAME
	_ZN16TSuplTerminalQop8SetDelayEi @ 5 NONAME
	_ZN16TSuplTerminalQopC1Ev @ 6 NONAME
	_ZN16TSuplTerminalQopC2Ev @ 7 NONAME
	_ZN19CSuplTerminalParams3SetERK7TDesC16S2_iiiix @ 8 NONAME
	_ZN19CSuplTerminalParams4NewLEv @ 9 NONAME
	_ZN19CSuplTerminalParams5NewLCEv @ 10 NONAME
	_ZN19CSuplTerminalParamsD0Ev @ 11 NONAME
	_ZN19CSuplTerminalParamsD1Ev @ 12 NONAME
	_ZN19CSuplTerminalParamsD2Ev @ 13 NONAME
	_ZN19RSuplTerminalServer5CloseEv @ 14 NONAME
	_ZN19RSuplTerminalServer7ConnectER14TRequestStatus @ 15 NONAME
	_ZN19RSuplTerminalServer7ConnectEv @ 16 NONAME
	_ZN19RSuplTerminalServerC1Ev @ 17 NONAME
	_ZN19RSuplTerminalServerC2Ev @ 18 NONAME
	_ZN20TSuplTriggerFireInfo3SetERK13TPositionInfo @ 19 NONAME
	_ZN20TSuplTriggerFireInfoC1Ev @ 20 NONAME
	_ZN20TSuplTriggerFireInfoC2Ev @ 21 NONAME
	_ZN22CSuplSubSessnPtrHolder10ConstructLEii @ 22 NONAME
	_ZN22CSuplSubSessnPtrHolder3PtrEi @ 23 NONAME
	_ZN22CSuplSubSessnPtrHolder4NewLEii @ 24 NONAME
	_ZN22CSuplSubSessnPtrHolder4PtrCEi @ 25 NONAME
	_ZN22CSuplSubSessnPtrHolderD0Ev @ 26 NONAME
	_ZN22CSuplSubSessnPtrHolderD1Ev @ 27 NONAME
	_ZN22CSuplSubSessnPtrHolderD2Ev @ 28 NONAME
	_ZN23RSuplTerminalSubSession10ConstructLEv @ 29 NONAME
	_ZN23RSuplTerminalSubSession10GetSlpListER13RPointerArrayI19CSuplTerminalParamsE @ 30 NONAME
	_ZN23RSuplTerminalSubSession10RunSessionER14TRequestStatusR16TSuplTerminalQopRK7TDesC16iiii @ 31 NONAME
	_ZN23RSuplTerminalSubSession10RunSessionER14TRequestStatusR16TSuplTerminalQopiii @ 32 NONAME
	_ZN23RSuplTerminalSubSession10RunSessionER14TRequestStatusRK7TDesC16iiii @ 33 NONAME
	_ZN23RSuplTerminalSubSession10RunSessionER14TRequestStatusiii @ 34 NONAME
	_ZN23RSuplTerminalSubSession10RunSessionER16TSuplTerminalQopRK7TDesC16iiii @ 35 NONAME
	_ZN23RSuplTerminalSubSession10RunSessionER16TSuplTerminalQopiii @ 36 NONAME
	_ZN23RSuplTerminalSubSession10RunSessionERK7TDesC16iiii @ 37 NONAME
	_ZN23RSuplTerminalSubSession10RunSessionEiii @ 38 NONAME
	_ZN23RSuplTerminalSubSession11GetPositionER17TPositionInfoBase @ 39 NONAME
	_ZN23RSuplTerminalSubSession16CancelRunSessionEv @ 40 NONAME
	_ZN23RSuplTerminalSubSession16GetServerAddressER6TDes16 @ 41 NONAME
	_ZN23RSuplTerminalSubSession17ExtendedInterfaceEiPvS0_ @ 42 NONAME
	_ZN23RSuplTerminalSubSession18NotifyTriggerFiredER14TRequestStatusR20TSuplTriggerFireInfo @ 43 NONAME
	_ZN23RSuplTerminalSubSession22StopSuplTriggerSessionEv @ 44 NONAME
	_ZN23RSuplTerminalSubSession23StartSuplTriggerSessionER14TRequestStatusR28TSuplTerminalPeriodicTriggerRK7TDesC16iii @ 45 NONAME
	_ZN23RSuplTerminalSubSession23StartSuplTriggerSessionER14TRequestStatusR28TSuplTerminalPeriodicTriggerii @ 46 NONAME
	_ZN23RSuplTerminalSubSession4OpenER19RSuplTerminalServerNS_16TSuplServiceTypeE @ 47 NONAME
	_ZN23RSuplTerminalSubSession5CloseEv @ 48 NONAME
	_ZN23RSuplTerminalSubSession8DestructEv @ 49 NONAME
	_ZN23RSuplTerminalSubSessionC1Ev @ 50 NONAME
	_ZN23RSuplTerminalSubSessionC2Ev @ 51 NONAME
	_ZN28TSuplTerminalPeriodicTrigger3SetERKjS1_S1_ @ 52 NONAME
	_ZN28TSuplTerminalPeriodicTriggerC1Ev @ 53 NONAME
	_ZN28TSuplTerminalPeriodicTriggerC2Ev @ 54 NONAME
	_ZNK16TSuplTerminalQop17GetMaxLocationAgeERi @ 55 NONAME
	_ZNK16TSuplTerminalQop19GetVerticalAccuracyERf @ 56 NONAME
	_ZNK16TSuplTerminalQop21GetHorizontalAccuracyERf @ 57 NONAME
	_ZNK16TSuplTerminalQop3GetERfS0_RiS1_ @ 58 NONAME
	_ZNK16TSuplTerminalQop8GetDelayERi @ 59 NONAME
	_ZNK19CSuplTerminalParams3GetERx6TPtr16S1_RiS2_S2_S2_ @ 60 NONAME
	_ZNK19RSuplTerminalServer7VersionEv @ 61 NONAME
	_ZNK20TSuplTriggerFireInfo3GetER13TPositionInfo @ 62 NONAME
	_ZNK28TSuplTerminalPeriodicTrigger3GetERjS0_S0_ @ 63 NONAME
	_ZTI19CSuplTerminalParams @ 64 NONAME
	_ZTI22CSuplSubSessnPtrHolder @ 65 NONAME
	_ZTI23RSuplTerminalSubSession @ 66 NONAME
	_ZTV19CSuplTerminalParams @ 67 NONAME
	_ZTV22CSuplSubSessnPtrHolder @ 68 NONAME
	_ZTV23RSuplTerminalSubSession @ 69 NONAME
	_ZN21RSuplTerminalInternal24CancelLocationConversionEv @ 70 NONAME
	_ZN21RSuplTerminalInternal28ConvertAreaInfoToCoordinatesER14TRequestStatusR12TGeoCellInfo @ 71 NONAME
	_ZN21RSuplTerminalInternalC1Ev @ 72 NONAME
	_ZN21RSuplTerminalInternalC2Ev @ 73 NONAME

