EXPORTS
	??1CProxyInfoProvider@@UAE@XZ @ 1 NONAME ; public: virtual __thiscall CProxyInfoProvider::~CProxyInfoProvider(void)
	??1CWspCOSession@@UAE@XZ @ 2 NONAME ; public: virtual __thiscall CWspCOSession::~CWspCOSession(void)
	??1CWspCapabilityInfo@@UAE@XZ @ 3 NONAME ; public: virtual __thiscall CWspCapabilityInfo::~CWspCapabilityInfo(void)
	??1CWspTransaction@@UAE@XZ @ 4 NONAME ; public: virtual __thiscall CWspTransaction::~CWspTransaction(void)
	?Abort@CWspTransaction@@QAEHH@Z @ 5 NONAME ; public: int __thiscall CWspTransaction::Abort(int)
	?Acknowledge@CWspTransaction@@QAEHABVTDesC8@@@Z @ 6 NONAME ; public: int __thiscall CWspTransaction::Acknowledge(class TDesC8 const &)
	?CancelGetEvent@CWspCOSession@@QAEXXZ @ 7 NONAME ; public: void __thiscall CWspCOSession::CancelGetEvent(void)
	?ConnectL@CWspCOSession@@QAEXABVTDesC8@@AAVMWspCapabilityViewer@@@Z @ 8 NONAME ; public: void __thiscall CWspCOSession::ConnectL(class TDesC8 const &,class MWspCapabilityViewer &)
	?Disconnect@CWspCOSession@@QAEXXZ @ 9 NONAME ; public: void __thiscall CWspCOSession::Disconnect(void)
	?GetData@CWspTransaction@@QAEHAAVTPtr8@@W4TWspTransactionDataType@@PAH@Z @ 10 NONAME ; public: int __thiscall CWspTransaction::GetData(class TPtr8 &,enum TWspTransactionDataType,int *)
	?GetEvent@CWspCOSession@@QAEXAAW4TWspEvent@@AAPAVCWspTransaction@@AAVTRequestStatus@@@Z @ 11 NONAME ; public: void __thiscall CWspCOSession::GetEvent(enum TWspEvent &,class CWspTransaction * &,class TRequestStatus &)
	?GetSessionData@CWspCOSession@@QAEHAAVTPtr8@@W4TWspSessionDataType@@@Z @ 12 NONAME ; public: int __thiscall CWspCOSession::GetSessionData(class TPtr8 &,enum TWspSessionDataType)
	?GetSessionState@CWspCOSession@@QAEXAAW4TWspSessionState@Wap@@@Z @ 13 NONAME ; public: void __thiscall CWspCOSession::GetSessionState(enum Wap::TWspSessionState &)
	?GetState@CWspTransaction@@QAEXAAW4TWspMethodState@Wap@@@Z @ 14 NONAME ; public: void __thiscall CWspTransaction::GetState(enum Wap::TWspMethodState &)
	?Id@CWspTransaction@@QAEXAAH@Z @ 15 NONAME ; public: void __thiscall CWspTransaction::Id(int &)
	?NewL@CProxyInfoProvider@@SAPAV1@VRStringPool@@@Z @ 16 NONAME ; public: static class CProxyInfoProvider * __cdecl CProxyInfoProvider::NewL(class RStringPool)
	?NewL@CWspCOSession@@SAPAV1@XZ @ 17 NONAME ; public: static class CWspCOSession * __cdecl CWspCOSession::NewL(void)
	?NewL@CWspCapabilityInfo@@SAPAV1@XZ @ 18 NONAME ; public: static class CWspCapabilityInfo * __cdecl CWspCapabilityInfo::NewL(void)
	?NewL@CWspTransaction@@SAPAV1@XZ @ 19 NONAME ; public: static class CWspTransaction * __cdecl CWspTransaction::NewL(void)
	?OpenL@CWspTransaction@@QAEXPAVMWspCOMethodInvoker@@VRStringF@@ABVTUriC8@@ABVTDesC8@@3HPAVMEventCallback@@H@Z @ 20 NONAME ; public: void __thiscall CWspTransaction::OpenL(class MWspCOMethodInvoker *,class RStringF,class TUriC8 const &,class TDesC8 const &,class TDesC8 const &,int,class MEventCallback *,int)
	?OpenTransaction@CWspCOSession@@QAEHPAVCWspTransaction@@W4TWspMethod@@ABVTUriC8@@ABVTDesC8@@3H@Z @ 21 NONAME ; public: int __thiscall CWspCOSession::OpenTransaction(class CWspTransaction *,enum TWspMethod,class TUriC8 const &,class TDesC8 const &,class TDesC8 const &,int)
	?Release@CWspTransaction@@QAEHXZ @ 22 NONAME ; public: int __thiscall CWspTransaction::Release(void)
	?SetBearer@CProxyInfoProvider@@QAEXW4TWspBearer@Wap@@@Z @ 23 NONAME ; public: void __thiscall CProxyInfoProvider::SetBearer(enum Wap::TWspBearer)
	?SetLocalPort@CProxyInfoProvider@@QAEXG@Z @ 24 NONAME ; public: void __thiscall CProxyInfoProvider::SetLocalPort(unsigned short)
	?SetProxyAddressL@CProxyInfoProvider@@QAEXABVTDesC8@@@Z @ 25 NONAME ; public: void __thiscall CProxyInfoProvider::SetProxyAddressL(class TDesC8 const &)
	?SetProxyInfoL@CWspCOSession@@QAEXPAVCProxyInfoProvider@@@Z @ 26 NONAME ; public: void __thiscall CWspCOSession::SetProxyInfoL(class CProxyInfoProvider *)
	?SetRemotePort@CProxyInfoProvider@@QAEXG@Z @ 27 NONAME ; public: void __thiscall CProxyInfoProvider::SetRemotePort(unsigned short)
	?SetSecureConnection@CProxyInfoProvider@@QAEXH@Z @ 28 NONAME ; public: void __thiscall CProxyInfoProvider::SetSecureConnection(int)
	?SetServiceCentreNumberL@CProxyInfoProvider@@QAEXABVTDesC8@@@Z @ 29 NONAME ; public: void __thiscall CProxyInfoProvider::SetServiceCentreNumberL(class TDesC8 const &)
	?SetWspSessionService@CProxyInfoProvider@@QAEXW4TWspSession@Wap@@@Z @ 30 NONAME ; public: void __thiscall CProxyInfoProvider::SetWspSessionService(enum Wap::TWspSession)
	?SetWtlsCipherSuitesL@CWspCOSession@@QAEXAAV?$RArray@VTWtlsCipherSuite@@@@@Z @ 31 NONAME ; public: void __thiscall CWspCOSession::SetWtlsCipherSuitesL(class RArray<class TWtlsCipherSuite> &)
	?SetWtlsKeyExchangeSuitesL@CWspCOSession@@QAEXAAV?$RArray@VTWtlsKeyExchangeSuite@@@@@Z @ 32 NONAME ; public: void __thiscall CWspCOSession::SetWtlsKeyExchangeSuitesL(class RArray<class TWtlsKeyExchangeSuite> &)
	?SetWtlsKeyRefresRateL@CWspCOSession@@QAEXABVTDesC8@@@Z @ 33 NONAME ; public: void __thiscall CWspCOSession::SetWtlsKeyRefresRateL(class TDesC8 const &)
	?SetWtlsRecordLengthUsageL@CWspCOSession@@QAEXH@Z @ 34 NONAME ; public: void __thiscall CWspCOSession::SetWtlsRecordLengthUsageL(int)
	?SetWtlsSequenceNumberModeL@CWspCOSession@@QAEXH@Z @ 35 NONAME ; public: void __thiscall CWspCOSession::SetWtlsSequenceNumberModeL(int)
	?SetWtlsSharedSecretL@CWspCOSession@@QAEXABVTDesC8@@@Z @ 36 NONAME ; public: void __thiscall CWspCOSession::SetWtlsSharedSecretL(class TDesC8 const &)
	?StringPool@CWspCOSession@@QAE?AVRStringPool@@XZ @ 37 NONAME ; public: class RStringPool  __thiscall CWspCOSession::StringPool(void)

