EXPORTS
	_ZN12CPresenceXDM11DeleteRuleLERK7TDesC16 @ 1 NONAME
	_ZN12CPresenceXDM11IsRuleExistERK7TDesC16 @ 2 NONAME
	_ZN12CPresenceXDM12GetAllRulesLER12CDesC16Array @ 3 NONAME
	_ZN12CPresenceXDM13CancelUpdateLEv @ 4 NONAME
	_ZN12CPresenceXDM14CreateNewRuleLER6TDes16 @ 5 NONAME
	_ZN12CPresenceXDM14DeleteAllRulesEv @ 6 NONAME
	_ZN12CPresenceXDM15UpdateToServerLEP23MRLSPresXDMAsyncHandler @ 7 NONAME
	_ZN12CPresenceXDM17DeleteEmptyRulesLEv @ 8 NONAME
	_ZN12CPresenceXDM20UpdateAllFromServerLEP23MRLSPresXDMAsyncHandler @ 9 NONAME
	_ZN12CPresenceXDM4NewLEi @ 10 NONAME
	_ZN12CPresenceXDM5NewLCEi @ 11 NONAME
	_ZN13TPresCondMisc14AddExternListLERK7TDesC16S2_ @ 12 NONAME
	_ZN13TPresCondMisc17AddOtherIdentityLERK7TDesC16 @ 13 NONAME
	_ZN13TPresCondMisc17GetExternalListsLERK7TDesC16R12CDesC16Array @ 14 NONAME
	_ZN13TPresCondMisc18IsExternListExistLERK7TDesC16S2_ @ 15 NONAME
	_ZN13TPresCondMisc19DeleteExternalListLERK7TDesC16S2_ @ 16 NONAME
	_ZN13TPresCondMisc20AddAnonymousRequestLERK7TDesC16 @ 17 NONAME
	_ZN13TPresCondMisc20DeleteExternalListsLERK7TDesC16RK12MDesC16Array @ 18 NONAME
	_ZN13TPresCondMisc20RemoveOtherIdentityLERK7TDesC16 @ 19 NONAME
	_ZN13TPresCondMisc21IsOtherIdentityExistLERK7TDesC16 @ 20 NONAME
	_ZN13TPresCondMisc23DeleteAllExternalListsLERK7TDesC16 @ 21 NONAME
	_ZN13TPresCondMisc23RemoveAnonymousRequestLERK7TDesC16 @ 22 NONAME
	_ZN13TPresCondMisc24IsAnonymousRequestExistLERK7TDesC16 @ 23 NONAME
	_ZN13TPresCondMisc4InitEP12CPresenceXDM @ 24 NONAME
	_ZN13TPresCondMiscC1Ev @ 25 NONAME
	_ZN13TPresCondMiscC2Ev @ 26 NONAME
	_ZN15TPresCondSphere10GetSphereLERK7TDesC16R7TPtrC16 @ 27 NONAME
	_ZN15TPresCondSphere13DeleteSphereLERK7TDesC16 @ 28 NONAME
	_ZN15TPresCondSphere19AddOrReplaceSphereLERK7TDesC16S2_ @ 29 NONAME
	_ZN15TPresCondSphere4InitEP12CPresenceXDM @ 30 NONAME
	_ZN15TPresCondSphereC1Ev @ 31 NONAME
	_ZN15TPresCondSphereC2Ev @ 32 NONAME
	_ZN17TPresCondValidity12AddValidityLERK7TDesC1611TTimePeriod @ 33 NONAME
	_ZN17TPresCondValidity12GetValidityLERK7TDesC16R6RArrayI11TTimePeriodE @ 34 NONAME
	_ZN17TPresCondValidity12IsTimeValidLERK7TDesC1611TTimePeriod @ 35 NONAME
	_ZN17TPresCondValidity18DeleteAllValidityLERK7TDesC16 @ 36 NONAME
	_ZN17TPresCondValidity4InitEP12CPresenceXDM @ 37 NONAME
	_ZN17TPresCondValidityC1Ev @ 38 NONAME
	_ZN17TPresCondValidityC2Ev @ 39 NONAME
	_ZN18TPresenceActionXDM10GetActionLERK7TDesC16R6TDes16 @ 40 NONAME
	_ZN18TPresenceActionXDM13RemoveActionLERK7TDesC16 @ 41 NONAME
	_ZN18TPresenceActionXDM19AddOrReplaceActionLERK7TDesC16S2_ @ 42 NONAME
	_ZN18TPresenceActionXDM4InitEP12CPresenceXDM @ 43 NONAME
	_ZN18TPresenceActionXDMC1Ev @ 44 NONAME
	_ZN18TPresenceActionXDMC2Ev @ 45 NONAME
	_ZN20TPresCondIdentityOne12AddIdentityLERK7TDesC16S2_ @ 46 NONAME
	_ZN20TPresCondIdentityOne14AddIdentitiesLERK7TDesC16RK12MDesC16Array @ 47 NONAME
	_ZN20TPresCondIdentityOne14GetIdentitiesLERK7TDesC16R12CDesC16Array @ 48 NONAME
	_ZN20TPresCondIdentityOne15DeleteIdentityLERK7TDesC16S2_ @ 49 NONAME
	_ZN20TPresCondIdentityOne16IsIdentityExistLERK7TDesC16S2_ @ 50 NONAME
	_ZN20TPresCondIdentityOne17DeleteIdentitiesLERK7TDesC16RK12MDesC16Array @ 51 NONAME
	_ZN20TPresCondIdentityOne20DeleteAllIdentitiesLERK7TDesC16 @ 52 NONAME
	_ZN20TPresCondIdentityOne4InitEP12CPresenceXDM @ 53 NONAME
	_ZN20TPresCondIdentityOneC1Ev @ 54 NONAME
	_ZN20TPresCondIdentityOneC2Ev @ 55 NONAME
	_ZN21TPresCondIdentityMany13IsManyExistsLERK7TDesC16S2_ @ 56 NONAME
	_ZN21TPresCondIdentityMany16AddManyIdentityLERK7TDesC16S2_ @ 57 NONAME
	_ZN21TPresCondIdentityMany19RemoveManyIdentityLERK7TDesC16S2_ @ 58 NONAME
	_ZN21TPresCondIdentityMany24AddIdentityInManyExceptLERK7TDesC16S2_S2_ @ 59 NONAME
	_ZN21TPresCondIdentityMany24GetManyIdentityElementsLERK7TDesC16R12CDesC16Array @ 60 NONAME
	_ZN21TPresCondIdentityMany26AddIdentitiesInManyExceptLERK7TDesC16RK12CDesC16ArrayS2_ @ 61 NONAME
	_ZN21TPresCondIdentityMany28GetIdentitiesFromManyExceptLERK7TDesC16R12CDesC16ArrayS2_ @ 62 NONAME
	_ZN21TPresCondIdentityMany29IsIdentityExistsInManyExceptLERK7TDesC16S2_S2_ @ 63 NONAME
	_ZN21TPresCondIdentityMany29RemoveIdentityFromManyExceptLERK7TDesC16S2_S2_ @ 64 NONAME
	_ZN21TPresCondIdentityMany34DeleteAllIdentitiesFromManyExceptLERK7TDesC16S2_ @ 65 NONAME
	_ZN21TPresCondIdentityMany4InitEP12CPresenceXDM @ 66 NONAME
	_ZN21TPresCondIdentityManyC1Ev @ 67 NONAME
	_ZN21TPresCondIdentityManyC2Ev @ 68 NONAME
	_ZN21TPresenceTransformXDM16AddTransComplexLERK7TDesC16S2_RK6RArrayI15TTransDataCompoE @ 69 NONAME
	_ZN21TPresenceTransformXDM16GetTransComplexLERK7TDesC16S2_R6RArrayI15TTransDataCompoE @ 70 NONAME
	_ZN21TPresenceTransformXDM16RemoveTransformLERK7TDesC16S2_ @ 71 NONAME
	_ZN21TPresenceTransformXDM17IsTransformExistLERK7TDesC16S2_ @ 72 NONAME
	_ZN21TPresenceTransformXDM18GetTransKnownBoolLERK7TDesC16S2_Ri @ 73 NONAME
	_ZN21TPresenceTransformXDM20GetTransUnknownBoolLERK7TDesC16S2_Ri @ 74 NONAME
	_ZN21TPresenceTransformXDM23AddOrRepTransKnownBoolLERK7TDesC16S2_i @ 75 NONAME
	_ZN21TPresenceTransformXDM25AddOrRepTransUnknownBoolLERK7TDesC16S2_i @ 76 NONAME
	_ZN21TPresenceTransformXDM31AddOrRepProvideAllTransComplexLERK7TDesC16S2_ @ 77 NONAME
	_ZN21TPresenceTransformXDM4InitEP12CPresenceXDM @ 78 NONAME
	_ZN21TPresenceTransformXDMC1Ev @ 79 NONAME
	_ZN21TPresenceTransformXDMC2Ev @ 80 NONAME
	_ZN7CRLSXDM11AddElementLERK7TDesC16S2_S2_ @ 81 NONAME
	_ZN7CRLSXDM11RenameListLERK7TDesC16S2_ @ 82 NONAME
	_ZN7CRLSXDM12GetElementsLERK7TDesC16R12CDesC16Array @ 83 NONAME
	_ZN7CRLSXDM13CancelUpdateLEv @ 84 NONAME
	_ZN7CRLSXDM13SwitchToListLERK7TDesC16 @ 85 NONAME
	_ZN7CRLSXDM14AddServiceURILERK7TDesC16 @ 86 NONAME
	_ZN7CRLSXDM14GetDisplayNameERK7TDesC16S2_R6TPtrC8 @ 87 NONAME
	_ZN7CRLSXDM14IsElementExistERK7TDesC16S2_ @ 88 NONAME
	_ZN7CRLSXDM14RemoveElementLERK7TDesC16S2_ @ 89 NONAME
	_ZN7CRLSXDM15GetCurrentPathLER12CDesC16Array @ 90 NONAME
	_ZN7CRLSXDM15GetServiceUrisLER12CDesC16Array @ 91 NONAME
	_ZN7CRLSXDM15SetCurrentpathLERK12MDesC16Array @ 92 NONAME
	_ZN7CRLSXDM15UpdateToServerLEP23MRLSPresXDMAsyncHandler @ 93 NONAME
	_ZN7CRLSXDM17IsExistServiceURIERK7TDesC16 @ 94 NONAME
	_ZN7CRLSXDM17RemoveServiceURILERK7TDesC16 @ 95 NONAME
	_ZN7CRLSXDM17SwitchOutFromListEv @ 96 NONAME
	_ZN7CRLSXDM18UpdateDisplayNameLERK7TDesC16S2_S2_ @ 97 NONAME
	_ZN7CRLSXDM19DeleteAllEmptyListsEP23MRLSPresXDMAsyncHandler @ 98 NONAME
	_ZN7CRLSXDM19SwitchToServiceURILERK7TDesC16 @ 99 NONAME
	_ZN7CRLSXDM20NegotiatedServiceUriEv @ 100 NONAME
	_ZN7CRLSXDM20UpdateAllFromServerLEP23MRLSPresXDMAsyncHandler @ 101 NONAME
	_ZN7CRLSXDM26DeleteAllEmptyServiceUrisLEv @ 102 NONAME
	_ZN7CRLSXDM4NewLEi @ 103 NONAME
	_ZN7CRLSXDM5NewLCEi @ 104 NONAME
	_ZN7CRLSXDM9DeleteAllEv @ 105 NONAME
	_ZTI12CPresenceXDM @ 106 NONAME
	_ZTI7CRLSXDM @ 107 NONAME
	_ZTV12CPresenceXDM @ 108 NONAME
	_ZTV7CRLSXDM @ 109 NONAME

