EXPORTS
	_ZN16PsUiLocalisation11qt_metacallEN11QMetaObject4CallEiPPv @ 1 NONAME
	_ZN16PsUiLocalisation11qt_metacastEPKc @ 2 NONAME
	_ZN16PsUiLocalisation16staticMetaObjectE @ 3 NONAME DATA 16
	_ZN16PsUiLocalisation17installTranslatorENS_17TranslationFileIdE @ 4 NONAME
	_ZN16PsUiLocalisation17removeTranslatorsEv @ 5 NONAME
	_ZN16PsUiLocalisation19getStaticMetaObjectEv @ 6 NONAME
	_ZN16PsUiLocalisationC1EP7QObject @ 7 NONAME
	_ZN16PsUiLocalisationC2EP7QObject @ 8 NONAME
	_ZN16PsUiLocalisationD0Ev @ 9 NONAME
	_ZN16PsUiLocalisationD1Ev @ 10 NONAME
	_ZN16PsUiLocalisationD2Ev @ 11 NONAME
	_ZN19PsUiSettingsWrapper11qt_metacallEN11QMetaObject4CallEiPPv @ 12 NONAME
	_ZN19PsUiSettingsWrapper11qt_metacastEPKc @ 13 NONAME
	_ZN19PsUiSettingsWrapper16staticMetaObjectE @ 14 NONAME DATA 16
	_ZN19PsUiSettingsWrapper19getStaticMetaObjectEv @ 15 NONAME
	_ZN19PsUiSettingsWrapper51isFeatureCallWaitingDistiquishNotProvisionedEnabledEv @ 16 NONAME
	_ZN19PsUiSettingsWrapperC1EP7QObject @ 17 NONAME
	_ZN19PsUiSettingsWrapperC2EP7QObject @ 18 NONAME
	_ZN19PsUiSettingsWrapperD0Ev @ 19 NONAME
	_ZN19PsUiSettingsWrapperD1Ev @ 20 NONAME
	_ZN19PsUiSettingsWrapperD2Ev @ 21 NONAME
	_ZN21PsUiDivertNoteHandler11qt_metacallEN11QMetaObject4CallEiPPv @ 22 NONAME
	_ZN21PsUiDivertNoteHandler11qt_metacastEPKc @ 23 NONAME
	_ZN21PsUiDivertNoteHandler16staticMetaObjectE @ 24 NONAME DATA 16
	_ZN21PsUiDivertNoteHandler18handleCFRequestingEbb @ 25 NONAME
	_ZN21PsUiDivertNoteHandler19getStaticMetaObjectEv @ 26 NONAME
	_ZN21PsUiDivertNoteHandler20handleDivertingErrorEi @ 27 NONAME
	_ZN21PsUiDivertNoteHandler21handleDivertingStatusER5QListIP21PSCallDivertingStatusEb @ 28 NONAME
	_ZN21PsUiDivertNoteHandler22handleDivertingChangedERK22PSCallDivertingCommandb @ 29 NONAME
	_ZN21PsUiDivertNoteHandlerC1ER24PSetCallDivertingWrapper @ 30 NONAME
	_ZN21PsUiDivertNoteHandlerC2ER24PSetCallDivertingWrapper @ 31 NONAME
	_ZN21PsUiDivertNoteHandlerD0Ev @ 32 NONAME
	_ZN21PsUiDivertNoteHandlerD1Ev @ 33 NONAME
	_ZN21PsUiDivertNoteHandlerD2Ev @ 34 NONAME
	_ZN22PsUiWaitingNoteHandler11qt_metacallEN11QMetaObject4CallEiPPv @ 35 NONAME
	_ZN22PsUiWaitingNoteHandler11qt_metacastEPKc @ 36 NONAME
	_ZN22PsUiWaitingNoteHandler16staticMetaObjectE @ 37 NONAME DATA 16
	_ZN22PsUiWaitingNoteHandler19getStaticMetaObjectEv @ 38 NONAME
	_ZN22PsUiWaitingNoteHandler22handleCallWaitingErrorEi @ 39 NONAME
	_ZN22PsUiWaitingNoteHandler24handleCallWaitingChangedEN22PSetCallWaitingWrapper20PsCallWaitingCommandEi @ 40 NONAME
	_ZN22PsUiWaitingNoteHandler26handleCallWaitingGetStatusEN22PSetCallWaitingWrapper19PsCallWaitingStatusERK5QListIhE @ 41 NONAME
	_ZN22PsUiWaitingNoteHandler27handleCallWaitingRequestingEbb @ 42 NONAME
	_ZN22PsUiWaitingNoteHandlerC1ER22PSetCallWaitingWrapper @ 43 NONAME
	_ZN22PsUiWaitingNoteHandlerC2ER22PSetCallWaitingWrapper @ 44 NONAME
	_ZN22PsUiWaitingNoteHandlerD0Ev @ 45 NONAME
	_ZN22PsUiWaitingNoteHandlerD1Ev @ 46 NONAME
	_ZN22PsUiWaitingNoteHandlerD2Ev @ 47 NONAME
	_ZN9PsUiNotes10cancelNoteEi @ 48 NONAME
	_ZN9PsUiNotes11noteShowingEv @ 49 NONAME
	_ZN9PsUiNotes11qt_metacallEN11QMetaObject4CallEiPPv @ 50 NONAME
	_ZN9PsUiNotes11qt_metacastEPKc @ 51 NONAME
	_ZN9PsUiNotes14showGlobalNoteERiRK7QStringN12HbMessageBox14MessageBoxTypeE @ 52 NONAME
	_ZN9PsUiNotes16staticMetaObjectE @ 53 NONAME DATA 16
	_ZN9PsUiNotes19getStaticMetaObjectEv @ 54 NONAME
	_ZN9PsUiNotes19passwordTextChangedEv @ 55 NONAME
	_ZN9PsUiNotes19showGlobalErrorNoteERii @ 56 NONAME
	_ZN9PsUiNotes20progressNoteCanceledEv @ 57 NONAME
	_ZN9PsUiNotes21launchNextNoteIfReadyEv @ 58 NONAME
	_ZN9PsUiNotes21showCallDivertDetailsERK5QListIP21PSCallDivertingStatusE @ 59 NONAME
	_ZN9PsUiNotes22activeNoteAboutToCloseEv @ 60 NONAME
	_ZN9PsUiNotes22passwordQueryCompletedE7QStringb @ 61 NONAME
	_ZN9PsUiNotes22showGlobalProgressNoteERiRK7QString @ 62 NONAME
	_ZN9PsUiNotes22showNotificationDialogERK7QString @ 63 NONAME
	_ZN9PsUiNotes23showPasswordQueryDialogERK7QStringRK10QValidatori @ 64 NONAME
	_ZN9PsUiNotes26handleProgressNoteCanceledEv @ 65 NONAME
	_ZN9PsUiNotes27finishedPasswordQueryDialogEP8HbAction @ 66 NONAME
	_ZN9PsUiNotes27formatActiveDivertsNoteTextERK5QListIP21PSCallDivertingStatusER7QString @ 67 NONAME
	_ZN9PsUiNotes28showGlobalNotificationDialogERK7QString @ 68 NONAME
	_ZN9PsUiNotes8instanceEv @ 69 NONAME
	_ZN9PsUiNotesC1Ev @ 70 NONAME
	_ZN9PsUiNotesC2Ev @ 71 NONAME
	_ZN9PsUiNotesD0Ev @ 72 NONAME
	_ZN9PsUiNotesD1Ev @ 73 NONAME
	_ZN9PsUiNotesD2Ev @ 74 NONAME
	_ZN9PsUiUtils11qt_metacallEN11QMetaObject4CallEiPPv @ 75 NONAME
	_ZN9PsUiUtils11qt_metacastEPKc @ 76 NONAME
	_ZN9PsUiUtils16staticMetaObjectE @ 77 NONAME DATA 16
	_ZN9PsUiUtils19getStaticMetaObjectEv @ 78 NONAME
	_ZN9PsUiUtils20errorCodeTextMappingEiR7QString @ 79 NONAME
	_ZNK16PsUiLocalisation10metaObjectEv @ 80 NONAME
	_ZNK19PsUiSettingsWrapper10metaObjectEv @ 81 NONAME
	_ZNK19PsUiSettingsWrapper14isPhoneOfflineEv @ 82 NONAME
	_ZNK19PsUiSettingsWrapper15readCenrepValueElm @ 83 NONAME
	_ZNK19PsUiSettingsWrapper23numberGroupingSupportedEv @ 84 NONAME
	_ZNK21PsUiDivertNoteHandler10metaObjectEv @ 85 NONAME
	_ZNK22PsUiWaitingNoteHandler10metaObjectEv @ 86 NONAME
	_ZNK9PsUiNotes10metaObjectEv @ 87 NONAME
	_ZNK9PsUiNotes17formatPhoneNumberE7QString @ 88 NONAME
	_ZNK9PsUiUtils10metaObjectEv @ 89 NONAME
	_ZTI16PsUiLocalisation @ 90 NONAME
	_ZTI19PsUiSettingsWrapper @ 91 NONAME
	_ZTI21PsUiDivertNoteHandler @ 92 NONAME
	_ZTI22PsUiWaitingNoteHandler @ 93 NONAME
	_ZTI9PsUiNotes @ 94 NONAME
	_ZTI9PsUiUtils @ 95 NONAME
	_ZTV16PsUiLocalisation @ 96 NONAME
	_ZTV19PsUiSettingsWrapper @ 97 NONAME
	_ZTV21PsUiDivertNoteHandler @ 98 NONAME
	_ZTV22PsUiWaitingNoteHandler @ 99 NONAME
	_ZTV9PsUiNotes @ 100 NONAME
	_ZTV9PsUiUtils @ 101 NONAME

