EXPORTS
	??0RLocationManager@@QAE@XZ @ 1 NONAME ; RLocationManager::RLocationManager(void)
	??0RLocationTrail@@QAE@XZ @ 2 NONAME ; RLocationTrail::RLocationTrail(void)
	??0RTrackLog@@QAE@XZ @ 3 NONAME ; RTrackLog::RTrackLog(void)
	??1RLocationTrail@@QAE@XZ @ 4 NONAME ; RLocationTrail::~RLocationTrail(void)
	?AddObserver@RTrackLog@@QAEHPAVMTrackLogObserver@@@Z @ 5 NONAME ; int RTrackLog::AddObserver(class MTrackLogObserver *)
	?CancelLocationRequest@RLocationTrail@@QAEXXZ @ 6 NONAME ; void RLocationTrail::CancelLocationRequest(void)
	?CancelNotificationRequest@RLocationTrail@@QAEXXZ @ 7 NONAME ; void RLocationTrail::CancelNotificationRequest(void)
	?Close@RLocationManager@@QAEXXZ @ 8 NONAME ; void RLocationManager::Close(void)
	?Close@RTrackLog@@QAEXXZ @ 9 NONAME ; void RTrackLog::Close(void)
	?Connect@RLocationManager@@QAEHXZ @ 10 NONAME ; int RLocationManager::Connect(void)
	?CopyLocationData@RLocationObjectManipulator@@QAEXAAVTDesC16@@AAV?$RPointerArray@VTDesC16@@@@AAVTRequestStatus@@@Z @ 11 NONAME ; void RLocationObjectManipulator::CopyLocationData(class TDesC16 &, class RPointerArray<class TDesC16> &, class TRequestStatus &)
	?CopyLocationData@RLocationObjectManipulator@@QAEXKAAV?$RArray@K@@AAVTRequestStatus@@@Z @ 12 NONAME ; void RLocationObjectManipulator::CopyLocationData(unsigned long, class RArray<unsigned long> &, class TRequestStatus &)
	?CreateLocationObject@RLocationObjectManipulator@@QAEHAAUTLocationData@@K@Z @ 13 NONAME ; int RLocationObjectManipulator::CreateLocationObject(struct TLocationData &, unsigned long)
	?CurrentLocation@RLocationTrail@@QAEXAAVTRequestStatus@@AAUTLocationData@@@Z @ 14 NONAME ; void RLocationTrail::CurrentLocation(class TRequestStatus &, struct TLocationData &)
	?DeleteTrackLog@RTrackLog@@QAEHAAVTDesC16@@@Z @ 15 NONAME ; int RTrackLog::DeleteTrackLog(class TDesC16 &)
	?EditLocationObject@RLocationObjectManipulator@@QAEHKAAUTLocationData@@@Z @ 16 NONAME ABSENT ; int RLocationObjectManipulator::EditLocationObject(unsigned long, struct TLocationData &)
	?GetLocationTrailState@RLocationTrail@@QAEHAAW4TTrailState@1@@Z @ 17 NONAME ; int RLocationTrail::GetLocationTrailState(enum RLocationTrail::TTrailState &)
	?GetStatus@RTrackLog@@QAEHAAHAAVTPositionSatelliteInfo@@@Z @ 18 NONAME ; int RTrackLog::GetStatus(int &, class TPositionSatelliteInfo &)
	?GetTrailCaptureSetting@RLocationTrail@@QAEHAAW4TTrailCaptureSetting@1@@Z @ 19 NONAME ; int RLocationTrail::GetTrailCaptureSetting(enum RLocationTrail::TTrailCaptureSetting &)
	?IsRecording@RTrackLog@@QAEHXZ @ 20 NONAME ; int RTrackLog::IsRecording(void)
	?NotifyLocationTrailStateChange@RLocationTrail@@QAEXAAVTRequestStatus@@@Z @ 21 NONAME ; void RLocationTrail::NotifyLocationTrailStateChange(class TRequestStatus &)
	?RemoveLocationObject@RLocationObjectManipulator@@QAEHK@Z @ 22 NONAME ; int RLocationObjectManipulator::RemoveLocationObject(unsigned long)
	?RemoveObserver@RTrackLog@@QAEHPAVMTrackLogObserver@@@Z @ 23 NONAME ; int RTrackLog::RemoveObserver(class MTrackLogObserver *)
	?RetrieveLocation@RLocationTrail@@QAEHABVTTime@@AAUTLocationData@@AAW4TTrailState@1@@Z @ 24 NONAME ; int RLocationTrail::RetrieveLocation(class TTime const &, struct TLocationData &, enum RLocationTrail::TTrailState &)
	?StartLocationTrail@RLocationTrail@@QAEHW4TTrailCaptureSetting@1@@Z @ 25 NONAME ; int RLocationTrail::StartLocationTrail(enum RLocationTrail::TTrailCaptureSetting)
	?StartTrackLog@RTrackLog@@QAEHXZ @ 26 NONAME ; int RTrackLog::StartTrackLog(void)
	?StopLocationTrail@RLocationTrail@@QAEHXZ @ 27 NONAME ; int RLocationTrail::StopLocationTrail(void)
	?StopTrackLog@RTrackLog@@QAEXXZ @ 28 NONAME ; void RTrackLog::StopTrackLog(void)
	?TrackLogName@RTrackLog@@QAEHAAVTDes16@@@Z @ 29 NONAME ; int RTrackLog::TrackLogName(class TDes16 &)
	?LocationSnapshot@RLocationObjectManipulator@@QAEHK@Z @ 30 NONAME ; int RLocationObjectManipulator::LocationSnapshot(unsigned long)
	?GeoTagStaus@RLocationGeoTagger@@QAEXAAVTRequestStatus@@AAW4TGeoTaggingSatus@@@Z @ 31 NONAME ; void RLocationGeoTagger::GeoTagStaus(class TRequestStatus &, enum TGeoTaggingSatus &)
	?CancelGeoTaggingRequest@RLocationGeoTagger@@QAEXXZ @ 32 NONAME ; void RLocationGeoTagger::CancelGeoTaggingRequest(void)
	?StartGeoTagging@RLocationGeoTagger@@QAEXAAVTRequestStatus@@W4TConnectionOption@@@Z @ 33 NONAME ; void RLocationGeoTagger::StartGeoTagging(class TRequestStatus &, enum TConnectionOption)
	??1RLocationGeoTagger@@QAE@XZ @ 34 NONAME ; RLocationGeoTagger::~RLocationGeoTagger(void)
	??0RLocationGeoTagger@@QAE@XZ @ 35 NONAME ; RLocationGeoTagger::RLocationGeoTagger(void)
	?CancelTagPendingRequest@RLocationGeoTagger@@QAEXXZ @ 36 NONAME ; void RLocationGeoTagger::CancelTagPendingRequest(void)

