EXPORTS
	?AddDataSource@CS60AudioPlayer@@UAEXAAVCS60AudioBaseSource@@@Z @ 1 NONAME ; void CS60AudioPlayer::AddDataSource(class CS60AudioBaseSource &)
	?CustomInterface@CS60AudioPlayer@@UAEPAXVTUid@@@Z @ 2 NONAME ; void * CS60AudioPlayer::CustomInterface(class TUid)
	?FastForward@CS60AudioPlayer@@UAEHAAVTTimeIntervalMicroSeconds@@@Z @ 3 NONAME ; int CS60AudioPlayer::FastForward(class TTimeIntervalMicroSeconds &)
	?GetBalance@CS60AudioPlayer@@UAEHXZ @ 4 NONAME ; int CS60AudioPlayer::GetBalance(void)
	?GetBitRate@CS60AudioPlayer@@UAEIXZ @ 5 NONAME ; unsigned int CS60AudioPlayer::GetBitRate(void)
	?GetDuration@CS60AudioPlayer@@UAE?AVTTimeIntervalMicroSeconds@@XZ @ 6 NONAME ; class TTimeIntervalMicroSeconds CS60AudioPlayer::GetDuration(void)
	?GetMaxVolume@CS60AudioPlayer@@UAEHXZ @ 7 NONAME ; int CS60AudioPlayer::GetMaxVolume(void)
	?GetPlayWindow@CS60AudioPlayer@@UAEXAAVTTimeIntervalMicroSeconds@@0@Z @ 8 NONAME ; void CS60AudioPlayer::GetPlayWindow(class TTimeIntervalMicroSeconds &, class TTimeIntervalMicroSeconds &)
	?GetPosition@CS60AudioPlayer@@UAE?AVTTimeIntervalMicroSeconds@@XZ @ 9 NONAME ; class TTimeIntervalMicroSeconds CS60AudioPlayer::GetPosition(void)
	?GetVolume@CS60AudioPlayer@@UAEHAAH@Z @ 10 NONAME ; int CS60AudioPlayer::GetVolume(int &)
	?IsRandomSeekingSupported@CS60AudioPlayer@@UAEHXZ @ 11 NONAME ; int CS60AudioPlayer::IsRandomSeekingSupported(void)
	?IsSeekingSupported@CS60AudioPlayer@@UAEHXZ @ 12 NONAME ; int CS60AudioPlayer::IsSeekingSupported(void)
	?NewL@CS60AudioPlayer@@SAPAV1@AAVMS60AudioPlayerObserver@@HW4TMdaPriorityPreference@@@Z @ 13 NONAME ; class CS60AudioPlayer * CS60AudioPlayer::NewL(class MS60AudioPlayerObserver &, int, enum TMdaPriorityPreference)
	?Pause@CS60AudioPlayer@@UAEHXZ @ 14 NONAME ; int CS60AudioPlayer::Pause(void)
	?Play@CS60AudioPlayer@@UAEHXZ @ 15 NONAME ; int CS60AudioPlayer::Play(void)
	?ResetPlayWindow@CS60AudioPlayer@@UAEHXZ @ 16 NONAME ; int CS60AudioPlayer::ResetPlayWindow(void)
	?Rewind@CS60AudioPlayer@@UAEHAAVTTimeIntervalMicroSeconds@@@Z @ 17 NONAME ; int CS60AudioPlayer::Rewind(class TTimeIntervalMicroSeconds &)
	?SetBalance@CS60AudioPlayer@@UAEHAAH@Z @ 18 NONAME ; int CS60AudioPlayer::SetBalance(int &)
	?SetPlayWindow@CS60AudioPlayer@@UAEXAAVTTimeIntervalMicroSeconds@@0@Z @ 19 NONAME ; void CS60AudioPlayer::SetPlayWindow(class TTimeIntervalMicroSeconds &, class TTimeIntervalMicroSeconds &)
	?SetPosition@CS60AudioPlayer@@UAEXAAVTTimeIntervalMicroSeconds@@@Z @ 20 NONAME ; void CS60AudioPlayer::SetPosition(class TTimeIntervalMicroSeconds &)
	?SetPriority@CS60AudioPlayer@@UAEHHW4TMdaPriorityPreference@@@Z @ 21 NONAME ; int CS60AudioPlayer::SetPriority(int, enum TMdaPriorityPreference)
	?SetRepeats@CS60AudioPlayer@@UAEXHABVTTimeIntervalMicroSeconds@@@Z @ 22 NONAME ; void CS60AudioPlayer::SetRepeats(int, class TTimeIntervalMicroSeconds const &)
	?SetVolume@CS60AudioPlayer@@UAEHH@Z @ 23 NONAME ; int CS60AudioPlayer::SetVolume(int)
	?Stop@CS60AudioPlayer@@UAEHXZ @ 24 NONAME ; int CS60AudioPlayer::Stop(void)

