EXPORTS
	_Z9LibEntryLR13CTestModuleIf @ 1 NONAME
	_ZTI19COMASuplConsoleView @ 2 NONAME ; #<TI>#
	_ZTI19COMASuplEComHandler @ 3 NONAME ; #<TI>#
	_ZTI19COMASuplMessageInfo @ 4 NONAME ; #<TI>#
	_ZTI19COMASuplSessionTest @ 5 NONAME ; #<TI>#
	_ZTI19COMASuplTestHandler @ 6 NONAME ; #<TI>#
	_ZTI20COMASuplPositionTest @ 7 NONAME ; #<TI>#
	_ZTI21COMASuplUid_ECom_Test @ 8 NONAME ; #<TI>#
	_ZTI22COMASuplConsoleManager @ 9 NONAME ; #<TI>#
	_ZTI23COMASuplGetSuplInfoTest @ 10 NONAME ; #<TI>#
	_ZTI23COMASuplPosTesterLogger @ 11 NONAME ; #<TI>#
	_ZTI25COMASuplMessageFileReader @ 12 NONAME ; #<TI>#
	_ZTI25COMASuplMsgFileReaderTest @ 13 NONAME ; #<TI>#
	_ZTI25COMASuplPosTesterCategory @ 14 NONAME ; #<TI>#
	_ZTI25COMASuplThreadProcessTest @ 15 NONAME ; #<TI>#
	_ZTI26COMASuplGetSuplInfoManager @ 16 NONAME ; #<TI>#
	_ZTI26COMASuplPositionCancelTest @ 17 NONAME ; #<TI>#
	_ZTI27COMASuplMultipleSessionTest @ 18 NONAME ; #<TI>#
	_ZTI28COMASuplCancelInitializeTest @ 19 NONAME ; #<TI>#
	_ZTI28COMASuplPositionVelocityTest @ 20 NONAME ; #<TI>#
	_ZTI29COMASuplGetSuplInfoCancelTest @ 21 NONAME ; #<TI>#
	_ZTI30COMASuplPosHandlerCreationTest @ 22 NONAME ; #<TI>#
	_ZTI30COMASuplPosSessionCreationTest @ 23 NONAME ; #<TI>#
	_ZTI31COMASuplPositionVelocityManager @ 24 NONAME ; #<TI>#
	_ZTV19COMASuplConsoleView @ 25 NONAME ; #<VT>#
	_ZTV19COMASuplEComHandler @ 26 NONAME ; #<VT>#
	_ZTV19COMASuplMessageInfo @ 27 NONAME ; #<VT>#
	_ZTV19COMASuplSessionTest @ 28 NONAME ; #<VT>#
	_ZTV19COMASuplTestHandler @ 29 NONAME ; #<VT>#
	_ZTV20COMASuplPositionTest @ 30 NONAME ; #<VT>#
	_ZTV21COMASuplUid_ECom_Test @ 31 NONAME ; #<VT>#
	_ZTV22COMASuplConsoleManager @ 32 NONAME ; #<VT>#
	_ZTV23COMASuplGetSuplInfoTest @ 33 NONAME ; #<VT>#
	_ZTV23COMASuplPosTesterLogger @ 34 NONAME ; #<VT>#
	_ZTV25COMASuplMessageFileReader @ 35 NONAME ; #<VT>#
	_ZTV25COMASuplMsgFileReaderTest @ 36 NONAME ; #<VT>#
	_ZTV25COMASuplPosTesterCategory @ 37 NONAME ; #<VT>#
	_ZTV25COMASuplThreadProcessTest @ 38 NONAME ; #<VT>#
	_ZTV26COMASuplGetSuplInfoManager @ 39 NONAME ; #<VT>#
	_ZTV26COMASuplPositionCancelTest @ 40 NONAME ; #<VT>#
	_ZTV27COMASuplMultipleSessionTest @ 41 NONAME ; #<VT>#
	_ZTV28COMASuplCancelInitializeTest @ 42 NONAME ; #<VT>#
	_ZTV28COMASuplPositionVelocityTest @ 43 NONAME ; #<VT>#
	_ZTV29COMASuplGetSuplInfoCancelTest @ 44 NONAME ; #<VT>#
	_ZTV30COMASuplPosHandlerCreationTest @ 45 NONAME ; #<VT>#
	_ZTV30COMASuplPosSessionCreationTest @ 46 NONAME ; #<VT>#
	_ZTV31COMASuplPositionVelocityManager @ 47 NONAME ; #<VT>#

