EXPORTS
	??0RCustomerServiceProfileCache@@QAE@XZ @ 1 NONAME ; RCustomerServiceProfileCache::RCustomerServiceProfileCache(void)
	??0RSSSettings@@QAE@XZ @ 2 NONAME ; RSSSettings::RSSSettings(void)
	??1CSSSettingsRefreshContainer@@UAE@XZ @ 3 NONAME ; CSSSettingsRefreshContainer::~CSSSettingsRefreshContainer(void)
	??1RCustomerServiceProfileCache@@QAE@XZ @ 4 NONAME ; RCustomerServiceProfileCache::~RCustomerServiceProfileCache(void)
	?Cancel@RSSSettings@@QAEXW4TSSSettingsSetting@@AAVMSSSettingsObserver@@@Z @ 5 NONAME ; void RSSSettings::Cancel(enum TSSSettingsSetting, class MSSSettingsObserver &)
	?CancelAll@RSSSettings@@QAEXAAVMSSSettingsObserver@@@Z @ 6 NONAME ; void RSSSettings::CancelAll(class MSSSettingsObserver &)
	?ChangedCspTable@RCustomerServiceProfileCache@@QAEHAAVTDes8@@0@Z @ 7 NONAME ; int RCustomerServiceProfileCache::ChangedCspTable(class TDes8 &, class TDes8 &)
	?Close@RCustomerServiceProfileCache@@QAEXXZ @ 8 NONAME ; void RCustomerServiceProfileCache::Close(void)
	?Close@RSSSettings@@QAEXXZ @ 9 NONAME ; void RSSSettings::Close(void)
	?CspCPHSTeleservices@RCustomerServiceProfileCache@@QAEHAAW4TCspCPHSTeleservices@RMobilePhone@@@Z @ 10 NONAME ; int RCustomerServiceProfileCache::CspCPHSTeleservices(enum RMobilePhone::TCspCPHSTeleservices &)
	?CspCPHSValueAddedServices@RCustomerServiceProfileCache@@QAEHAAW4TCspValueAdded@RMobilePhone@@@Z @ 11 NONAME ; int RCustomerServiceProfileCache::CspCPHSValueAddedServices(enum RMobilePhone::TCspValueAdded &)
	?CspCallCompletion@RCustomerServiceProfileCache@@QAEHAAW4TCspCallCompletion@RMobilePhone@@@Z @ 12 NONAME ; int RCustomerServiceProfileCache::CspCallCompletion(enum RMobilePhone::TCspCallCompletion &)
	?CspCallOffering@RCustomerServiceProfileCache@@QAEHAAW4TCspCallOffering@RMobilePhone@@@Z @ 13 NONAME ; int RCustomerServiceProfileCache::CspCallOffering(enum RMobilePhone::TCspCallOffering &)
	?CspCallRestriction@RCustomerServiceProfileCache@@QAEHAAW4TCspCallRestriction@RMobilePhone@@@Z @ 14 NONAME ; int RCustomerServiceProfileCache::CspCallRestriction(enum RMobilePhone::TCspCallRestriction &)
	?CspTeleServices@RCustomerServiceProfileCache@@QAEHAAW4TCspTeleservices@RMobilePhone@@@Z @ 15 NONAME ; int RCustomerServiceProfileCache::CspTeleServices(enum RMobilePhone::TCspTeleservices &)
	?Get@RSSSettings@@QAEHW4TSSSettingsSetting@@AAH@Z @ 16 NONAME ; int RSSSettings::Get(enum TSSSettingsSetting, int &)
	?HandleRefresh@RCustomerServiceProfileCache@@QAEHXZ @ 17 NONAME ; int RCustomerServiceProfileCache::HandleRefresh(void)
	?HandleRefresh@RSSSettings@@QAEHXZ @ 18 NONAME ; int RSSSettings::HandleRefresh(void)
	?HandleSIMChanged@RSSSettings@@QAEHXZ @ 19 NONAME ; int RSSSettings::HandleSIMChanged(void)
	?IsValueValidCugIndex@RSSSettings@@QBEHABH@Z @ 20 NONAME ; int RSSSettings::IsValueValidCugIndex(int const &) const
	?NewL@CSSSettingsRefreshContainer@@SAPAV1@XZ @ 21 NONAME ; class CSSSettingsRefreshContainer * CSSSettingsRefreshContainer::NewL(void)
	?Open@RCustomerServiceProfileCache@@QAEHXZ @ 22 NONAME ; int RCustomerServiceProfileCache::Open(void)
	?Open@RSSSettings@@QAEHPAVRTelServer@@@Z @ 23 NONAME ; int RSSSettings::Open(class RTelServer *)
	?Open@RSSSettings@@QAEHXZ @ 24 NONAME ; int RSSSettings::Open(void)
	?PreviousCugValue@RSSSettings@@QAEHAAH@Z @ 25 NONAME ; int RSSSettings::PreviousCugValue(int &)
	?RefreshHandler@CSSSettingsRefreshContainer@@QAEAAVMSSSettingsRefreshHandler@@XZ @ 26 NONAME ; class MSSSettingsRefreshHandler & CSSSettingsRefreshContainer::RefreshHandler(void)
	?Register@RSSSettings@@QAEHW4TSSSettingsSetting@@AAVMSSSettingsObserver@@@Z @ 27 NONAME ; int RSSSettings::Register(enum TSSSettingsSetting, class MSSSettingsObserver &)
	?RegisterAll@RSSSettings@@QAEHAAVMSSSettingsObserver@@@Z @ 28 NONAME ; int RSSSettings::RegisterAll(class MSSSettingsObserver &)
	?ResetPreviousCugValue@RSSSettings@@QAEHXZ @ 29 NONAME ; int RSSSettings::ResetPreviousCugValue(void)
	?Set@RSSSettings@@QAEHW4TSSSettingsSetting@@H@Z @ 30 NONAME ; int RSSSettings::Set(enum TSSSettingsSetting, int)

