EXPORTS
	??1CMPXPlaybackEngine@@UAE@XZ @ 1 NONAME ; CMPXPlaybackEngine::~CMPXPlaybackEngine(void)
	?CancelRequests@CMPXPlaybackEngine@@QAEXXZ @ 2 NONAME ; void CMPXPlaybackEngine::CancelRequests(void)
	?ClearSelectPlayersL@CMPXPlaybackPluginHandler@@QAEXXZ @ 3 NONAME ; void CMPXPlaybackPluginHandler::ClearSelectPlayersL(void)
	?CommandL@CMPXPlaybackEngine@@QAEXAAVCMPXMedia@@ABVCMPXMessageQueue@@@Z @ 4 NONAME ; void CMPXPlaybackEngine::CommandL(class CMPXMedia &, class CMPXMessageQueue const &)
	?CommandL@CMPXPlaybackEngine@@QAEXW4TMPXPlaybackCommand@@H@Z @ 5 NONAME ; void CMPXPlaybackEngine::CommandL(enum TMPXPlaybackCommand, int)
	?GetPlayerListL@CMPXPlaybackPluginHandler@@QAEXAAV?$RArray@VTUid@@@@W4TMPXPlaybackPlayerType@@@Z @ 6 NONAME ; void CMPXPlaybackPluginHandler::GetPlayerListL(class RArray<class TUid> &, enum TMPXPlaybackPlayerType)
	?GetSelection@CMPXPlaybackPluginHandler@@QAEXAAW4TMPXPlaybackPlayerType@@AAVTUid@@AAHAAVTPtrC16@@@Z @ 7 NONAME ; void CMPXPlaybackPluginHandler::GetSelection(enum TMPXPlaybackPlayerType &, class TUid &, int &, class TPtrC16 &)
	?InitL@CMPXPlaybackEngine@@QAEXABVCMPXCollectionPlaylist@@H@Z @ 8 NONAME ; void CMPXPlaybackEngine::InitL(class CMPXCollectionPlaylist const &, int)
	?InitL@CMPXPlaybackEngine@@QAEXABVRFile@@@Z @ 9 NONAME ; void CMPXPlaybackEngine::InitL(class RFile const &)
	?InitL@CMPXPlaybackEngine@@QAEXABVTDesC16@@ABVTDesC8@@@Z @ 10 NONAME ; void CMPXPlaybackEngine::InitL(class TDesC16 const &, class TDesC8 const &)
	?MediaL@CMPXPlaybackEngine@@QAEXAAVMMPXPlaybackEngineObserver@@PAVCBufBase@@@Z @ 11 NONAME ; void CMPXPlaybackEngine::MediaL(class MMPXPlaybackEngineObserver &, class CBufBase *)
	?NewL@CMPXPlaybackEngine@@SAPAV1@AAVCMPXPluginMonitor@@AAVMMPXPlaybackActiveEngineObserver@@PAVMMPXClientlistObserver@@ABVTUid@@@Z @12 NONAME ; class CMPXPlaybackEngine * CMPXPlaybackEngine::NewL(CMPXPluginMonitor&, class MMPXPlaybackActiveEngineObserver &, class MMPXClientlistObserver *, class TUid const &)
	?PlayerName@CMPXPlaybackPluginHandler@@QBEABVTDesC16@@W4TMPXPlaybackPlayerType@@@Z @ 13 NONAME ; class TDesC16 const & CMPXPlaybackPluginHandler::PlayerName(enum TMPXPlaybackPlayerType) const
	?PropertyL@CMPXPlaybackEngine@@QAEXW4TMPXPlaybackProperty@@AAVMMPXPlaybackEngineObserver@@@Z @ 14 NONAME ; void CMPXPlaybackEngine::PropertyL(enum TMPXPlaybackProperty, class MMPXPlaybackEngineObserver &)
	?SelectPlayerL@CMPXPlaybackPluginHandler@@QAEXVTUid@@@Z @ 15 NONAME ; void CMPXPlaybackPluginHandler::SelectPlayerL(class TUid)
	?SelectPlayersL@CMPXPlaybackPluginHandler@@QAEXW4TMPXPlaybackPlayerType@@@Z @ 16 NONAME ; void CMPXPlaybackPluginHandler::SelectPlayersL(enum TMPXPlaybackPlayerType)
	?SelectSubPlayerL@CMPXPlaybackPluginHandler@@QAEXVTUid@@H@Z @ 17 NONAME ; void CMPXPlaybackPluginHandler::SelectSubPlayerL(class TUid, int)
	?SetL@CMPXPlaybackEngine@@QAEXW4TMPXPlaybackProperty@@H@Z @ 18 NONAME ; void CMPXPlaybackEngine::SetL(enum TMPXPlaybackProperty, int)
	?SubPlayerNamesL@CMPXPlaybackEngine@@QAEXVTUid@@AAVMMPXPlaybackEngineObserver@@@Z @ 19 NONAME ; void CMPXPlaybackEngine::SubPlayerNamesL(class TUid, class MMPXPlaybackEngineObserver &)
	?MediaL@CMPXPlaybackEngine@@QAEXAAVMMPXPlaybackEngineObserver@@ABVCMPXMedia@@@Z @ 20 NONAME ; void CMPXPlaybackEngine::MediaL(class MMPXPlaybackEngineObserver &, class CMPXMedia const &)
	?InitStreamingL@CMPXPlaybackEngine@@QAEXABVRFile@@H@Z @ 21 NONAME ; void CMPXPlaybackEngine::InitStreamingL(class RFile const &, int)
	?InitStreamingL@CMPXPlaybackEngine@@QAEXABVTDesC16@@ABVTDesC8@@H@Z @ 22 NONAME ; void CMPXPlaybackEngine::InitStreamingL(class TDesC16 const &, class TDesC8 const &, int)
	?ProcessTaggedDataExL@CMPXPlaybackPluginInfo@@MAEXABVTDesC8@@0@Z @ 23 NONAME ; void CMPXPlaybackPluginInfo::ProcessTaggedDataExL(class TDesC8 const &, class TDesC8 const &)
	?SupportedInterfacesL@CMPXPlaybackPluginHandler@@QAEPAVCDesC16Array@@ABVTUid@@@Z @ 24 NONAME ; class CDesC16Array * CMPXPlaybackPluginHandler::SupportedInterfacesL(class TUid const &)
	?SupportedInterfacesL@CMPXPlaybackPluginHandler@@QAEPAVCDesC16Array@@XZ @ 25 NONAME ; class CDesC16Array * CMPXPlaybackPluginHandler::SupportedInterfacesL(void)
	?NewL@CMPXPlaybackEngine@@SAPAV1@AAVCMPXPluginMonitor@@AAVMMPXPlaybackActiveEngineObserver@@PAVMMPXClientlistObserver@@ABVTUid@@H@Z @ 26 NONAME ; class CMPXPlaybackEngine * CMPXPlaybackEngine::NewL(class CMPXPluginMonitor &, class MMPXPlaybackActiveEngineObserver &, class MMPXClientlistObserver *, class TUid const &, int)
	?InitStreaming64L@CMPXPlaybackEngine@@QAEXABVRFile64@@H@Z @ 27 NONAME ; void CMPXPlaybackEngine::InitStreaming64L(class RFile64 const &, int)
	?Init64L@CMPXPlaybackEngine@@QAEXABVRFile64@@@Z @ 28 NONAME ; void CMPXPlaybackEngine::Init64L(class RFile64 const &)

