EXPORTS
	_ZN11RMPXSession7ConnectERK7TDesC16S2_RK8TVersion @ 1 NONAME
	_ZN11TMPXMessageC1ERKS_ @ 2 NONAME
	_ZN11TMPXMessageC1Eiii @ 3 NONAME
	_ZN11TMPXMessageC1Ev @ 4 NONAME
	_ZN11TMPXMessageC2ERKS_ @ 5 NONAME
	_ZN11TMPXMessageC2Eiii @ 6 NONAME
	_ZN11TMPXMessageC2Ev @ 7 NONAME
	_ZN11TMPXMessageaSERKS_ @ 8 NONAME
	_ZN13CMPXParameter12InternalizeLER11RReadStream @ 9 NONAME
	_ZN13CMPXParameterC1Ev @ 10 NONAME
	_ZN13CMPXParameterC2Ev @ 11 NONAME
	_ZN13CMPXParameterD0Ev @ 12 NONAME
	_ZN13CMPXParameterD1Ev @ 13 NONAME
	_ZN13CMPXParameterD2Ev @ 14 NONAME
	_ZN13CMPXTaskQueue10RemoveTaskEPv @ 15 NONAME
	_ZN13CMPXTaskQueue10RemoveTaskEv @ 16 NONAME
	_ZN13CMPXTaskQueue4NewLEv @ 17 NONAME
	_ZN13CMPXTaskQueue4TaskEv @ 18 NONAME
	_ZN13CMPXTaskQueue5ParamEv @ 19 NONAME
	_ZN13CMPXTaskQueue5ResetEv @ 20 NONAME
	_ZN13CMPXTaskQueue7BufDataEv @ 21 NONAME
	_ZN13CMPXTaskQueue7IsEmptyEv @ 22 NONAME
	_ZN13CMPXTaskQueue7PtrDataEv @ 23 NONAME
	_ZN13CMPXTaskQueue8AddTaskLEiPviP8CBufBaseS0_P5CBaseS4_ @ 24 NONAME
	_ZN13CMPXTaskQueue8CallbackEv @ 25 NONAME
	_ZN13CMPXTaskQueueD0Ev @ 26 NONAME
	_ZN13CMPXTaskQueueD1Ev @ 27 NONAME
	_ZN13CMPXTaskQueueD2Ev @ 28 NONAME
	_ZN13TMPXAttribute12InternalizeLER11RReadStream @ 29 NONAME
	_ZN13TMPXAttribute14MatchContentIdERKS_S1_ @ 30 NONAME
	_ZN13TMPXAttribute5MatchERKS_S1_ @ 31 NONAME
	_ZN13TMPXAttributeC1ERK17TMPXAttributeData @ 32 NONAME
	_ZN13TMPXAttributeC1ERKS_ @ 33 NONAME
	_ZN13TMPXAttributeC1Eij @ 34 NONAME
	_ZN13TMPXAttributeC1Ev @ 35 NONAME
	_ZN13TMPXAttributeC2ERK17TMPXAttributeData @ 36 NONAME
	_ZN13TMPXAttributeC2ERKS_ @ 37 NONAME
	_ZN13TMPXAttributeC2Eij @ 38 NONAME
	_ZN13TMPXAttributeC2Ev @ 39 NONAME
	_ZN13TMPXAttributeaSERKS_ @ 40 NONAME
	_ZN14CMPXClientList10AddClientLE9TThreadIdP16CMPXMessageQueue @ 41 NONAME
	_ZN14CMPXClientList10AddClientLE9TThreadIdiP16CMPXMessageQueue @ 42 NONAME
	_ZN14CMPXClientList12RemoveClientEi @ 43 NONAME
	_ZN14CMPXClientList4NewLEP22MMPXClientlistObserver @ 44 NONAME
	_ZN14CMPXClientList7SendMsgEPK9CMPXMediai @ 45 NONAME
	_ZN14CMPXClientList7SendMsgEiPK9CMPXMediai @ 46 NONAME
	_ZN14CMPXClientListD0Ev @ 47 NONAME
	_ZN14CMPXClientListD1Ev @ 48 NONAME
	_ZN14CMPXClientListD2Ev @ 49 NONAME
	_ZN14CMPXMediaArray12InternalizeLER11RReadStream @ 50 NONAME
	_ZN14CMPXMediaArray4NewLERKS_ @ 51 NONAME
	_ZN14CMPXMediaArray4NewLEv @ 52 NONAME
	_ZN14CMPXMediaArray5ResetEv @ 53 NONAME
	_ZN14CMPXMediaArray6InsertEPK9CMPXMediai @ 54 NONAME
	_ZN14CMPXMediaArray6InsertERK9CMPXMediai @ 55 NONAME
	_ZN14CMPXMediaArray6RemoveEi @ 56 NONAME
	_ZN14CMPXMediaArray7AppendLEPK9CMPXMedia @ 57 NONAME
	_ZN14CMPXMediaArray7AppendLERK9CMPXMedia @ 58 NONAME
	_ZN14CMPXMediaArray7InsertLEPK9CMPXMediai @ 59 NONAME
	_ZN14CMPXMediaArray7InsertLERK9CMPXMediai @ 60 NONAME
	_ZN14CMPXMediaArrayD0Ev @ 61 NONAME
	_ZN14CMPXMediaArrayD1Ev @ 62 NONAME
	_ZN14CMPXMediaArrayD2Ev @ 63 NONAME
	_ZN16CMPXMessageQueue3AddEPK9CMPXMediai @ 64 NONAME
	_ZN16CMPXMessageQueue4NewLEv @ 65 NONAME
	_ZN16CMPXMessageQueue5ResetEv @ 66 NONAME
	_ZN16CMPXMessageQueue8SendNextERK9RMessage2 @ 67 NONAME
	_ZN16CMPXMessageQueueD0Ev @ 68 NONAME
	_ZN16CMPXMessageQueueD1Ev @ 69 NONAME
	_ZN16CMPXMessageQueueD2Ev @ 70 NONAME
	_ZN16CMPXPSKeyWatcher4NewLE4TUidiP17MMPXPSKeyObserver @ 71 NONAME
	_ZN16CMPXPSKeyWatcher8GetValueER5TDes8 @ 72 NONAME
	_ZN16CMPXPSKeyWatcher8GetValueER6TDes16 @ 73 NONAME
	_ZN16CMPXPSKeyWatcher8GetValueERi @ 74 NONAME
	_ZN16CMPXPSKeyWatcher8SetValueERK6TDesC8 @ 75 NONAME
	_ZN16CMPXPSKeyWatcher8SetValueERK7TDesC16 @ 76 NONAME
	_ZN16CMPXPSKeyWatcher8SetValueEi @ 77 NONAME
	_ZN16CMPXPSKeyWatcherD0Ev @ 78 NONAME
	_ZN16CMPXPSKeyWatcherD1Ev @ 79 NONAME
	_ZN16CMPXPSKeyWatcherD2Ev @ 80 NONAME
	_ZN17CMPXCenRepWatcher13CurrentValueLEv @ 81 NONAME
	_ZN17CMPXCenRepWatcher4NewLERK4TUidmP18MMPXCenRepObserver @ 82 NONAME
	_ZN17CMPXCenRepWatcher9SetValueLEi @ 83 NONAME
	_ZN17CMPXCenRepWatcherD0Ev @ 84 NONAME
	_ZN17CMPXCenRepWatcherD1Ev @ 85 NONAME
	_ZN17CMPXCenRepWatcherD2Ev @ 86 NONAME
	_ZN17CMPXPluginMonitor4NewLERK4TUid @ 87 NONAME
	_ZN17CMPXPluginMonitorD0Ev @ 88 NONAME
	_ZN17CMPXPluginMonitorD1Ev @ 89 NONAME
	_ZN17CMPXPluginMonitorD2Ev @ 90 NONAME
	_ZN18CMPXCollectionPath10SelectAllLEv @ 91 NONAME
	_ZN18CMPXCollectionPath10SetToFirstEv @ 92 NONAME
	_ZN18CMPXCollectionPath11DeselectAllEv @ 93 NONAME
	_ZN18CMPXCollectionPath12HandleChangeERK4TUidRK10TMPXItemIdS5_NS_24TMPXCollectionPathChangeERi @ 94 NONAME
	_ZN18CMPXCollectionPath12InternalizeLER11RReadStream @ 95 NONAME
	_ZN18CMPXCollectionPath14ClearSelectionEv @ 96 NONAME
	_ZN18CMPXCollectionPath3SetE12TMPXOpenMode @ 97 NONAME
	_ZN18CMPXCollectionPath3SetERK10TMPXItemId @ 98 NONAME
	_ZN18CMPXCollectionPath3SetERK6TArrayI13TMPXAttributeE @ 99 NONAME
	_ZN18CMPXCollectionPath3SetEi @ 100 NONAME
	_ZN18CMPXCollectionPath4BackEv @ 101 NONAME
	_ZN18CMPXCollectionPath4NewLER11RReadStream @ 102 NONAME
	_ZN18CMPXCollectionPath4NewLERKS_ @ 103 NONAME
	_ZN18CMPXCollectionPath4NewLEv @ 104 NONAME
	_ZN18CMPXCollectionPath6RemoveERK10TMPXItemId @ 105 NONAME
	_ZN18CMPXCollectionPath6RemoveEi @ 106 NONAME
	_ZN18CMPXCollectionPath7AppendLERK10TMPXItemId @ 107 NONAME
	_ZN18CMPXCollectionPath7AppendLERK6TArrayI10TMPXItemIdE @ 108 NONAME
	_ZN18CMPXCollectionPath7SelectLERK10TMPXItemId @ 109 NONAME
	_ZN18CMPXCollectionPath7SelectLEi @ 110 NONAME
	_ZN18CMPXCollectionPath8DeselectERK10TMPXItemId @ 111 NONAME
	_ZN18CMPXCollectionPath8DeselectEi @ 112 NONAME
	_ZN18CMPXCollectionPath9SetToLastEv @ 113 NONAME
	_ZN18CMPXCollectionPathD0Ev @ 114 NONAME
	_ZN18CMPXCollectionPathD1Ev @ 115 NONAME
	_ZN18CMPXCollectionPathD2Ev @ 116 NONAME
	_ZN18CMPXCollectionPathmmEv @ 117 NONAME
	_ZN18CMPXCollectionPathppEv @ 118 NONAME
	_ZN18CMPXCollectionType12InternalizeLER11RReadStream @ 119 NONAME
	_ZN18CMPXCollectionTypeC1ERK4TUidP12CDesC16ArrayS4_ @ 120 NONAME
	_ZN18CMPXCollectionTypeC1Ev @ 121 NONAME
	_ZN18CMPXCollectionTypeC2ERK4TUidP12CDesC16ArrayS4_ @ 122 NONAME
	_ZN18CMPXCollectionTypeC2Ev @ 123 NONAME
	_ZN18CMPXMessageMonitor14GetNextMessageEv @ 124 NONAME
	_ZN18CMPXMessageMonitor4NewLERK11RMPXSessionR19MMPXMessageObserver @ 125 NONAME
	_ZN18CMPXMessageMonitor4RunLEv @ 126 NONAME
	_ZN18CMPXMessageMonitor8DoCancelEv @ 127 NONAME
	_ZN18CMPXMessageMonitor8RunErrorEi @ 128 NONAME
	_ZN18CMPXMessageMonitorD0Ev @ 129 NONAME
	_ZN18CMPXMessageMonitorD1Ev @ 130 NONAME
	_ZN18CMPXMessageMonitorD2Ev @ 131 NONAME
	_ZN19CMPXActiveTaskQueue12CompleteTaskEv @ 132 NONAME
	_ZN19CMPXActiveTaskQueue14CancelRequestsEv @ 133 NONAME
	_ZN19CMPXActiveTaskQueue16ScheduleNextTaskEv @ 134 NONAME
	_ZN19CMPXActiveTaskQueue4NewLEv @ 135 NONAME
	_ZN19CMPXActiveTaskQueue8AddTaskLEiPvP21MMPXTaskQueueObserveriP8CBufBaseS0_P5CBaseS6_ @ 136 NONAME
	_ZN19CMPXActiveTaskQueueD0Ev @ 137 NONAME
	_ZN19CMPXActiveTaskQueueD1Ev @ 138 NONAME
	_ZN19CMPXActiveTaskQueueD2Ev @ 139 NONAME
	_ZN19CMPXDrmMediaUtility4NewLEv @ 140 NONAME
	_ZN19CMPXDrmMediaUtility5CloseEv @ 141 NONAME
	_ZN19CMPXDrmMediaUtility5InitLER5RFile @ 142 NONAME
	_ZN19CMPXDrmMediaUtility5InitLERK7TDesC16 @ 143 NONAME
	_ZN19CMPXDrmMediaUtility5NewLCEv @ 144 NONAME
	_ZN19CMPXDrmMediaUtility8ConsumeLE15TDrmConsumeType @ 145 NONAME
	_ZN19CMPXDrmMediaUtility9GetMediaLEj @ 146 NONAME
	_ZN19CMPXDrmMediaUtilityD0Ev @ 147 NONAME
	_ZN19CMPXDrmMediaUtilityD1Ev @ 148 NONAME
	_ZN19CMPXDrmMediaUtilityD2Ev @ 149 NONAME
	_ZN21CMPXPluginHandlerBase12PluginNamesLEv @ 150 NONAME
	_ZN21CMPXPluginHandlerBase13SelectPluginLERK4TUid @ 151 NONAME
	_ZN21CMPXPluginHandlerBase13SelectPluginLERK5RFile @ 152 NONAME
	_ZN21CMPXPluginHandlerBase13SelectPluginLERK7TDesC16 @ 153 NONAME
	_ZN21CMPXPluginHandlerBase13SelectPluginLERK7TDesC16RK6TDesC8 @ 154 NONAME
	_ZN21CMPXPluginHandlerBase13SelectPluginLEi @ 155 NONAME
	_ZN21CMPXPluginHandlerBase14BaseConstructLEv @ 156 NONAME
	_ZN21CMPXPluginHandlerBase15PluginsChangedLEv @ 157 NONAME
	_ZN21CMPXPluginHandlerBase16DoResolvePluginLER4TUidRiR7TPtrC16S2_ @ 158 NONAME
	_ZN21CMPXPluginHandlerBase17CreatePluginListLEv @ 159 NONAME
	_ZN21CMPXPluginHandlerBase17SupportedSchemasLEv @ 160 NONAME
	_ZN21CMPXPluginHandlerBase19SupportedMimeTypesLERK4TUid @ 161 NONAME
	_ZN21CMPXPluginHandlerBase19SupportedMimeTypesLEv @ 162 NONAME
	_ZN21CMPXPluginHandlerBase20GetSelectionCriteriaERNS_16TPluginSelectionERiR4TUidR6TPtrC8S6_S6_ @ 163 NONAME
	_ZN21CMPXPluginHandlerBase20SupportedExtensionsLERK4TUid @ 164 NONAME
	_ZN21CMPXPluginHandlerBase20SupportedExtensionsLEv @ 165 NONAME
	_ZN21CMPXPluginHandlerBase22ClearSelectionCriteriaEv @ 166 NONAME
	_ZN21CMPXPluginHandlerBaseC1E4TUidNS_16TPluginSelectionEiR25MMPXPluginHandlerObserverP17CMPXPluginMonitor @ 167 NONAME
	_ZN21CMPXPluginHandlerBaseC2E4TUidNS_16TPluginSelectionEiR25MMPXPluginHandlerObserverP17CMPXPluginMonitor @ 168 NONAME
	_ZN21CMPXPluginHandlerBaseD0Ev @ 169 NONAME
	_ZN21CMPXPluginHandlerBaseD1Ev @ 170 NONAME
	_ZN21CMPXPluginHandlerBaseD2Ev @ 171 NONAME
	_ZN7MPXUser10CopyArrayLERK12MDesC16ArrayR12CDesC16Array @ 172 NONAME
	_ZN7MPXUser10MergeArrayERK12MDesC16ArrayR12CDesC16Array @ 173 NONAME
	_ZN7MPXUser10ProcessIdLE9TThreadId @ 174 NONAME
	_ZN7MPXUser11CompareUidsERK4TUidS2_ @ 175 NONAME
	_ZN7MPXUser12ExternalizeLEPK12MDesC16ArrayR12RWriteStream @ 176 NONAME
	_ZN7MPXUser12ExternalizeLERK6TArrayI10TMPXItemIdER12RWriteStream @ 177 NONAME
	_ZN7MPXUser12InternalizeLER6RArrayI10TMPXItemIdER11RReadStream @ 178 NONAME
	_ZN7MPXUser12InternalizeLERP12CDesC16ArrayR11RReadStream @ 179 NONAME
	_ZN7MPXUser13CreateBufferLEPK12MDesC16ArrayRP8CBufBase @ 180 NONAME
	_ZN7MPXUser13CreateBufferLERK7TDesC16RP8CBufBase @ 181 NONAME
	_ZN7MPXUser13CreateBufferLERK9RMessage2iRP8CBufBase @ 182 NONAME
	_ZN7MPXUser13IsCallOngoingEi @ 183 NONAME
	_ZN7MPXUser14CreateBufferLCEi @ 184 NONAME
	_ZN7MPXUser15MergeAttributeLERK6TArrayI13TMPXAttributeER6RArrayIS1_E @ 185 NONAME
	_ZN7MPXUser15RecreateBufferLEiRP8CBufBase @ 186 NONAME
	_ZN7MPXUser17CreateFromBufferLERK8CBufBaseRP12CDesC16Array @ 187 NONAME
	_ZN7MPXUser18FindWindowGroupIdLE10TProcessIdR10RWsSession @ 188 NONAME
	_ZN7MPXUser19CompleteWithDllPathERK7TDesC16R6TDes16 @ 189 NONAME
	_ZN7MPXUser23CompareOrderedUidArraysERK6TArrayI4TUidES4_ @ 190 NONAME
	_ZN7MPXUser3PtrERK6TDesC8 @ 191 NONAME
	_ZN7MPXUser3PtrERK7TDesC16 @ 192 NONAME
	_ZN7MPXUser6AllocLERK6TDesC8 @ 193 NONAME
	_ZN7MPXUser7Alloc8LERK7TDesC16 @ 194 NONAME
	_ZN9CMPXMedia12InternalizeLER11RReadStream @ 195 NONAME
	_ZN9CMPXMedia13SetTextValueLERK13TMPXAttributeRK7TDesC16 @ 196 NONAME
	_ZN9CMPXMedia4NewLER11RReadStream @ 197 NONAME
	_ZN9CMPXMedia4NewLERK6TArrayIiE @ 198 NONAME
	_ZN9CMPXMedia4NewLERKS_ @ 199 NONAME
	_ZN9CMPXMedia4NewLEi @ 200 NONAME
	_ZN9CMPXMedia4NewLEv @ 201 NONAME
	_ZN9CMPXMedia5ResetEv @ 202 NONAME
	_ZN9CMPXMedia6DeleteERK13TMPXAttribute @ 203 NONAME
	_ZN9CMPXMedia6DeleteEi @ 204 NONAME
	_ZN9CMPXMedia9SetValueLERK13TMPXAttributeRK6TDesC817TMPXAttributeType @ 205 NONAME
	_ZN9CMPXMediaD0Ev @ 206 NONAME
	_ZN9CMPXMediaD1Ev @ 207 NONAME
	_ZN9CMPXMediaD2Ev @ 208 NONAME
	_ZN9CMPXMediaaSERKS_ @ 209 NONAME
	_ZNK11RMPXSession11SendReceiveEiR14TRequestStatus @ 210 NONAME
	_ZNK11RMPXSession11SendReceiveEiRK8TIpcArgsR14TRequestStatus @ 211 NONAME
	_ZNK11RMPXSession12SendReceiveLEi @ 212 NONAME
	_ZNK11RMPXSession12SendReceiveLEiRK8TIpcArgs @ 213 NONAME
	_ZNK11RMPXSession7VersionEv @ 214 NONAME
	_ZNK11TMPXMessage4DataEv @ 215 NONAME
	_ZNK11TMPXMessage4TypeEv @ 216 NONAME
	_ZNK11TMPXMessage5EventEv @ 217 NONAME
	_ZNK13CMPXParameter12ExternalizeLER12RWriteStream @ 218 NONAME
	_ZNK13TMPXAttribute11AttributeIdEv @ 219 NONAME
	_ZNK13TMPXAttribute12ExternalizeLER12RWriteStream @ 220 NONAME
	_ZNK13TMPXAttribute9ContentIdEv @ 221 NONAME
	_ZNK13TMPXAttributeeqERKS_ @ 222 NONAME
	_ZNK14CMPXClientList10ClientModeEi @ 223 NONAME
	_ZNK14CMPXClientList11ClientCountEv @ 224 NONAME
	_ZNK14CMPXClientList17ClientProcessListEv @ 225 NONAME
	_ZNK14CMPXClientList4FindE9TThreadId @ 226 NONAME
	_ZNK14CMPXClientList4FindERK16CMPXMessageQueue @ 227 NONAME
	_ZNK14CMPXClientList8IsClientE9TThreadId @ 228 NONAME
	_ZNK14CMPXMediaArray12ExternalizeLER12RWriteStream @ 229 NONAME
	_ZNK14CMPXMediaArray5CountEv @ 230 NONAME
	_ZNK14CMPXMediaArrayixEi @ 231 NONAME
	_ZNK17TMPXAttributeDataanERKS_ @ 232 NONAME
	_ZNK17TMPXAttributeDataanERj @ 233 NONAME
	_ZNK17TMPXAttributeDataorERKS_ @ 234 NONAME
	_ZNK18CMPXCollectionPath10IsSelectedERK10TMPXItemId @ 235 NONAME
	_ZNK18CMPXCollectionPath10IsSelectedEi @ 236 NONAME
	_ZNK18CMPXCollectionPath10SelectionLER6RArrayI10TMPXItemIdE @ 237 NONAME
	_ZNK18CMPXCollectionPath12ExternalizeLER12RWriteStream @ 238 NONAME
	_ZNK18CMPXCollectionPath12OpenNextModeEv @ 239 NONAME
	_ZNK18CMPXCollectionPath14OpenAttributesEv @ 240 NONAME
	_ZNK18CMPXCollectionPath16OpenPreviousModeEv @ 241 NONAME
	_ZNK18CMPXCollectionPath2IdEi @ 242 NONAME
	_ZNK18CMPXCollectionPath2IdEv @ 243 NONAME
	_ZNK18CMPXCollectionPath5CountEv @ 244 NONAME
	_ZNK18CMPXCollectionPath5IndexEi @ 245 NONAME
	_ZNK18CMPXCollectionPath5IndexEv @ 246 NONAME
	_ZNK18CMPXCollectionPath6LevelsEv @ 247 NONAME
	_ZNK18CMPXCollectionPath9IdOfIndexEi @ 248 NONAME
	_ZNK18CMPXCollectionPath9IndexOfIdERK10TMPXItemId @ 249 NONAME
	_ZNK18CMPXCollectionPath9SelectionEv @ 250 NONAME
	_ZNK18CMPXCollectionType12ExternalizeLER12RWriteStream @ 251 NONAME
	_ZNK21CMPXPluginHandlerBase10FindPluginERK6TArrayI4TUidE @ 252 NONAME
	_ZNK21CMPXPluginHandlerBase10PluginNameERK4TUid @ 253 NONAME
	_ZNK21CMPXPluginHandlerBase10PluginNameEi @ 254 NONAME
	_ZNK21CMPXPluginHandlerBase11SupportUidsERK4TUidRK6TArrayIS0_E @ 255 NONAME
	_ZNK21CMPXPluginHandlerBase13GetPluginUidsER6RArrayI4TUidE @ 256 NONAME
	_ZNK21CMPXPluginHandlerBase14GetPluginTypesER6RArrayIiE @ 257 NONAME
	_ZNK21CMPXPluginHandlerBase14GetPluginUidsLER6RArrayI4TUidEi @ 258 NONAME
	_ZNK21CMPXPluginHandlerBase7IndexOfERK4TUid @ 259 NONAME
	_ZNK21CMPXPluginHandlerBase9PluginUidERK7TDesC16 @ 260 NONAME
	_ZNK9CMPXMedia10AttributesEv @ 261 NONAME
	_ZNK9CMPXMedia11IsSupportedERK13TMPXAttribute @ 262 NONAME
	_ZNK9CMPXMedia12ExternalizeLER12RWriteStream @ 263 NONAME
	_ZNK9CMPXMedia12SupportedIdsEv @ 264 NONAME
	_ZNK9CMPXMedia13AttributesSetEi @ 265 NONAME
	_ZNK9CMPXMedia4TypeERK13TMPXAttribute @ 266 NONAME
	_ZNK9CMPXMedia4TypeEi @ 267 NONAME
	_ZNK9CMPXMedia5CountEv @ 268 NONAME
	_ZNK9CMPXMedia5IndexERK13TMPXAttribute @ 269 NONAME
	_ZNK9CMPXMedia8ValuePtrERK13TMPXAttribute @ 270 NONAME
	_ZNK9CMPXMedia9AttributeEi @ 271 NONAME
	_ZNK9CMPXMedia9ValueTextERK13TMPXAttribute @ 272 NONAME
	_ZTI13CMPXParameter @ 273 NONAME ; #<TI>#
	_ZTI13CMPXTaskQueue @ 274 NONAME ; #<TI>#
	_ZTI14CMPXClientList @ 275 NONAME ; #<TI>#
	_ZTI14CMPXMediaArray @ 276 NONAME ; #<TI>#
	_ZTI16CMPXMessageQueue @ 277 NONAME ; #<TI>#
	_ZTI16CMPXPSKeyWatcher @ 278 NONAME ; #<TI>#
	_ZTI17CMPXCenRepWatcher @ 279 NONAME ; #<TI>#
	_ZTI17CMPXPluginMonitor @ 280 NONAME ; #<TI>#
	_ZTI18CMPXCollectionPath @ 281 NONAME ; #<TI>#
	_ZTI18CMPXCollectionType @ 282 NONAME ; #<TI>#
	_ZTI18CMPXMessageMonitor @ 283 NONAME ; #<TI>#
	_ZTI19CMPXActiveTaskQueue @ 284 NONAME ; #<TI>#
	_ZTI21CMPXPluginHandlerBase @ 285 NONAME ; #<TI>#
	_ZTI9CMPXMedia @ 286 NONAME ; #<TI>#
	_ZTV13CMPXParameter @ 287 NONAME ; #<VT>#
	_ZTV13CMPXTaskQueue @ 288 NONAME ; #<VT>#
	_ZTV14CMPXClientList @ 289 NONAME ; #<VT>#
	_ZTV14CMPXMediaArray @ 290 NONAME ; #<VT>#
	_ZTV16CMPXMessageQueue @ 291 NONAME ; #<VT>#
	_ZTV16CMPXPSKeyWatcher @ 292 NONAME ; #<VT>#
	_ZTV17CMPXCenRepWatcher @ 293 NONAME ; #<VT>#
	_ZTV17CMPXPluginMonitor @ 294 NONAME ; #<VT>#
	_ZTV18CMPXCollectionPath @ 295 NONAME ; #<VT>#
	_ZTV18CMPXCollectionType @ 296 NONAME ; #<VT>#
	_ZTV18CMPXMessageMonitor @ 297 NONAME ; #<VT>#
	_ZTV19CMPXActiveTaskQueue @ 298 NONAME ; #<VT>#
	_ZTV21CMPXPluginHandlerBase @ 299 NONAME ; #<VT>#
	_ZTV9CMPXMedia @ 300 NONAME ; #<VT>#
	_ZThn4_N21CMPXPluginHandlerBase15PluginsChangedLEv @ 301 NONAME ; #<thunk>#
	_ZN18CMPXCollectionPath5ResetEv @ 302 NONAME
	_ZN14CMPXMediaArray3SetERK9CMPXMediai @ 303 NONAME
	_ZN18CMPXCollectionPath4SetLERK6TArrayI13TMPXAttributeE @ 304 NONAME
	_ZN9CMPXMedia5CopyLERKS_ @ 305 NONAME
	_ZN9CMPXMedia11MergeMediaLERKS_ @ 306 NONAME
	_ZN9CMPXMedia15HeapMemoryInfoLERiS0_ @ 307 NONAME
	_ZN18CMPXCollectionPath6UpdateEiR10TMPXItemId @ 308 NONAME
	_ZNK18CMPXCollectionPath5ItemsEv @ 309 NONAME
	_ZN18CMPXCollectionPath7InsertLERK10TMPXItemIdi @ 310 NONAME
	_ZN14CMPXClientList16AddSubscriptionLEiP16CMPXSubscription @ 311 NONAME
	_ZN14CMPXClientList19RemoveSubscriptionLEiRK16CMPXSubscription @ 312 NONAME
	_ZN14CMPXClientList23RemoveAllSubscriptionsLEi @ 313 NONAME
	_ZN16CMPXSubscription4NewLER14CMPXMediaArray @ 314 NONAME
	_ZN16CMPXSubscription4NewLEv @ 315 NONAME
	_ZN16CMPXSubscription8AddItemLERK9CMPXMedia @ 316 NONAME
	_ZN9CMPXMedia5MatchERKS_RK13TMPXAttribute @ 317 NONAME
	_ZNK16CMPXSubscription6ItemsLEv @ 318 NONAME
	_ZNK16CMPXSubscriptioneqERKS_ @ 319 NONAME
	_ZNK21CMPXPluginHandlerBase10PluginTypeERK4TUid @ 320 NONAME
	_ZNK21CMPXPluginHandlerBase12PluginFlagsLERK4TUid @ 321 NONAME
	_ZNK18CMPXCollectionPath14ContainerPathLEv @ 322 NONAME
	_ZN14CMPXPluginInfo18ProcessTaggedDataLERK6TDesC8S2_ @ 323 NONAME
	_ZN14CMPXPluginInfo20ExtractUidsFromTextLERK6TDesC8R6RArrayI4TUidE @ 324 NONAME
	_ZN14CMPXPluginInfo20ProcessTaggedDataExLERK6TDesC8S2_ @ 325 NONAME
	_ZN14CMPXPluginInfoC1Ev @ 326 NONAME
	_ZN14CMPXPluginInfoC2Ev @ 327 NONAME
	_ZN14CMPXPluginInfoD0Ev @ 328 NONAME
	_ZN14CMPXPluginInfoD1Ev @ 329 NONAME
	_ZN14CMPXPluginInfoD2Ev @ 330 NONAME
	_ZN21CMPXPluginHandlerBase21ConstructPluginInfoLCERK26CImplementationInformation @ 331 NONAME
	_ZNK14CMPXPluginInfo17ImplementationUidEv @ 332 NONAME
	_ZTI14CMPXPluginInfo @ 333 NONAME ; #<TI>#
	_ZTV14CMPXPluginInfo @ 334 NONAME ; #<VT>#
	_ZThn4_N14CMPXPluginInfo18ProcessTaggedDataLERK6TDesC8S2_ @ 335 NONAME ; #<thunk>#
	_ZN14CMPXPluginInfo10ConstructLERK26CImplementationInformation @ 336 NONAME
	_ZNK14CMPXPluginInfo5FlagsEv @ 337 NONAME
	_ZNK14CMPXMediaArray3AtLEi @ 338 NONAME
	_ZN19CMPXActiveTaskQueue16CompleteAllTasksEi @ 339 NONAME
	_ZN21CMPXPluginHandlerBase11LoadPluginLERK4TUid @ 340 NONAME
	_ZN21CMPXPluginHandlerBase12UnloadPluginERK4TUid @ 341 NONAME
	_ZN21CMPXPluginHandlerBase13ReleasePluginERK4TUid @ 342 NONAME
	_ZN21CMPXPluginHandlerBase14IsPluginLoadedERK4TUid @ 343 NONAME
	_ZN21CMPXPluginHandlerBase14ResolvePluginLEv @ 344 NONAME
	_ZN21CMPXPluginHandlerBase18HandlePluginUnloadERK4TUid @ 345 NONAME
	_ZN21CMPXPluginHandlerBase9UsePluginERK4TUid @ 346 NONAME
	_ZN7MPXUser8Alloc8ZLERK7TDesC16 @ 347 NONAME
	_ZN9CMPXMedia9SetErrorLERK13TMPXAttributei @ 348 NONAME
	_ZNK9CMPXMedia5ErrorERK13TMPXAttribute @ 349 NONAME
	_ZThn4_N21CMPXPluginHandlerBase18HandlePluginUnloadERK4TUid @ 350 NONAME ; #<thunk>#
	_ZNK9CMPXMedia8GetValueERK13TMPXAttributeR5TDes8 @ 351 NONAME
	_ZN14CMPXPluginInfo17ExtractIntoArrayLERK6TDesC8RP12CDesC16Array @ 352 NONAME
	_ZN11RMPXSession5CloseEv @ 353 NONAME
	_ZN11RMPXSessionC1Ev @ 354 NONAME
	_ZN11RMPXSessionC2Ev @ 355 NONAME
	_ZN11RMPXSessionD1Ev @ 356 NONAME
	_ZN11RMPXSessionD2Ev @ 357 NONAME
	_ZNK11RMPXSession9ReconnectEv @ 358 NONAME
	_ZNK21CMPXPluginHandlerBase15SupportedAppUidERK4TUid @ 359 NONAME
	_ZN14CMPXClientList10AddClientLE9TThreadIdiP16CMPXMessageQueuei @ 360 NONAME
	_ZNK14CMPXClientList14ClientCategoryEi @ 361 NONAME
	_ZN21CMPXPluginHandlerBase15SelectPlugin64LERK7RFile64 @ 362 NONAME
	_ZN14CMPXClientList11SendSyncMsgEPK9CMPXMedia @ 363 NONAME
	_ZN14CMPXClientList16SetPrimaryClientER16CMPXMessageQueue @ 364 NONAME
	_ZN16CMPXMessageQueue8AddFirstEPK9CMPXMediai @ 365 NONAME

