EXPORTS
	_ZN18ReferenceTestAgent10RRtaRights10AddRightsLERNS_13CRightsObjectE @ 1 NONAME
	_ZN18ReferenceTestAgent10RRtaRights15ClearAllRightsLEv @ 2 NONAME
	_ZN18ReferenceTestAgent10RRtaRights15EraseDeleteKeyLERK6TDesC8 @ 3 NONAME
	_ZN18ReferenceTestAgent10RRtaRights18DeleteRightsByKeyLERK6TDesC8 @ 4 NONAME
	_ZN18ReferenceTestAgent10RRtaRights19DumpRightsDatabaseLERK7TDesC16 @ 5 NONAME
	_ZN18ReferenceTestAgent10RRtaRights21ReloadRightsDatabaseLERK7TDesC16 @ 6 NONAME
	_ZN18ReferenceTestAgent10RRtaRights7ConnectEv @ 7 NONAME
	_ZN18ReferenceTestAgent10RRtaRights9GetRightsEv @ 8 NONAME
	_ZN18ReferenceTestAgent10RRtaRightsC1Ev @ 9 NONAME
	_ZN18ReferenceTestAgent10RRtaRightsC2Ev @ 10 NONAME
	_ZN18ReferenceTestAgent11RRtaContent4OpenER5RFile @ 11 NONAME
	_ZN18ReferenceTestAgent11RRtaContent4OpenERK7TDesC16j @ 12 NONAME
	_ZN18ReferenceTestAgent11RRtaContentC1Ev @ 13 NONAME
	_ZN18ReferenceTestAgent11RRtaContentC2Ev @ 14 NONAME
	_ZN18ReferenceTestAgent11RRtaManager7ConnectEv @ 15 NONAME
	_ZN18ReferenceTestAgent11RRtaManagerC1Ev @ 16 NONAME
	_ZN18ReferenceTestAgent11RRtaManagerC2Ev @ 17 NONAME
	_ZN18ReferenceTestAgent8RRtaData14ExecuteIntentLEN13ContentAccess7TIntentE @ 18 NONAME
	_ZN18ReferenceTestAgent8RRtaData15EvaluateIntentLEN13ContentAccess7TIntentE @ 19 NONAME
	_ZN18ReferenceTestAgent8RRtaData4OpenER5RFileRK7TDesC16 @ 20 NONAME
	_ZN18ReferenceTestAgent8RRtaData4OpenERK7TDesC16S3_j @ 21 NONAME
	_ZN18ReferenceTestAgent8RRtaData4ReadER5TDes8i @ 22 NONAME
	_ZN18ReferenceTestAgent8RRtaData4ReadEiR5TDes8i @ 23 NONAME
	_ZN18ReferenceTestAgent8RRtaData8DataSizeERi @ 24 NONAME
	_ZN18ReferenceTestAgent8RRtaDataC1Ev @ 25 NONAME
	_ZN18ReferenceTestAgent8RRtaDataC2Ev @ 26 NONAME
	_ZNK18ReferenceTestAgent11RRtaContent12GetAttributeERK7TDesC16iRi @ 27 NONAME
	_ZNK18ReferenceTestAgent11RRtaContent13OpenContainerERK7TDesC16 @ 28 NONAME
	_ZNK18ReferenceTestAgent11RRtaContent14CloseContainerEv @ 29 NONAME
	_ZNK18ReferenceTestAgent11RRtaContent16GetAttributeSetLERK7TDesC16RN13ContentAccess13RAttributeSetE @ 30 NONAME
	_ZNK18ReferenceTestAgent11RRtaContent18GetStringAttributeERK7TDesC16iR6TDes16 @ 31 NONAME
	_ZNK18ReferenceTestAgent11RRtaContent19GetEmbeddedObjectsLERN13ContentAccess19RStreamablePtrArrayINS1_15CEmbeddedObjectEEE @ 32 NONAME
	_ZNK18ReferenceTestAgent11RRtaContent19GetEmbeddedObjectsLERN13ContentAccess19RStreamablePtrArrayINS1_15CEmbeddedObjectEEENS1_13TEmbeddedTypeE @ 33 NONAME
	_ZNK18ReferenceTestAgent11RRtaContent22GetStringAttributeSetLERK7TDesC16RN13ContentAccess19RStringAttributeSetE @ 34 NONAME
	_ZNK18ReferenceTestAgent11RRtaContent7SearchLERN13ContentAccess19RStreamablePtrArrayINS1_15CEmbeddedObjectEEERK6TDesC8i @ 35 NONAME
	_ZNK18ReferenceTestAgent11RRtaManager10DeleteFileERK7TDesC16 @ 36 NONAME
	_ZNK18ReferenceTestAgent11RRtaManager10RenameFileERK7TDesC16S3_ @ 37 NONAME
	_ZNK18ReferenceTestAgent11RRtaManager12GetAttributeERKN13ContentAccess15TVirtualPathPtrEiRi @ 38 NONAME
	_ZNK18ReferenceTestAgent11RRtaManager16GetAttributeSetLERKN13ContentAccess15TVirtualPathPtrERNS1_13RAttributeSetE @ 39 NONAME
	_ZNK18ReferenceTestAgent11RRtaManager18GetStringAttributeERKN13ContentAccess15TVirtualPathPtrEiR6TDes16 @ 40 NONAME
	_ZNK18ReferenceTestAgent11RRtaManager22GetStringAttributeSetLERKN13ContentAccess15TVirtualPathPtrERNS1_19RStringAttributeSetE @ 41 NONAME
	_ZNK18ReferenceTestAgent11RRtaManager5MkDirERK7TDesC16 @ 42 NONAME
	_ZNK18ReferenceTestAgent11RRtaManager5RmDirERK7TDesC16 @ 43 NONAME
	_ZNK18ReferenceTestAgent11RRtaManager7GetDirLERK7TDesC168TUidTypejRP4CDir @ 44 NONAME
	_ZNK18ReferenceTestAgent11RRtaManager7GetDirLERK7TDesC16jjRP4CDir @ 45 NONAME
	_ZNK18ReferenceTestAgent11RRtaManager7GetDirLERK7TDesC16jjRP4CDirS6_ @ 46 NONAME
	_ZNK18ReferenceTestAgent11RRtaManager8CopyFileER5RFileRK7TDesC16 @ 47 NONAME
	_ZNK18ReferenceTestAgent11RRtaManager8CopyFileERK7TDesC16S3_ @ 48 NONAME
	_ZNK18ReferenceTestAgent11RRtaManager8MkDirAllERK7TDesC16 @ 49 NONAME
	_ZNK18ReferenceTestAgent11RRtaManager9RenameDirERK7TDesC16S3_ @ 50 NONAME
	_ZNK18ReferenceTestAgent8RRtaData12GetAttributeEiRi @ 51 NONAME
	_ZNK18ReferenceTestAgent8RRtaData16GetAttributeSetLERN13ContentAccess13RAttributeSetE @ 52 NONAME
	_ZNK18ReferenceTestAgent8RRtaData18GetStringAttributeEiR6TDes16 @ 53 NONAME
	_ZNK18ReferenceTestAgent8RRtaData22GetStringAttributeSetLERN13ContentAccess19RStringAttributeSetE @ 54 NONAME
	_ZNK18ReferenceTestAgent8RRtaData4SeekE5TSeekRi @ 55 NONAME

