EXPORTS
	?SetAgentProperty@CDataSourceAdapter@@UAEHW4TAgentProperty@ContentAccess@@H@Z @ 1 NONAME ; int CDataSourceAdapter::SetAgentProperty(enum ContentAccess::TAgentProperty, int)
	?BufferEmptiedL@CDataSourceAdapter@@UAEXPAVCMMFBuffer@@@Z @ 2 NONAME ; void CDataSourceAdapter::BufferEmptiedL(class CMMFBuffer *)
	?SetSourcePrioritySettings@CDataSourceAdapter@@UAEXABVTMMFPrioritySettings@@@Z @ 3 NONAME ; void CDataSourceAdapter::SetSourcePrioritySettings(class TMMFPrioritySettings const &)
	?SeekToTime@CDataSourceAdapter@@UAEHI@Z @ 4 NONAME ; int CDataSourceAdapter::SeekToTime(unsigned int)
	??1CDataSourceAdapter@@UAE@XZ @ 5 NONAME ; CDataSourceAdapter::~CDataSourceAdapter(void)
	?SetAudioOutputControlUtil@CDataSourceAdapter@@QAEHPAVCAudioOutputControlUtility@@@Z @ 6 NONAME ; int CDataSourceAdapter::SetAudioOutputControlUtil(class CAudioOutputControlUtility *)
	?NewL@CDataSourceAdapter@@SAPAV1@XZ @ 7 NONAME ; class CDataSourceAdapter * CDataSourceAdapter::NewL(void)
	?SourcePrimeL@CDataSourceAdapter@@UAEXXZ @ 8 NONAME ; void CDataSourceAdapter::SourcePrimeL(void)
	?Event@CDataSourceAdapter@@UAEXVTUid@@@Z @ 9 NONAME ; void CDataSourceAdapter::Event(class TUid)
	?SeekToTime@CDataSourceAdapter@@UAEHIAAI@Z @ 10 NONAME ; int CDataSourceAdapter::SeekToTime(unsigned int, unsigned int &)
	?SourceThreadLogon@CDataSourceAdapter@@UAEHAAVMAsyncEventHandler@@@Z @ 11 NONAME ; int CDataSourceAdapter::SourceThreadLogon(class MAsyncEventHandler &)
	?ExecuteIntent@CDataSourceAdapter@@UAEHW4TIntent@ContentAccess@@@Z @ 12 NONAME ; int CDataSourceAdapter::ExecuteIntent(enum ContentAccess::TIntent)
	?DataSourceType@CDataSourceAdapter@@UAE?AVTUid@@XZ @ 13 NONAME ; class TUid CDataSourceAdapter::DataSourceType(void)
	?IsProtectedL@CDataSourceAdapter@@UAEHXZ @ 14 NONAME ; int CDataSourceAdapter::IsProtectedL(void)
	?FillBufferL@CDataSourceAdapter@@UAEXPAVCMMFBuffer@@PAVMDataSink@@VTMediaId@@@Z @ 15 NONAME ; void CDataSourceAdapter::FillBufferL(class CMMFBuffer *, class MDataSink *, class TMediaId)
	?IsLocalPlayback@CDataSourceAdapter@@UAEHXZ @ 16 NONAME ; int CDataSourceAdapter::IsLocalPlayback(void)
	?IsPositonSeekable@CDataSourceAdapter@@UAEHXZ @ 17 NONAME ; int CDataSourceAdapter::IsPositonSeekable(void)
	?CanCreateSourceBuffer@CDataSourceAdapter@@UAEHXZ @ 18 NONAME ; int CDataSourceAdapter::CanCreateSourceBuffer(void)
	?CreateSourceBufferL@CDataSourceAdapter@@UAEPAVCMMFBuffer@@VTMediaId@@AAH@Z @ 19 NONAME ; class CMMFBuffer * CDataSourceAdapter::CreateSourceBufferL(class TMediaId, int &)
	?SourceStopL@CDataSourceAdapter@@UAEXXZ @ 20 NONAME ; void CDataSourceAdapter::SourceStopL(void)
	?IsTimeSeekable@CDataSourceAdapter@@UAEHXZ @ 21 NONAME ; int CDataSourceAdapter::IsTimeSeekable(void)
	?SetDataSourceL@CDataSourceAdapter@@UAEXPAVMDataSource@@PAVMMultimediaDataSourceObserver@@PAVMAsyncEventHandler@@@Z @ 22 NONAME ; void CDataSourceAdapter::SetDataSourceL(class MDataSource *, class MMultimediaDataSourceObserver *, class MAsyncEventHandler *)
	?SeekToPosition@CDataSourceAdapter@@UAEHI@Z @ 23 NONAME ; int CDataSourceAdapter::SeekToPosition(unsigned int)
	?GetInterface@CDataSourceAdapter@@UAEHVTUid@@AAVTVersion@@AAPAX@Z @ 24 NONAME ; int CDataSourceAdapter::GetInterface(class TUid, class TVersion &, void * &)
	?EvaluateIntent@CDataSourceAdapter@@UAEHW4TIntent@ContentAccess@@@Z @ 25 NONAME ; int CDataSourceAdapter::EvaluateIntent(enum ContentAccess::TIntent)
	?OnlyHeaderPresent@CDataSourceAdapter@@UAEHXZ @ 26 NONAME ; int CDataSourceAdapter::OnlyHeaderPresent(void)
	?SourceSize@CDataSourceAdapter@@UAEHXZ @ 27 NONAME ; int CDataSourceAdapter::SourceSize(void)
	?SourcePlayL@CDataSourceAdapter@@UAEXXZ @ 28 NONAME ; void CDataSourceAdapter::SourcePlayL(void)
	?SourceThreadLogoff@CDataSourceAdapter@@UAEXXZ @ 29 NONAME ; void CDataSourceAdapter::SourceThreadLogoff(void)
	??0CDataSourceAdapter@@IAE@XZ @ 30 NONAME ; CDataSourceAdapter::CDataSourceAdapter(void)
	?ResetDataSource@CDataSourceAdapter@@UAEXXZ @ 31 NONAME ; void CDataSourceAdapter::ResetDataSource(void)

