EXPORTS
	_ZN13CWspCOSession10DisconnectEv @ 1 NONAME
	_ZN13CWspCOSession10StringPoolEv @ 2 NONAME
	_ZN13CWspCOSession13SetProxyInfoLEP18CProxyInfoProvider @ 3 NONAME
	_ZN13CWspCOSession14CancelGetEventEv @ 4 NONAME
	_ZN13CWspCOSession14GetSessionDataER5TPtr819TWspSessionDataType @ 5 NONAME
	_ZN13CWspCOSession15GetSessionStateERN3Wap16TWspSessionStateE @ 6 NONAME
	_ZN13CWspCOSession15OpenTransactionEP15CWspTransaction10TWspMethodRK6TUriC8RK6TDesC8S8_i @ 7 NONAME
	_ZN13CWspCOSession20SetWtlsCipherSuitesLER6RArrayI16TWtlsCipherSuiteE @ 8 NONAME
	_ZN13CWspCOSession20SetWtlsSharedSecretLERK6TDesC8 @ 9 NONAME
	_ZN13CWspCOSession21SetWtlsKeyRefresRateLERK6TDesC8 @ 10 NONAME
	_ZN13CWspCOSession25SetWtlsKeyExchangeSuitesLER6RArrayI21TWtlsKeyExchangeSuiteE @ 11 NONAME
	_ZN13CWspCOSession25SetWtlsRecordLengthUsageLEi @ 12 NONAME
	_ZN13CWspCOSession26SetWtlsSequenceNumberModeLEi @ 13 NONAME
	_ZN13CWspCOSession4NewLEv @ 14 NONAME
	_ZN13CWspCOSession8ConnectLERK6TDesC8R20MWspCapabilityViewer @ 15 NONAME
	_ZN13CWspCOSession8GetEventER9TWspEventRP15CWspTransactionR14TRequestStatus @ 16 NONAME
	_ZN13CWspCOSessionD0Ev @ 17 NONAME
	_ZN13CWspCOSessionD1Ev @ 18 NONAME
	_ZN13CWspCOSessionD2Ev @ 19 NONAME
	_ZN15CWspTransaction11AcknowledgeERK6TDesC8 @ 20 NONAME
	_ZN15CWspTransaction2IdERi @ 21 NONAME
	_ZN15CWspTransaction4NewLEv @ 22 NONAME
	_ZN15CWspTransaction5AbortEi @ 23 NONAME
	_ZN15CWspTransaction5OpenLEP19MWspCOMethodInvoker8RStringFRK6TUriC8RK6TDesC8S8_iP14MEventCallbacki @ 24 NONAME
	_ZN15CWspTransaction7GetDataER5TPtr823TWspTransactionDataTypePi @ 25 NONAME
	_ZN15CWspTransaction7ReleaseEv @ 26 NONAME
	_ZN15CWspTransaction8GetStateERN3Wap15TWspMethodStateE @ 27 NONAME
	_ZN15CWspTransactionD0Ev @ 28 NONAME
	_ZN15CWspTransactionD1Ev @ 29 NONAME
	_ZN15CWspTransactionD2Ev @ 30 NONAME
	_ZN18CProxyInfoProvider12SetLocalPortEt @ 31 NONAME
	_ZN18CProxyInfoProvider13SetRemotePortEt @ 32 NONAME
	_ZN18CProxyInfoProvider16SetProxyAddressLERK6TDesC8 @ 33 NONAME
	_ZN18CProxyInfoProvider19SetSecureConnectionEi @ 34 NONAME
	_ZN18CProxyInfoProvider20SetWspSessionServiceEN3Wap11TWspSessionE @ 35 NONAME
	_ZN18CProxyInfoProvider23SetServiceCentreNumberLERK6TDesC8 @ 36 NONAME
	_ZN18CProxyInfoProvider4NewLE11RStringPool @ 37 NONAME
	_ZN18CProxyInfoProvider9SetBearerEN3Wap10TWspBearerE @ 38 NONAME
	_ZN18CProxyInfoProviderD0Ev @ 39 NONAME
	_ZN18CProxyInfoProviderD1Ev @ 40 NONAME
	_ZN18CProxyInfoProviderD2Ev @ 41 NONAME
	_ZN18CWspCapabilityInfo4NewLEv @ 42 NONAME
	_ZN18CWspCapabilityInfoD0Ev @ 43 NONAME
	_ZN18CWspCapabilityInfoD1Ev @ 44 NONAME
	_ZN18CWspCapabilityInfoD2Ev @ 45 NONAME

