EXPORTS
	_ZN4CCCE11GetLifeTimeER5TDes8 @ 1 NONAME
	_ZN4CCCE11SetObserverER12MCCEObserverR14MCCESsObserver @ 2 NONAME
	_ZN4CCCE12OpenNewCallLERK7TDesC16RK18CCCECallParametersRK16MCCECallObserver @ 3 NONAME
	_ZN4CCCE13TerminateCallER4TBufILi128EE @ 4 NONAME
	_ZN4CCCE13TerminateCallERiR4TBufILi128EE @ 5 NONAME
	_ZN4CCCE14DtmfInterfaceLERK16MCCEDtmfObserver @ 6 NONAME
	_ZN4CCCE15ConferenceCallLERK26MCCEConferenceCallObserver @ 7 NONAME
	_ZN4CCCE17TerminateAllCallsEv @ 8 NONAME
	_ZN4CCCE18GetAirTimeDurationER20TTimeIntervalSecondsS1_ @ 9 NONAME
	_ZN4CCCE19ExtensionInterfaceLERK21MCCEExtensionObserver @ 10 NONAME
	_ZN4CCCE23InitializeEmergencyCallERK16MCCECallObserver @ 11 NONAME
	_ZN4CCCE36TerminateAllButRingingAndQueuedCallsEv @ 12 NONAME
	_ZN4CCCE4NewLER12MCCEObserver @ 13 NONAME
	_ZN4CCCE4NewLEv @ 14 NONAME
	_ZN4CCCE5NewLCER12MCCEObserver @ 15 NONAME
	_ZN4CCCE5NewLCEv @ 16 NONAME
	_ZN4CCCE9GetCSInfoER6CSInfo @ 17 NONAME
	_ZTI18CCCECallParameters @ 18 NONAME ; #<TI>#
	_ZTI4CCCE @ 19 NONAME ; #<TI>#
	_ZTV18CCCECallParameters @ 20 NONAME ; #<VT>#
	_ZTV4CCCE @ 21 NONAME ; #<VT>#
	_ZN18CCCECallParameters4NewLEv @ 22 NONAME

